ARM GAS  C:\Users\pxc\AppData\Local\Temp\ccWhJLVC.s 			page 1


   1              		.syntax unified
   2              		.cpu cortex-m3
   3              		.fpu softvfp
   4              		.eabi_attribute 20, 1
   5              		.eabi_attribute 21, 1
   6              		.eabi_attribute 23, 3
   7              		.eabi_attribute 24, 1
   8              		.eabi_attribute 25, 1
   9              		.eabi_attribute 26, 1
  10              		.eabi_attribute 30, 1
  11              		.eabi_attribute 34, 1
  12              		.eabi_attribute 18, 4
  13              		.thumb
  14              		.file	"ADC_V.c"
  15              		.text
  16              	.Ltext0:
  17              		.cfi_sections	.debug_frame
  18              		.section	.text.Monitor_Battery_Init,"ax",%progbits
  19              		.align	2
  20              		.global	Monitor_Battery_Init
  21              		.thumb
  22              		.thumb_func
  23              		.type	Monitor_Battery_Init, %function
  24              	Monitor_Battery_Init:
  25              	.LFB63:
  26              		.file 1 ".\\ADC_V.c"
   1:.\ADC_V.c     **** /* ========================================
   2:.\ADC_V.c     ****  *
   3:.\ADC_V.c     ****  * Copyright YOUR COMPANY, THE YEAR
   4:.\ADC_V.c     ****  * All Rights Reserved
   5:.\ADC_V.c     ****  * UNPUBLISHED, LICENSED SOFTWARE.
   6:.\ADC_V.c     ****  *
   7:.\ADC_V.c     ****  * CONFIDENTIAL AND PROPRIETARY INFORMATION
   8:.\ADC_V.c     ****  * WHICH IS THE PROPERTY OF your company.
   9:.\ADC_V.c     ****  *
  10:.\ADC_V.c     ****  * ========================================
  11:.\ADC_V.c     **** */
  12:.\ADC_V.c     **** #include "ADC_V.h"
  13:.\ADC_V.c     **** 
  14:.\ADC_V.c     **** 
  15:.\ADC_V.c     **** 
  16:.\ADC_V.c     **** 
  17:.\ADC_V.c     **** int16 retADCValue[SampleNum] = {0};
  18:.\ADC_V.c     **** 
  19:.\ADC_V.c     **** 
  20:.\ADC_V.c     **** void Monitor_Battery_Init()
  21:.\ADC_V.c     **** {
  27              		.loc 1 21 0
  28              		.cfi_startproc
  29              		@ args = 0, pretend = 0, frame = 0
  30              		@ frame_needed = 0, uses_anonymous_args = 0
  31 0000 08B5     		push	{r3, lr}
  32              		.cfi_def_cfa_offset 8
  33              		.cfi_offset 3, -8
  34              		.cfi_offset 14, -4
  22:.\ADC_V.c     ****     ADC_Start();
  35              		.loc 1 22 0
ARM GAS  C:\Users\pxc\AppData\Local\Temp\ccWhJLVC.s 			page 2


  36 0002 FFF7FEFF 		bl	ADC_Start
  37              	.LVL0:
  23:.\ADC_V.c     ****     ADC_StartConvert();
  38              		.loc 1 23 0
  39 0006 FFF7FEFF 		bl	ADC_StartConvert
  40              	.LVL1:
  41 000a 08BD     		pop	{r3, pc}
  42              		.cfi_endproc
  43              	.LFE63:
  44              		.size	Monitor_Battery_Init, .-Monitor_Battery_Init
  45              		.section	.text.Get_Battery_ADvalue,"ax",%progbits
  46              		.align	2
  47              		.global	Get_Battery_ADvalue
  48              		.thumb
  49              		.thumb_func
  50              		.type	Get_Battery_ADvalue, %function
  51              	Get_Battery_ADvalue:
  52              	.LFB64:
  24:.\ADC_V.c     ****     
  25:.\ADC_V.c     **** }
  26:.\ADC_V.c     **** //int16 Get_C_Battery_ADvalue(void)
  27:.\ADC_V.c     **** //{
  28:.\ADC_V.c     **** //
  29:.\ADC_V.c     **** //    uint8 i = 0;
  30:.\ADC_V.c     **** //    int16 retval = 0;
  31:.\ADC_V.c     **** //    int32 sum = 0;
  32:.\ADC_V.c     **** //    for(i = 0;i < SampleNum;i++)
  33:.\ADC_V.c     **** //    {
  34:.\ADC_V.c     **** //        retADCValue2[i] = C_Battery_GetResult16();
  35:.\ADC_V.c     **** //    
  36:.\ADC_V.c     **** //    }
  37:.\ADC_V.c     **** //
  38:.\ADC_V.c     **** //    for(i = 0;i < SampleNum;i++)
  39:.\ADC_V.c     **** //    {
  40:.\ADC_V.c     **** //        sum += retADCValue2[i];
  41:.\ADC_V.c     **** //    }
  42:.\ADC_V.c     **** //    retval = sum/SampleNum;
  43:.\ADC_V.c     **** //    return retval;
  44:.\ADC_V.c     **** //    
  45:.\ADC_V.c     **** //}
  46:.\ADC_V.c     **** uint16 Get_Battery_ADvalue(uint8 channal)
  47:.\ADC_V.c     **** {
  53              		.loc 1 47 0
  54              		.cfi_startproc
  55              		@ args = 0, pretend = 0, frame = 0
  56              		@ frame_needed = 0, uses_anonymous_args = 0
  57              	.LVL2:
  58 0000 38B5     		push	{r3, r4, r5, lr}
  59              		.cfi_def_cfa_offset 16
  60              		.cfi_offset 3, -16
  61              		.cfi_offset 4, -12
  62              		.cfi_offset 5, -8
  63              		.cfi_offset 14, -4
  64 0002 0546     		mov	r5, r0
  65              	.LVL3:
  48:.\ADC_V.c     **** 
  49:.\ADC_V.c     ****     uint8 i = 0;
ARM GAS  C:\Users\pxc\AppData\Local\Temp\ccWhJLVC.s 			page 3


  50:.\ADC_V.c     ****     int16 retval = 0;
  51:.\ADC_V.c     ****     int32 sum = 0;
  52:.\ADC_V.c     ****     for(i = 0;i < SampleNum;i++)
  66              		.loc 1 52 0
  67 0004 0024     		movs	r4, #0
  68 0006 07E0     		b	.L4
  69              	.LVL4:
  70              	.L5:
  53:.\ADC_V.c     ****     {
  54:.\ADC_V.c     ****         retADCValue[i] = ADC_GetResult16(channal);
  71              		.loc 1 54 0 discriminator 3
  72 0008 2846     		mov	r0, r5
  73 000a FFF7FEFF 		bl	ADC_GetResult16
  74              	.LVL5:
  75 000e 0D4B     		ldr	r3, .L9
  76 0010 23F81400 		strh	r0, [r3, r4, lsl #1]	@ movhi
  52:.\ADC_V.c     ****     {
  77              		.loc 1 52 0 discriminator 3
  78 0014 0134     		adds	r4, r4, #1
  79              	.LVL6:
  80 0016 E4B2     		uxtb	r4, r4
  81              	.LVL7:
  82              	.L4:
  52:.\ADC_V.c     ****     {
  83              		.loc 1 52 0 is_stmt 0 discriminator 1
  84 0018 092C     		cmp	r4, #9
  85 001a F5D9     		bls	.L5
  86 001c 0022     		movs	r2, #0
  87 001e 1346     		mov	r3, r2
  88 0020 05E0     		b	.L6
  89              	.LVL8:
  90              	.L7:
  55:.\ADC_V.c     ****     }
  56:.\ADC_V.c     **** 
  57:.\ADC_V.c     ****     for(i = 0;i < SampleNum;i++)
  58:.\ADC_V.c     ****     {
  59:.\ADC_V.c     ****         sum += retADCValue[i];
  91              		.loc 1 59 0 is_stmt 1 discriminator 3
  92 0022 0849     		ldr	r1, .L9
  93 0024 31F91310 		ldrsh	r1, [r1, r3, lsl #1]
  94 0028 0A44     		add	r2, r2, r1
  95              	.LVL9:
  57:.\ADC_V.c     ****     {
  96              		.loc 1 57 0 discriminator 3
  97 002a 0133     		adds	r3, r3, #1
  98              	.LVL10:
  99 002c DBB2     		uxtb	r3, r3
 100              	.LVL11:
 101              	.L6:
  57:.\ADC_V.c     ****     {
 102              		.loc 1 57 0 is_stmt 0 discriminator 1
 103 002e 092B     		cmp	r3, #9
 104 0030 F7D9     		bls	.L7
  60:.\ADC_V.c     ****     }
  61:.\ADC_V.c     ****     retval = sum/SampleNum;
 105              		.loc 1 61 0 is_stmt 1
 106 0032 0548     		ldr	r0, .L9+4
ARM GAS  C:\Users\pxc\AppData\Local\Temp\ccWhJLVC.s 			page 4


 107 0034 80FB0230 		smull	r3, r0, r0, r2
 108              	.LVL12:
 109 0038 D217     		asrs	r2, r2, #31
 110              	.LVL13:
 111 003a C2EBA000 		rsb	r0, r2, r0, asr #2
 112              	.LVL14:
  62:.\ADC_V.c     ****     return retval;
  63:.\ADC_V.c     ****     
  64:.\ADC_V.c     **** }
 113              		.loc 1 64 0
 114 003e 80B2     		uxth	r0, r0
 115 0040 38BD     		pop	{r3, r4, r5, pc}
 116              	.L10:
 117 0042 00BF     		.align	2
 118              	.L9:
 119 0044 00000000 		.word	.LANCHOR0
 120 0048 67666666 		.word	1717986919
 121              		.cfi_endproc
 122              	.LFE64:
 123              		.size	Get_Battery_ADvalue, .-Get_Battery_ADvalue
 124              		.section	.text.Cal_Battery_loop,"ax",%progbits
 125              		.align	2
 126              		.global	Cal_Battery_loop
 127              		.thumb
 128              		.thumb_func
 129              		.type	Cal_Battery_loop, %function
 130              	Cal_Battery_loop:
 131              	.LFB65:
  65:.\ADC_V.c     **** 
  66:.\ADC_V.c     **** void Cal_Battery_loop()
  67:.\ADC_V.c     **** {
 132              		.loc 1 67 0
 133              		.cfi_startproc
 134              		@ args = 0, pretend = 0, frame = 0
 135              		@ frame_needed = 0, uses_anonymous_args = 0
 136 0000 08B5     		push	{r3, lr}
 137              		.cfi_def_cfa_offset 8
 138              		.cfi_offset 3, -8
 139              		.cfi_offset 14, -4
  68:.\ADC_V.c     ****     CAR_X_V = Get_Battery_ADvalue(CAR_X_CHANANL);
 140              		.loc 1 68 0
 141 0002 0120     		movs	r0, #1
 142 0004 FFF7FEFF 		bl	Get_Battery_ADvalue
 143              	.LVL15:
 144 0008 124B     		ldr	r3, .L13
 145 000a 1880     		strh	r0, [r3]	@ movhi
  69:.\ADC_V.c     ****     //  D_V = Get_Battery_ADvalue(D_CHANANL);
  70:.\ADC_V.c     ****     CAR_Y_V = Get_Battery_ADvalue(CAR_Y_CHANANL);   
 146              		.loc 1 70 0
 147 000c 0220     		movs	r0, #2
 148 000e FFF7FEFF 		bl	Get_Battery_ADvalue
 149              	.LVL16:
 150 0012 114B     		ldr	r3, .L13+4
 151 0014 1880     		strh	r0, [r3]	@ movhi
  71:.\ADC_V.c     ****     PTZ_X_V = Get_Battery_ADvalue(PTZ_X_CHANANL);  
 152              		.loc 1 71 0
 153 0016 0320     		movs	r0, #3
ARM GAS  C:\Users\pxc\AppData\Local\Temp\ccWhJLVC.s 			page 5


 154 0018 FFF7FEFF 		bl	Get_Battery_ADvalue
 155              	.LVL17:
 156 001c 0F4B     		ldr	r3, .L13+8
 157 001e 1880     		strh	r0, [r3]	@ movhi
  72:.\ADC_V.c     ****     PTZ_Y_V = Get_Battery_ADvalue(PTZ_Y_CHANANL); 
 158              		.loc 1 72 0
 159 0020 0420     		movs	r0, #4
 160 0022 FFF7FEFF 		bl	Get_Battery_ADvalue
 161              	.LVL18:
 162 0026 0E4B     		ldr	r3, .L13+12
 163 0028 1880     		strh	r0, [r3]	@ movhi
  73:.\ADC_V.c     ****     LED_1_V = Get_Battery_ADvalue(LED_1_CHANANL); 
 164              		.loc 1 73 0
 165 002a 0520     		movs	r0, #5
 166 002c FFF7FEFF 		bl	Get_Battery_ADvalue
 167              	.LVL19:
 168 0030 0C4B     		ldr	r3, .L13+16
 169 0032 1880     		strh	r0, [r3]	@ movhi
  74:.\ADC_V.c     ****     LED_2_V = Get_Battery_ADvalue(LED_2_CHANANL); 
 170              		.loc 1 74 0
 171 0034 0620     		movs	r0, #6
 172 0036 FFF7FEFF 		bl	Get_Battery_ADvalue
 173              	.LVL20:
 174 003a 0B4B     		ldr	r3, .L13+20
 175 003c 1880     		strh	r0, [r3]	@ movhi
  75:.\ADC_V.c     ****     LED_3_V = Get_Battery_ADvalue(LED_3_CHANANL); 
 176              		.loc 1 75 0
 177 003e 0720     		movs	r0, #7
 178 0040 FFF7FEFF 		bl	Get_Battery_ADvalue
 179              	.LVL21:
 180 0044 094B     		ldr	r3, .L13+24
 181 0046 1880     		strh	r0, [r3]	@ movhi
  76:.\ADC_V.c     ****     CAR_SPEED_V = Get_Battery_ADvalue(CAR_SPEED_CHANANL); 
 182              		.loc 1 76 0
 183 0048 0820     		movs	r0, #8
 184 004a FFF7FEFF 		bl	Get_Battery_ADvalue
 185              	.LVL22:
 186 004e 084B     		ldr	r3, .L13+28
 187 0050 1880     		strh	r0, [r3]	@ movhi
 188 0052 08BD     		pop	{r3, pc}
 189              	.L14:
 190              		.align	2
 191              	.L13:
 192 0054 00000000 		.word	CAR_X_V
 193 0058 00000000 		.word	CAR_Y_V
 194 005c 00000000 		.word	PTZ_X_V
 195 0060 00000000 		.word	PTZ_Y_V
 196 0064 00000000 		.word	LED_1_V
 197 0068 00000000 		.word	LED_2_V
 198 006c 00000000 		.word	LED_3_V
 199 0070 00000000 		.word	CAR_SPEED_V
 200              		.cfi_endproc
 201              	.LFE65:
 202              		.size	Cal_Battery_loop, .-Cal_Battery_loop
 203              		.global	retADCValue
 204              		.comm	CAR_SPEED_V,2,2
 205              		.comm	LED_3_V,2,2
ARM GAS  C:\Users\pxc\AppData\Local\Temp\ccWhJLVC.s 			page 6


 206              		.comm	LED_2_V,2,2
 207              		.comm	LED_1_V,2,2
 208              		.comm	PTZ_Y_V,2,2
 209              		.comm	PTZ_X_V,2,2
 210              		.comm	CAR_Y_V,2,2
 211              		.comm	CAR_X_V,2,2
 212              		.comm	B_V,2,2
 213              		.bss
 214              		.align	2
 215              		.set	.LANCHOR0,. + 0
 216              		.type	retADCValue, %object
 217              		.size	retADCValue, 20
 218              	retADCValue:
 219 0000 00000000 		.space	20
 219      00000000 
 219      00000000 
 219      00000000 
 219      00000000 
 220              		.text
 221              	.Letext0:
 222              		.file 2 "c:\\program files (x86)\\cypress\\psoc creator\\3.3\\psoc creator\\import\\gnu\\arm\\4.9.
 223              		.file 3 "c:\\program files (x86)\\cypress\\psoc creator\\3.3\\psoc creator\\import\\gnu\\arm\\4.9.
 224              		.file 4 "Generated_Source\\PSoC5/cytypes.h"
 225              		.file 5 "Generated_Source\\PSoC5/core_cm3.h"
 226              		.file 6 ".\\ADC_V.h"
 227              		.file 7 "Generated_Source\\PSoC5/ADC.h"