ARM GAS  C:\Users\pxc\AppData\Local\Temp\ccqd1C0j.s 			page 1


   1              		.syntax unified
   2              		.cpu cortex-m3
   3              		.fpu softvfp
   4              		.eabi_attribute 20, 1
   5              		.eabi_attribute 21, 1
   6              		.eabi_attribute 23, 3
   7              		.eabi_attribute 24, 1
   8              		.eabi_attribute 25, 1
   9              		.eabi_attribute 26, 1
  10              		.eabi_attribute 30, 1
  11              		.eabi_attribute 34, 1
  12              		.eabi_attribute 18, 4
  13              		.thumb
  14              		.file	"cyfitter_cfg.c"
  15              		.text
  16              	.Ltext0:
  17              		.cfi_sections	.debug_frame
  18              		.section	.text.CyClockStartupError,"ax",%progbits
  19              		.align	2
  20              		.thumb
  21              		.thumb_func
  22              		.type	CyClockStartupError, %function
  23              	CyClockStartupError:
  24              	.LFB3:
  25              		.file 1 ".\\Generated_Source\\PSoC5\\cyfitter_cfg.c"
   1:.\Generated_Source\PSoC5/cyfitter_cfg.c **** /*******************************************************************************
   2:.\Generated_Source\PSoC5/cyfitter_cfg.c **** * File Name: cyfitter_cfg.c
   3:.\Generated_Source\PSoC5/cyfitter_cfg.c **** * 
   4:.\Generated_Source\PSoC5/cyfitter_cfg.c **** * PSoC Creator  3.3
   5:.\Generated_Source\PSoC5/cyfitter_cfg.c **** *
   6:.\Generated_Source\PSoC5/cyfitter_cfg.c **** * Description:
   7:.\Generated_Source\PSoC5/cyfitter_cfg.c **** * This file contains device initialization code.
   8:.\Generated_Source\PSoC5/cyfitter_cfg.c **** * Except for the user defined sections in CyClockStartupError(), this file should not be modified.
   9:.\Generated_Source\PSoC5/cyfitter_cfg.c **** * This file is automatically generated by PSoC Creator.
  10:.\Generated_Source\PSoC5/cyfitter_cfg.c **** *
  11:.\Generated_Source\PSoC5/cyfitter_cfg.c **** ********************************************************************************
  12:.\Generated_Source\PSoC5/cyfitter_cfg.c **** * Copyright (c) 2007-2015 Cypress Semiconductor.  All rights reserved.
  13:.\Generated_Source\PSoC5/cyfitter_cfg.c **** * You may use this file only in accordance with the license, terms, conditions, 
  14:.\Generated_Source\PSoC5/cyfitter_cfg.c **** * disclaimers, and limitations in the end user license agreement accompanying 
  15:.\Generated_Source\PSoC5/cyfitter_cfg.c **** * the software package with which this file was provided.
  16:.\Generated_Source\PSoC5/cyfitter_cfg.c **** ********************************************************************************/
  17:.\Generated_Source\PSoC5/cyfitter_cfg.c **** 
  18:.\Generated_Source\PSoC5/cyfitter_cfg.c **** #include <string.h>
  19:.\Generated_Source\PSoC5/cyfitter_cfg.c **** #include "cytypes.h"
  20:.\Generated_Source\PSoC5/cyfitter_cfg.c **** #include "cydevice_trm.h"
  21:.\Generated_Source\PSoC5/cyfitter_cfg.c **** #include "cyfitter.h"
  22:.\Generated_Source\PSoC5/cyfitter_cfg.c **** #include "CyLib.h"
  23:.\Generated_Source\PSoC5/cyfitter_cfg.c **** #include "cyfitter_cfg.h"
  24:.\Generated_Source\PSoC5/cyfitter_cfg.c **** 
  25:.\Generated_Source\PSoC5/cyfitter_cfg.c **** #define CY_NEED_CYCLOCKSTARTUPERROR 1
  26:.\Generated_Source\PSoC5/cyfitter_cfg.c **** 
  27:.\Generated_Source\PSoC5/cyfitter_cfg.c **** 
  28:.\Generated_Source\PSoC5/cyfitter_cfg.c **** #if defined(__GNUC__) || defined(__ARMCC_VERSION)
  29:.\Generated_Source\PSoC5/cyfitter_cfg.c ****     #define CYPACKED 
  30:.\Generated_Source\PSoC5/cyfitter_cfg.c ****     #define CYPACKED_ATTR __attribute__ ((packed))
  31:.\Generated_Source\PSoC5/cyfitter_cfg.c ****     #define CYALIGNED __attribute__ ((aligned))
  32:.\Generated_Source\PSoC5/cyfitter_cfg.c ****     #define CY_CFG_UNUSED __attribute__ ((unused))
ARM GAS  C:\Users\pxc\AppData\Local\Temp\ccqd1C0j.s 			page 2


  33:.\Generated_Source\PSoC5/cyfitter_cfg.c ****     #define CY_CFG_SECTION __attribute__ ((section(".psocinit")))
  34:.\Generated_Source\PSoC5/cyfitter_cfg.c ****     
  35:.\Generated_Source\PSoC5/cyfitter_cfg.c ****     #if defined(__ARMCC_VERSION)
  36:.\Generated_Source\PSoC5/cyfitter_cfg.c ****         #define CY_CFG_MEMORY_BARRIER() __memory_changed()
  37:.\Generated_Source\PSoC5/cyfitter_cfg.c ****     #else
  38:.\Generated_Source\PSoC5/cyfitter_cfg.c ****         #define CY_CFG_MEMORY_BARRIER() __sync_synchronize()
  39:.\Generated_Source\PSoC5/cyfitter_cfg.c ****     #endif
  40:.\Generated_Source\PSoC5/cyfitter_cfg.c ****     
  41:.\Generated_Source\PSoC5/cyfitter_cfg.c **** #elif defined(__ICCARM__)
  42:.\Generated_Source\PSoC5/cyfitter_cfg.c ****     #include <intrinsics.h>
  43:.\Generated_Source\PSoC5/cyfitter_cfg.c **** 
  44:.\Generated_Source\PSoC5/cyfitter_cfg.c ****     #define CYPACKED __packed
  45:.\Generated_Source\PSoC5/cyfitter_cfg.c ****     #define CYPACKED_ATTR 
  46:.\Generated_Source\PSoC5/cyfitter_cfg.c ****     #define CYALIGNED _Pragma("data_alignment=4")
  47:.\Generated_Source\PSoC5/cyfitter_cfg.c ****     #define CY_CFG_UNUSED _Pragma("diag_suppress=Pe177")
  48:.\Generated_Source\PSoC5/cyfitter_cfg.c ****     #define CY_CFG_SECTION _Pragma("location=\".psocinit\"")
  49:.\Generated_Source\PSoC5/cyfitter_cfg.c ****     
  50:.\Generated_Source\PSoC5/cyfitter_cfg.c ****     #define CY_CFG_MEMORY_BARRIER() __DMB()
  51:.\Generated_Source\PSoC5/cyfitter_cfg.c ****     
  52:.\Generated_Source\PSoC5/cyfitter_cfg.c **** #else
  53:.\Generated_Source\PSoC5/cyfitter_cfg.c ****     #error Unsupported toolchain
  54:.\Generated_Source\PSoC5/cyfitter_cfg.c **** #endif
  55:.\Generated_Source\PSoC5/cyfitter_cfg.c **** 
  56:.\Generated_Source\PSoC5/cyfitter_cfg.c **** 
  57:.\Generated_Source\PSoC5/cyfitter_cfg.c **** CY_CFG_UNUSED
  58:.\Generated_Source\PSoC5/cyfitter_cfg.c **** static void CYMEMZERO(void *s, size_t n);
  59:.\Generated_Source\PSoC5/cyfitter_cfg.c **** CY_CFG_UNUSED
  60:.\Generated_Source\PSoC5/cyfitter_cfg.c **** static void CYMEMZERO(void *s, size_t n)
  61:.\Generated_Source\PSoC5/cyfitter_cfg.c **** {
  62:.\Generated_Source\PSoC5/cyfitter_cfg.c **** 	(void)memset(s, 0, n);
  63:.\Generated_Source\PSoC5/cyfitter_cfg.c **** }
  64:.\Generated_Source\PSoC5/cyfitter_cfg.c **** CY_CFG_UNUSED
  65:.\Generated_Source\PSoC5/cyfitter_cfg.c **** static void CYCONFIGCPY(void *dest, const void *src, size_t n);
  66:.\Generated_Source\PSoC5/cyfitter_cfg.c **** CY_CFG_UNUSED
  67:.\Generated_Source\PSoC5/cyfitter_cfg.c **** static void CYCONFIGCPY(void *dest, const void *src, size_t n)
  68:.\Generated_Source\PSoC5/cyfitter_cfg.c **** {
  69:.\Generated_Source\PSoC5/cyfitter_cfg.c **** 	(void)memcpy(dest, src, n);
  70:.\Generated_Source\PSoC5/cyfitter_cfg.c **** }
  71:.\Generated_Source\PSoC5/cyfitter_cfg.c **** CY_CFG_UNUSED
  72:.\Generated_Source\PSoC5/cyfitter_cfg.c **** static void CYCONFIGCPYCODE(void *dest, const void *src, size_t n);
  73:.\Generated_Source\PSoC5/cyfitter_cfg.c **** CY_CFG_UNUSED
  74:.\Generated_Source\PSoC5/cyfitter_cfg.c **** static void CYCONFIGCPYCODE(void *dest, const void *src, size_t n)
  75:.\Generated_Source\PSoC5/cyfitter_cfg.c **** {
  76:.\Generated_Source\PSoC5/cyfitter_cfg.c **** 	(void)memcpy(dest, src, n);
  77:.\Generated_Source\PSoC5/cyfitter_cfg.c **** }
  78:.\Generated_Source\PSoC5/cyfitter_cfg.c **** 
  79:.\Generated_Source\PSoC5/cyfitter_cfg.c **** 
  80:.\Generated_Source\PSoC5/cyfitter_cfg.c **** 
  81:.\Generated_Source\PSoC5/cyfitter_cfg.c **** /* Clock startup error codes                                                   */
  82:.\Generated_Source\PSoC5/cyfitter_cfg.c **** #define CYCLOCKSTART_NO_ERROR    0u
  83:.\Generated_Source\PSoC5/cyfitter_cfg.c **** #define CYCLOCKSTART_XTAL_ERROR  1u
  84:.\Generated_Source\PSoC5/cyfitter_cfg.c **** #define CYCLOCKSTART_32KHZ_ERROR 2u
  85:.\Generated_Source\PSoC5/cyfitter_cfg.c **** #define CYCLOCKSTART_PLL_ERROR   3u
  86:.\Generated_Source\PSoC5/cyfitter_cfg.c **** 
  87:.\Generated_Source\PSoC5/cyfitter_cfg.c **** #ifdef CY_NEED_CYCLOCKSTARTUPERROR
  88:.\Generated_Source\PSoC5/cyfitter_cfg.c **** /*******************************************************************************
  89:.\Generated_Source\PSoC5/cyfitter_cfg.c **** * Function Name: CyClockStartupError
ARM GAS  C:\Users\pxc\AppData\Local\Temp\ccqd1C0j.s 			page 3


  90:.\Generated_Source\PSoC5/cyfitter_cfg.c **** ********************************************************************************
  91:.\Generated_Source\PSoC5/cyfitter_cfg.c **** * Summary:
  92:.\Generated_Source\PSoC5/cyfitter_cfg.c **** *  If an error is encountered during clock configuration (crystal startup error,
  93:.\Generated_Source\PSoC5/cyfitter_cfg.c **** *  PLL lock error, etc.), the system will end up here.  Unless reimplemented by
  94:.\Generated_Source\PSoC5/cyfitter_cfg.c **** *  the customer, this function will stop in an infinite loop.
  95:.\Generated_Source\PSoC5/cyfitter_cfg.c **** *
  96:.\Generated_Source\PSoC5/cyfitter_cfg.c **** * Parameters:
  97:.\Generated_Source\PSoC5/cyfitter_cfg.c **** *   void
  98:.\Generated_Source\PSoC5/cyfitter_cfg.c **** *
  99:.\Generated_Source\PSoC5/cyfitter_cfg.c **** * Return:
 100:.\Generated_Source\PSoC5/cyfitter_cfg.c **** *   void
 101:.\Generated_Source\PSoC5/cyfitter_cfg.c **** *
 102:.\Generated_Source\PSoC5/cyfitter_cfg.c **** *******************************************************************************/
 103:.\Generated_Source\PSoC5/cyfitter_cfg.c **** CY_CFG_UNUSED
 104:.\Generated_Source\PSoC5/cyfitter_cfg.c **** static void CyClockStartupError(uint8 errorCode);
 105:.\Generated_Source\PSoC5/cyfitter_cfg.c **** CY_CFG_UNUSED
 106:.\Generated_Source\PSoC5/cyfitter_cfg.c **** static void CyClockStartupError(uint8 errorCode)
 107:.\Generated_Source\PSoC5/cyfitter_cfg.c **** {
  26              		.loc 1 107 0
  27              		.cfi_startproc
  28              		@ Volatile: function does not return.
  29              		@ args = 0, pretend = 0, frame = 0
  30              		@ frame_needed = 0, uses_anonymous_args = 0
  31              		@ link register save eliminated.
  32              	.LVL0:
  33              	.L2:
 108:.\Generated_Source\PSoC5/cyfitter_cfg.c ****     /* To remove the compiler warning if errorCode not used.                */
 109:.\Generated_Source\PSoC5/cyfitter_cfg.c ****     errorCode = errorCode;
 110:.\Generated_Source\PSoC5/cyfitter_cfg.c **** 
 111:.\Generated_Source\PSoC5/cyfitter_cfg.c ****     /* `#START CyClockStartupError` */
 112:.\Generated_Source\PSoC5/cyfitter_cfg.c **** 
 113:.\Generated_Source\PSoC5/cyfitter_cfg.c ****     /* If we have a clock startup error (bad MHz crystal, PLL lock, etc.),  */
 114:.\Generated_Source\PSoC5/cyfitter_cfg.c ****     /* we will end up here to allow the customer to implement something to  */
 115:.\Generated_Source\PSoC5/cyfitter_cfg.c ****     /* deal with the clock condition.                                       */
 116:.\Generated_Source\PSoC5/cyfitter_cfg.c **** 
 117:.\Generated_Source\PSoC5/cyfitter_cfg.c ****     /* `#END` */
 118:.\Generated_Source\PSoC5/cyfitter_cfg.c **** 
 119:.\Generated_Source\PSoC5/cyfitter_cfg.c ****     /* If nothing else, stop here since the clocks have not started         */
 120:.\Generated_Source\PSoC5/cyfitter_cfg.c ****     /* correctly.                                                           */
 121:.\Generated_Source\PSoC5/cyfitter_cfg.c ****     while(1) {}
  34              		.loc 1 121 0 discriminator 1
  35 0000 FEE7     		b	.L2
  36              		.cfi_endproc
  37              	.LFE3:
  38              		.size	CyClockStartupError, .-CyClockStartupError
  39 0002 00BF     		.section	.text.cfg_write_bytes32,"ax",%progbits
  40              		.align	2
  41              		.thumb
  42              		.thumb_func
  43              		.type	cfg_write_bytes32, %function
  44              	cfg_write_bytes32:
  45              	.LFB4:
 122:.\Generated_Source\PSoC5/cyfitter_cfg.c **** }
 123:.\Generated_Source\PSoC5/cyfitter_cfg.c **** #endif
 124:.\Generated_Source\PSoC5/cyfitter_cfg.c **** 
 125:.\Generated_Source\PSoC5/cyfitter_cfg.c **** #define CY_CFG_BASE_ADDR_COUNT 39u
 126:.\Generated_Source\PSoC5/cyfitter_cfg.c **** CYPACKED typedef struct
ARM GAS  C:\Users\pxc\AppData\Local\Temp\ccqd1C0j.s 			page 4


 127:.\Generated_Source\PSoC5/cyfitter_cfg.c **** {
 128:.\Generated_Source\PSoC5/cyfitter_cfg.c **** 	uint8 offset;
 129:.\Generated_Source\PSoC5/cyfitter_cfg.c **** 	uint8 value;
 130:.\Generated_Source\PSoC5/cyfitter_cfg.c **** } CYPACKED_ATTR cy_cfg_addrvalue_t;
 131:.\Generated_Source\PSoC5/cyfitter_cfg.c **** 
 132:.\Generated_Source\PSoC5/cyfitter_cfg.c **** #define cy_cfg_addr_table ((const uint32 CYFAR *)0x48000000u)
 133:.\Generated_Source\PSoC5/cyfitter_cfg.c **** #define cy_cfg_data_table ((const cy_cfg_addrvalue_t CYFAR *)0x4800009Cu)
 134:.\Generated_Source\PSoC5/cyfitter_cfg.c **** 
 135:.\Generated_Source\PSoC5/cyfitter_cfg.c **** /* UDB_1_1_0_CONFIG Address: CYDEV_UCFG_B1_P3_U1_BASE Size (bytes): 128 */
 136:.\Generated_Source\PSoC5/cyfitter_cfg.c **** #define BS_UDB_1_1_0_CONFIG_VAL ((const uint8 CYFAR *)0x480007E0u)
 137:.\Generated_Source\PSoC5/cyfitter_cfg.c **** 
 138:.\Generated_Source\PSoC5/cyfitter_cfg.c **** /* IOPINS0_0 Address: CYREG_PRT0_DR Size (bytes): 10 */
 139:.\Generated_Source\PSoC5/cyfitter_cfg.c **** #define BS_IOPINS0_0_VAL ((const uint8 CYFAR *)0x48000860u)
 140:.\Generated_Source\PSoC5/cyfitter_cfg.c **** 
 141:.\Generated_Source\PSoC5/cyfitter_cfg.c **** /* IOPINS0_1 Address: CYREG_PRT1_DM0 Size (bytes): 8 */
 142:.\Generated_Source\PSoC5/cyfitter_cfg.c **** #define BS_IOPINS0_1_VAL ((const uint8 CYFAR *)0x4800086Cu)
 143:.\Generated_Source\PSoC5/cyfitter_cfg.c **** 
 144:.\Generated_Source\PSoC5/cyfitter_cfg.c **** /* IOPINS0_2 Address: CYREG_PRT2_DM0 Size (bytes): 8 */
 145:.\Generated_Source\PSoC5/cyfitter_cfg.c **** #define BS_IOPINS0_2_VAL ((const uint8 CYFAR *)0x48000874u)
 146:.\Generated_Source\PSoC5/cyfitter_cfg.c **** 
 147:.\Generated_Source\PSoC5/cyfitter_cfg.c **** /* IOPINS0_3 Address: CYREG_PRT3_DR Size (bytes): 10 */
 148:.\Generated_Source\PSoC5/cyfitter_cfg.c **** #define BS_IOPINS0_3_VAL ((const uint8 CYFAR *)0x4800087Cu)
 149:.\Generated_Source\PSoC5/cyfitter_cfg.c **** 
 150:.\Generated_Source\PSoC5/cyfitter_cfg.c **** /* IOPINS0_4 Address: CYREG_PRT4_DR Size (bytes): 10 */
 151:.\Generated_Source\PSoC5/cyfitter_cfg.c **** #define BS_IOPINS0_4_VAL ((const uint8 CYFAR *)0x48000888u)
 152:.\Generated_Source\PSoC5/cyfitter_cfg.c **** 
 153:.\Generated_Source\PSoC5/cyfitter_cfg.c **** /* IOPINS0_6 Address: CYREG_PRT6_DM0 Size (bytes): 8 */
 154:.\Generated_Source\PSoC5/cyfitter_cfg.c **** #define BS_IOPINS0_6_VAL ((const uint8 CYFAR *)0x48000894u)
 155:.\Generated_Source\PSoC5/cyfitter_cfg.c **** 
 156:.\Generated_Source\PSoC5/cyfitter_cfg.c **** /* PHUB_CFGMEM1 Address: CYREG_PHUB_CFGMEM1_CFG0 Size (bytes): 4 */
 157:.\Generated_Source\PSoC5/cyfitter_cfg.c **** #define BS_PHUB_CFGMEM1_VAL ((const uint8 CYFAR *)0x4800089Cu)
 158:.\Generated_Source\PSoC5/cyfitter_cfg.c **** 
 159:.\Generated_Source\PSoC5/cyfitter_cfg.c **** 
 160:.\Generated_Source\PSoC5/cyfitter_cfg.c **** /*******************************************************************************
 161:.\Generated_Source\PSoC5/cyfitter_cfg.c **** * Function Name: cfg_write_bytes32
 162:.\Generated_Source\PSoC5/cyfitter_cfg.c **** ********************************************************************************
 163:.\Generated_Source\PSoC5/cyfitter_cfg.c **** * Summary:
 164:.\Generated_Source\PSoC5/cyfitter_cfg.c **** *  This function is used for setting up the chip configuration areas that
 165:.\Generated_Source\PSoC5/cyfitter_cfg.c **** *  contain relatively sparse data.
 166:.\Generated_Source\PSoC5/cyfitter_cfg.c **** *
 167:.\Generated_Source\PSoC5/cyfitter_cfg.c **** * Parameters:
 168:.\Generated_Source\PSoC5/cyfitter_cfg.c **** *   void
 169:.\Generated_Source\PSoC5/cyfitter_cfg.c **** *
 170:.\Generated_Source\PSoC5/cyfitter_cfg.c **** * Return:
 171:.\Generated_Source\PSoC5/cyfitter_cfg.c **** *   void
 172:.\Generated_Source\PSoC5/cyfitter_cfg.c **** *
 173:.\Generated_Source\PSoC5/cyfitter_cfg.c **** *******************************************************************************/
 174:.\Generated_Source\PSoC5/cyfitter_cfg.c **** static void cfg_write_bytes32(const uint32 addr_table[], const cy_cfg_addrvalue_t data_table[]);
 175:.\Generated_Source\PSoC5/cyfitter_cfg.c **** static void cfg_write_bytes32(const uint32 addr_table[], const cy_cfg_addrvalue_t data_table[])
 176:.\Generated_Source\PSoC5/cyfitter_cfg.c **** {
  46              		.loc 1 176 0
  47              		.cfi_startproc
  48              		@ args = 0, pretend = 0, frame = 0
  49              		@ frame_needed = 0, uses_anonymous_args = 0
  50              		@ link register save eliminated.
  51              	.LVL1:
  52 0000 F0B4     		push	{r4, r5, r6, r7}
ARM GAS  C:\Users\pxc\AppData\Local\Temp\ccqd1C0j.s 			page 5


  53              		.cfi_def_cfa_offset 16
  54              		.cfi_offset 4, -16
  55              		.cfi_offset 5, -12
  56              		.cfi_offset 6, -8
  57              		.cfi_offset 7, -4
  58              	.LVL2:
 177:.\Generated_Source\PSoC5/cyfitter_cfg.c **** 	/* For 32-bit little-endian architectures */
 178:.\Generated_Source\PSoC5/cyfitter_cfg.c **** 	uint32 i, j = 0u;
  59              		.loc 1 178 0
  60 0002 0022     		movs	r2, #0
 179:.\Generated_Source\PSoC5/cyfitter_cfg.c **** 	for (i = 0u; i < CY_CFG_BASE_ADDR_COUNT; i++)
  61              		.loc 1 179 0
  62 0004 1746     		mov	r7, r2
  63 0006 11E0     		b	.L4
  64              	.LVL3:
  65              	.L7:
  66              	.LBB2:
 180:.\Generated_Source\PSoC5/cyfitter_cfg.c **** 	{
 181:.\Generated_Source\PSoC5/cyfitter_cfg.c **** 		uint32 baseAddr = addr_table[i];
  67              		.loc 1 181 0
  68 0008 50F82760 		ldr	r6, [r0, r7, lsl #2]
  69              	.LVL4:
 182:.\Generated_Source\PSoC5/cyfitter_cfg.c **** 		uint8 count = (uint8)baseAddr;
  70              		.loc 1 182 0
  71 000c F3B2     		uxtb	r3, r6
  72              	.LVL5:
 183:.\Generated_Source\PSoC5/cyfitter_cfg.c **** 		baseAddr &= 0xFFFFFF00u;
  73              		.loc 1 183 0
  74 000e 26F0FF06 		bic	r6, r6, #255
  75              	.LVL6:
 184:.\Generated_Source\PSoC5/cyfitter_cfg.c **** 		while (count != 0u)
  76              		.loc 1 184 0
  77 0012 08E0     		b	.L5
  78              	.L6:
 185:.\Generated_Source\PSoC5/cyfitter_cfg.c **** 		{
 186:.\Generated_Source\PSoC5/cyfitter_cfg.c **** 			CY_SET_XTND_REG8((void CYFAR *)(baseAddr + data_table[j].offset), data_table[j].value);
  79              		.loc 1 186 0
  80 0014 01EB4205 		add	r5, r1, r2, lsl #1
  81 0018 11F81240 		ldrb	r4, [r1, r2, lsl #1]	@ zero_extendqisi2
  82 001c 6D78     		ldrb	r5, [r5, #1]	@ zero_extendqisi2
  83 001e A555     		strb	r5, [r4, r6]
 187:.\Generated_Source\PSoC5/cyfitter_cfg.c **** 			j++;
  84              		.loc 1 187 0
  85 0020 0132     		adds	r2, r2, #1
  86              	.LVL7:
 188:.\Generated_Source\PSoC5/cyfitter_cfg.c **** 			count--;
  87              		.loc 1 188 0
  88 0022 013B     		subs	r3, r3, #1
  89              	.LVL8:
  90 0024 DBB2     		uxtb	r3, r3
  91              	.LVL9:
  92              	.L5:
 184:.\Generated_Source\PSoC5/cyfitter_cfg.c **** 		{
  93              		.loc 1 184 0
  94 0026 002B     		cmp	r3, #0
  95 0028 F4D1     		bne	.L6
  96              	.LBE2:
ARM GAS  C:\Users\pxc\AppData\Local\Temp\ccqd1C0j.s 			page 6


 179:.\Generated_Source\PSoC5/cyfitter_cfg.c **** 	{
  97              		.loc 1 179 0 discriminator 2
  98 002a 0137     		adds	r7, r7, #1
  99              	.LVL10:
 100              	.L4:
 179:.\Generated_Source\PSoC5/cyfitter_cfg.c **** 	{
 101              		.loc 1 179 0 is_stmt 0 discriminator 1
 102 002c 262F     		cmp	r7, #38
 103 002e EBD9     		bls	.L7
 189:.\Generated_Source\PSoC5/cyfitter_cfg.c **** 		}
 190:.\Generated_Source\PSoC5/cyfitter_cfg.c **** 	}
 191:.\Generated_Source\PSoC5/cyfitter_cfg.c **** }
 104              		.loc 1 191 0 is_stmt 1
 105 0030 F0BC     		pop	{r4, r5, r6, r7}
 106              		.cfi_restore 7
 107              		.cfi_restore 6
 108              		.cfi_restore 5
 109              		.cfi_restore 4
 110              		.cfi_def_cfa_offset 0
 111              	.LVL11:
 112 0032 7047     		bx	lr
 113              		.cfi_endproc
 114              	.LFE4:
 115              		.size	cfg_write_bytes32, .-cfg_write_bytes32
 116              		.section	.text.AnalogSetDefault,"ax",%progbits
 117              		.align	2
 118              		.thumb
 119              		.thumb_func
 120              		.type	AnalogSetDefault, %function
 121              	AnalogSetDefault:
 122              	.LFB6:
 192:.\Generated_Source\PSoC5/cyfitter_cfg.c **** 
 193:.\Generated_Source\PSoC5/cyfitter_cfg.c **** /*******************************************************************************
 194:.\Generated_Source\PSoC5/cyfitter_cfg.c **** * Function Name: ClockSetup
 195:.\Generated_Source\PSoC5/cyfitter_cfg.c **** ********************************************************************************
 196:.\Generated_Source\PSoC5/cyfitter_cfg.c **** *
 197:.\Generated_Source\PSoC5/cyfitter_cfg.c **** * Summary:
 198:.\Generated_Source\PSoC5/cyfitter_cfg.c **** *  Performs the initialization of all of the clocks in the device based on the
 199:.\Generated_Source\PSoC5/cyfitter_cfg.c **** *  settings in the Clock tab of the DWR.  This includes enabling the requested
 200:.\Generated_Source\PSoC5/cyfitter_cfg.c **** *  clocks and setting the necessary dividers to produce the desired frequency. 
 201:.\Generated_Source\PSoC5/cyfitter_cfg.c **** *
 202:.\Generated_Source\PSoC5/cyfitter_cfg.c **** * Parameters:
 203:.\Generated_Source\PSoC5/cyfitter_cfg.c **** *  void
 204:.\Generated_Source\PSoC5/cyfitter_cfg.c **** *
 205:.\Generated_Source\PSoC5/cyfitter_cfg.c **** * Return:
 206:.\Generated_Source\PSoC5/cyfitter_cfg.c **** *  void
 207:.\Generated_Source\PSoC5/cyfitter_cfg.c **** *
 208:.\Generated_Source\PSoC5/cyfitter_cfg.c **** *******************************************************************************/
 209:.\Generated_Source\PSoC5/cyfitter_cfg.c **** static void ClockSetup(void);
 210:.\Generated_Source\PSoC5/cyfitter_cfg.c **** static void ClockSetup(void)
 211:.\Generated_Source\PSoC5/cyfitter_cfg.c **** {
 212:.\Generated_Source\PSoC5/cyfitter_cfg.c **** 	uint32 timeout;
 213:.\Generated_Source\PSoC5/cyfitter_cfg.c **** 	uint8 pllLock;
 214:.\Generated_Source\PSoC5/cyfitter_cfg.c **** 
 215:.\Generated_Source\PSoC5/cyfitter_cfg.c **** 
 216:.\Generated_Source\PSoC5/cyfitter_cfg.c **** 	/* Configure Digital Clocks based on settings from Clock DWR */
 217:.\Generated_Source\PSoC5/cyfitter_cfg.c **** 	CY_SET_XTND_REG16((void CYFAR *)(CYREG_CLKDIST_DCFG0_CFG0), 0x000Eu);
ARM GAS  C:\Users\pxc\AppData\Local\Temp\ccqd1C0j.s 			page 7


 218:.\Generated_Source\PSoC5/cyfitter_cfg.c **** 	CY_SET_XTND_REG8((void CYFAR *)(CYREG_CLKDIST_DCFG0_CFG0 + 0x2u), 0x18u);
 219:.\Generated_Source\PSoC5/cyfitter_cfg.c **** 	CY_SET_XTND_REG16((void CYFAR *)(CYREG_CLKDIST_DCFG1_CFG0), 0x0019u);
 220:.\Generated_Source\PSoC5/cyfitter_cfg.c **** 	CY_SET_XTND_REG8((void CYFAR *)(CYREG_CLKDIST_DCFG1_CFG0 + 0x2u), 0x18u);
 221:.\Generated_Source\PSoC5/cyfitter_cfg.c **** 
 222:.\Generated_Source\PSoC5/cyfitter_cfg.c **** 	/* Configure ILO based on settings from Clock DWR */
 223:.\Generated_Source\PSoC5/cyfitter_cfg.c **** 	CY_SET_XTND_REG8((void CYFAR *)(CYREG_SLOWCLK_ILO_CR0), 0x06u);
 224:.\Generated_Source\PSoC5/cyfitter_cfg.c **** 
 225:.\Generated_Source\PSoC5/cyfitter_cfg.c **** 	/* Configure IMO based on settings from Clock DWR */
 226:.\Generated_Source\PSoC5/cyfitter_cfg.c **** 	CY_SET_XTND_REG8((void CYFAR *)(CYREG_FASTCLK_IMO_CR), 0x03u);
 227:.\Generated_Source\PSoC5/cyfitter_cfg.c **** 	CY_SET_XTND_REG8((void CYFAR *)(CYREG_IMO_TR1), (CY_GET_XTND_REG8((void CYFAR *)CYREG_FLSHID_CUST_
 228:.\Generated_Source\PSoC5/cyfitter_cfg.c **** 
 229:.\Generated_Source\PSoC5/cyfitter_cfg.c **** 	/* Configure PLL based on settings from Clock DWR */
 230:.\Generated_Source\PSoC5/cyfitter_cfg.c **** 	CY_SET_XTND_REG16((void CYFAR *)(CYREG_FASTCLK_PLL_P), 0x0008u);
 231:.\Generated_Source\PSoC5/cyfitter_cfg.c **** 	CY_SET_XTND_REG16((void CYFAR *)(CYREG_FASTCLK_PLL_CFG0), 0x1251u);
 232:.\Generated_Source\PSoC5/cyfitter_cfg.c **** 	/* Wait up to 250us for the PLL to lock */
 233:.\Generated_Source\PSoC5/cyfitter_cfg.c **** 	pllLock = 0u;
 234:.\Generated_Source\PSoC5/cyfitter_cfg.c **** 	for (timeout = 250u / 10u; (timeout > 0u) && (pllLock != 0x03u); timeout--)
 235:.\Generated_Source\PSoC5/cyfitter_cfg.c **** 	{ 
 236:.\Generated_Source\PSoC5/cyfitter_cfg.c **** 		pllLock = 0x03u & ((uint8)((uint8)pllLock << 1) | ((CY_GET_XTND_REG8((void CYFAR *)CYREG_FASTCLK_
 237:.\Generated_Source\PSoC5/cyfitter_cfg.c **** 		CyDelayCycles(10u * 48u); /* Delay 10us based on 48MHz clock */
 238:.\Generated_Source\PSoC5/cyfitter_cfg.c **** 	}
 239:.\Generated_Source\PSoC5/cyfitter_cfg.c **** 	/* If we ran out of time the PLL didn't lock so go to the error function */
 240:.\Generated_Source\PSoC5/cyfitter_cfg.c **** 	if (timeout == 0u)
 241:.\Generated_Source\PSoC5/cyfitter_cfg.c **** 	{
 242:.\Generated_Source\PSoC5/cyfitter_cfg.c **** 		CyClockStartupError(CYCLOCKSTART_PLL_ERROR);
 243:.\Generated_Source\PSoC5/cyfitter_cfg.c **** 	}
 244:.\Generated_Source\PSoC5/cyfitter_cfg.c **** 
 245:.\Generated_Source\PSoC5/cyfitter_cfg.c **** 	/* Configure Bus/Master Clock based on settings from Clock DWR */
 246:.\Generated_Source\PSoC5/cyfitter_cfg.c **** 	CY_SET_XTND_REG16((void CYFAR *)(CYREG_CLKDIST_MSTR0), 0x0100u);
 247:.\Generated_Source\PSoC5/cyfitter_cfg.c **** 	CY_SET_XTND_REG8((void CYFAR *)(CYREG_CLKDIST_MSTR0), 0x07u);
 248:.\Generated_Source\PSoC5/cyfitter_cfg.c **** 	CY_SET_XTND_REG8((void CYFAR *)(CYREG_CLKDIST_BCFG0), 0x00u);
 249:.\Generated_Source\PSoC5/cyfitter_cfg.c **** 	CY_SET_XTND_REG8((void CYFAR *)(CYREG_CLKDIST_BCFG2), 0x48u);
 250:.\Generated_Source\PSoC5/cyfitter_cfg.c **** 	CY_SET_XTND_REG8((void CYFAR *)(CYREG_CLKDIST_MSTR0), 0x00u);
 251:.\Generated_Source\PSoC5/cyfitter_cfg.c **** 	CY_SET_XTND_REG8((void CYFAR *)(CYREG_CLKDIST_LD), 0x02u);
 252:.\Generated_Source\PSoC5/cyfitter_cfg.c **** 
 253:.\Generated_Source\PSoC5/cyfitter_cfg.c **** 	CY_SET_XTND_REG8((void CYFAR *)(CYREG_PM_ACT_CFG2), ((CY_GET_XTND_REG8((void CYFAR *)CYREG_PM_ACT_
 254:.\Generated_Source\PSoC5/cyfitter_cfg.c **** }
 255:.\Generated_Source\PSoC5/cyfitter_cfg.c **** 
 256:.\Generated_Source\PSoC5/cyfitter_cfg.c **** 
 257:.\Generated_Source\PSoC5/cyfitter_cfg.c **** /* Analog API Functions */
 258:.\Generated_Source\PSoC5/cyfitter_cfg.c **** 
 259:.\Generated_Source\PSoC5/cyfitter_cfg.c **** 
 260:.\Generated_Source\PSoC5/cyfitter_cfg.c **** /*******************************************************************************
 261:.\Generated_Source\PSoC5/cyfitter_cfg.c **** * Function Name: AnalogSetDefault
 262:.\Generated_Source\PSoC5/cyfitter_cfg.c **** ********************************************************************************
 263:.\Generated_Source\PSoC5/cyfitter_cfg.c **** *
 264:.\Generated_Source\PSoC5/cyfitter_cfg.c **** * Summary:
 265:.\Generated_Source\PSoC5/cyfitter_cfg.c **** *  Sets up the analog portions of the chip to default values based on chip
 266:.\Generated_Source\PSoC5/cyfitter_cfg.c **** *  configuration options from the project.
 267:.\Generated_Source\PSoC5/cyfitter_cfg.c **** *
 268:.\Generated_Source\PSoC5/cyfitter_cfg.c **** * Parameters:
 269:.\Generated_Source\PSoC5/cyfitter_cfg.c **** *  void
 270:.\Generated_Source\PSoC5/cyfitter_cfg.c **** *
 271:.\Generated_Source\PSoC5/cyfitter_cfg.c **** * Return:
 272:.\Generated_Source\PSoC5/cyfitter_cfg.c **** *  void
 273:.\Generated_Source\PSoC5/cyfitter_cfg.c **** *
 274:.\Generated_Source\PSoC5/cyfitter_cfg.c **** *******************************************************************************/
ARM GAS  C:\Users\pxc\AppData\Local\Temp\ccqd1C0j.s 			page 8


 275:.\Generated_Source\PSoC5/cyfitter_cfg.c **** static void AnalogSetDefault(void);
 276:.\Generated_Source\PSoC5/cyfitter_cfg.c **** static void AnalogSetDefault(void)
 277:.\Generated_Source\PSoC5/cyfitter_cfg.c **** {
 123              		.loc 1 277 0
 124              		.cfi_startproc
 125              		@ args = 0, pretend = 0, frame = 0
 126              		@ frame_needed = 0, uses_anonymous_args = 0
 127              		@ link register save eliminated.
 128 0000 70B4     		push	{r4, r5, r6}
 129              		.cfi_def_cfa_offset 12
 130              		.cfi_offset 4, -12
 131              		.cfi_offset 5, -8
 132              		.cfi_offset 6, -4
 278:.\Generated_Source\PSoC5/cyfitter_cfg.c **** 	uint8 bg_xover_inl_trim = CY_GET_XTND_REG8((void CYFAR *)(CYREG_FLSHID_MFG_CFG_BG_XOVER_INL_TRIM +
 133              		.loc 1 278 0
 134 0002 1B4B     		ldr	r3, .L11
 135 0004 1B78     		ldrb	r3, [r3]	@ zero_extendqisi2
 136 0006 DBB2     		uxtb	r3, r3
 137              	.LVL12:
 279:.\Generated_Source\PSoC5/cyfitter_cfg.c **** 	uint8 cr4 = CY_GET_XTND_REG8((void CYFAR *)(CYREG_RESET_CR4));
 138              		.loc 1 279 0
 139 0008 1A48     		ldr	r0, .L11+4
 140 000a 0278     		ldrb	r2, [r0]	@ zero_extendqisi2
 141 000c D2B2     		uxtb	r2, r2
 142              	.LVL13:
 280:.\Generated_Source\PSoC5/cyfitter_cfg.c **** 	uint8 cr5 = CY_GET_XTND_REG8((void CYFAR *)(CYREG_RESET_CR5));
 143              		.loc 1 280 0
 144 000e 1A4C     		ldr	r4, .L11+8
 145 0010 2178     		ldrb	r1, [r4]	@ zero_extendqisi2
 146 0012 C9B2     		uxtb	r1, r1
 147              	.LVL14:
 281:.\Generated_Source\PSoC5/cyfitter_cfg.c **** 	CY_SET_XTND_REG8((void CYFAR *)(CYREG_BG_DFT0), (bg_xover_inl_trim & 0x07u));
 148              		.loc 1 281 0
 149 0014 03F00706 		and	r6, r3, #7
 150 0018 184D     		ldr	r5, .L11+12
 151 001a 2E70     		strb	r6, [r5]
 282:.\Generated_Source\PSoC5/cyfitter_cfg.c **** 	CY_SET_XTND_REG8((void CYFAR *)(CYREG_BG_DFT1), ((bg_xover_inl_trim >> 4) & 0x0Fu));
 152              		.loc 1 282 0
 153 001c 1B09     		lsrs	r3, r3, #4
 154              	.LVL15:
 155 001e 0135     		adds	r5, r5, #1
 156 0020 2B70     		strb	r3, [r5]
 283:.\Generated_Source\PSoC5/cyfitter_cfg.c **** 	/* Disable PRES while setting up SAR voltage reference */
 284:.\Generated_Source\PSoC5/cyfitter_cfg.c **** 	CY_SET_XTND_REG8((void CYFAR *)(CYREG_RESET_CR4), (cr4 | 0x03u));
 157              		.loc 1 284 0
 158 0022 42F00303 		orr	r3, r2, #3
 159 0026 0370     		strb	r3, [r0]
 285:.\Generated_Source\PSoC5/cyfitter_cfg.c **** 	CY_SET_XTND_REG8((void CYFAR *)(CYREG_RESET_CR5), (cr5 | 0x03u));
 160              		.loc 1 285 0
 161 0028 41F00303 		orr	r3, r1, #3
 162 002c 2370     		strb	r3, [r4]
 286:.\Generated_Source\PSoC5/cyfitter_cfg.c **** 	CY_SET_XTND_REG8((void CYFAR *)CYREG_PRT0_AG, 0x37u);
 163              		.loc 1 286 0
 164 002e 3725     		movs	r5, #55
 165 0030 134B     		ldr	r3, .L11+16
 166 0032 1D70     		strb	r5, [r3]
 287:.\Generated_Source\PSoC5/cyfitter_cfg.c **** 	CY_SET_XTND_REG8((void CYFAR *)CYREG_PRT1_AG, 0x20u);
ARM GAS  C:\Users\pxc\AppData\Local\Temp\ccqd1C0j.s 			page 9


 167              		.loc 1 287 0
 168 0034 2023     		movs	r3, #32
 169 0036 134D     		ldr	r5, .L11+20
 170 0038 2B70     		strb	r3, [r5]
 288:.\Generated_Source\PSoC5/cyfitter_cfg.c **** 	CY_SET_XTND_REG8((void CYFAR *)CYREG_PRT4_AG, 0x03u);
 171              		.loc 1 288 0
 172 003a 0326     		movs	r6, #3
 173 003c 3035     		adds	r5, r5, #48
 174 003e 2E70     		strb	r6, [r5]
 289:.\Generated_Source\PSoC5/cyfitter_cfg.c **** 	CY_SET_XTND_REG8((void CYFAR *)CYREG_PRT6_AG, 0x20u);
 175              		.loc 1 289 0
 176 0040 2035     		adds	r5, r5, #32
 177 0042 2B70     		strb	r3, [r5]
 290:.\Generated_Source\PSoC5/cyfitter_cfg.c **** 	CY_SET_XTND_REG8((void CYFAR *)CYREG_SAR0_CSR1, 0x40u);
 178              		.loc 1 290 0
 179 0044 4025     		movs	r5, #64
 180 0046 104E     		ldr	r6, .L11+24
 181 0048 3570     		strb	r5, [r6]
 291:.\Generated_Source\PSoC5/cyfitter_cfg.c **** 	CY_SET_XTND_REG8((void CYFAR *)CYREG_SAR0_CSR3, 0x40u);
 182              		.loc 1 291 0
 183 004a 0236     		adds	r6, r6, #2
 184 004c 3570     		strb	r5, [r6]
 292:.\Generated_Source\PSoC5/cyfitter_cfg.c **** 	CY_SET_XTND_REG8((void CYFAR *)CYREG_SAR0_SW0, 0x72u);
 185              		.loc 1 292 0
 186 004e 7226     		movs	r6, #114
 187 0050 0E4D     		ldr	r5, .L11+28
 188 0052 2E70     		strb	r6, [r5]
 293:.\Generated_Source\PSoC5/cyfitter_cfg.c **** 	CY_SET_XTND_REG8((void CYFAR *)CYREG_SAR0_SW3, 0x20u);
 189              		.loc 1 293 0
 190 0054 0335     		adds	r5, r5, #3
 191 0056 2B70     		strb	r3, [r5]
 294:.\Generated_Source\PSoC5/cyfitter_cfg.c **** 	CY_SET_XTND_REG8((void CYFAR *)CYREG_BUS_SW0, 0x02u);
 192              		.loc 1 294 0
 193 0058 0225     		movs	r5, #2
 194 005a 0D4B     		ldr	r3, .L11+32
 195 005c 1D70     		strb	r5, [r3]
 295:.\Generated_Source\PSoC5/cyfitter_cfg.c **** 	CY_SET_XTND_REG8((void CYFAR *)(CYREG_RESET_CR5), (cr5));
 196              		.loc 1 295 0
 197 005e 2170     		strb	r1, [r4]
 296:.\Generated_Source\PSoC5/cyfitter_cfg.c **** 	CY_SET_XTND_REG8((void CYFAR *)(CYREG_RESET_CR4), (cr4));
 198              		.loc 1 296 0
 199 0060 0270     		strb	r2, [r0]
 297:.\Generated_Source\PSoC5/cyfitter_cfg.c **** 	CY_SET_XTND_REG8((void CYFAR *)CYREG_PUMP_CR0, 0x44u);
 200              		.loc 1 297 0
 201 0062 4422     		movs	r2, #68
 202              	.LVL16:
 203 0064 A3F2E223 		subw	r3, r3, #738
 204 0068 1A70     		strb	r2, [r3]
 205              	.LVL17:
 298:.\Generated_Source\PSoC5/cyfitter_cfg.c **** }
 206              		.loc 1 298 0
 207 006a 70BC     		pop	{r4, r5, r6}
 208              		.cfi_restore 6
 209              		.cfi_restore 5
 210              		.cfi_restore 4
 211              		.cfi_def_cfa_offset 0
 212 006c 7047     		bx	lr
ARM GAS  C:\Users\pxc\AppData\Local\Temp\ccqd1C0j.s 			page 10


 213              	.L12:
 214 006e 00BF     		.align	2
 215              	.L11:
 216 0070 CF010049 		.word	1224737231
 217 0074 F8460040 		.word	1073759992
 218 0078 F9460040 		.word	1073759993
 219 007c 6E580040 		.word	1073764462
 220 0080 0D510040 		.word	1073762573
 221 0084 1D510040 		.word	1073762589
 222 0088 01590040 		.word	1073764609
 223 008c 205B0040 		.word	1073765152
 224 0090 585B0040 		.word	1073765208
 225              		.cfi_endproc
 226              	.LFE6:
 227              		.size	AnalogSetDefault, .-AnalogSetDefault
 228              		.section	.text.CYMEMZERO,"ax",%progbits
 229              		.align	2
 230              		.thumb
 231              		.thumb_func
 232              		.type	CYMEMZERO, %function
 233              	CYMEMZERO:
 234              	.LFB0:
  61:.\Generated_Source\PSoC5/cyfitter_cfg.c **** 	(void)memset(s, 0, n);
 235              		.loc 1 61 0
 236              		.cfi_startproc
 237              		@ args = 0, pretend = 0, frame = 0
 238              		@ frame_needed = 0, uses_anonymous_args = 0
 239              	.LVL18:
 240 0000 08B5     		push	{r3, lr}
 241              		.cfi_def_cfa_offset 8
 242              		.cfi_offset 3, -8
 243              		.cfi_offset 14, -4
 244 0002 0A46     		mov	r2, r1
  62:.\Generated_Source\PSoC5/cyfitter_cfg.c **** }
 245              		.loc 1 62 0
 246 0004 0021     		movs	r1, #0
 247              	.LVL19:
 248 0006 FFF7FEFF 		bl	memset
 249              	.LVL20:
 250 000a 08BD     		pop	{r3, pc}
 251              		.cfi_endproc
 252              	.LFE0:
 253              		.size	CYMEMZERO, .-CYMEMZERO
 254              		.section	.text.ClockSetup,"ax",%progbits
 255              		.align	2
 256              		.thumb
 257              		.thumb_func
 258              		.type	ClockSetup, %function
 259              	ClockSetup:
 260              	.LFB5:
 211:.\Generated_Source\PSoC5/cyfitter_cfg.c **** 	uint32 timeout;
 261              		.loc 1 211 0
 262              		.cfi_startproc
 263              		@ args = 0, pretend = 0, frame = 0
 264              		@ frame_needed = 0, uses_anonymous_args = 0
 265 0000 38B5     		push	{r3, r4, r5, lr}
 266              		.cfi_def_cfa_offset 16
ARM GAS  C:\Users\pxc\AppData\Local\Temp\ccqd1C0j.s 			page 11


 267              		.cfi_offset 3, -16
 268              		.cfi_offset 4, -12
 269              		.cfi_offset 5, -8
 270              		.cfi_offset 14, -4
 217:.\Generated_Source\PSoC5/cyfitter_cfg.c **** 	CY_SET_XTND_REG8((void CYFAR *)(CYREG_CLKDIST_DCFG0_CFG0 + 0x2u), 0x18u);
 271              		.loc 1 217 0
 272 0002 0E22     		movs	r2, #14
 273 0004 244B     		ldr	r3, .L21
 274 0006 1A80     		strh	r2, [r3]	@ movhi
 218:.\Generated_Source\PSoC5/cyfitter_cfg.c **** 	CY_SET_XTND_REG16((void CYFAR *)(CYREG_CLKDIST_DCFG1_CFG0), 0x0019u);
 275              		.loc 1 218 0
 276 0008 1823     		movs	r3, #24
 277 000a 244A     		ldr	r2, .L21+4
 278 000c 1370     		strb	r3, [r2]
 219:.\Generated_Source\PSoC5/cyfitter_cfg.c **** 	CY_SET_XTND_REG8((void CYFAR *)(CYREG_CLKDIST_DCFG1_CFG0 + 0x2u), 0x18u);
 279              		.loc 1 219 0
 280 000e 1925     		movs	r5, #25
 281 0010 0232     		adds	r2, r2, #2
 282 0012 1580     		strh	r5, [r2]	@ movhi
 220:.\Generated_Source\PSoC5/cyfitter_cfg.c **** 
 283              		.loc 1 220 0
 284 0014 0232     		adds	r2, r2, #2
 285 0016 1370     		strb	r3, [r2]
 223:.\Generated_Source\PSoC5/cyfitter_cfg.c **** 
 286              		.loc 1 223 0
 287 0018 0622     		movs	r2, #6
 288 001a 214B     		ldr	r3, .L21+8
 289 001c 1A70     		strb	r2, [r3]
 226:.\Generated_Source\PSoC5/cyfitter_cfg.c **** 	CY_SET_XTND_REG8((void CYFAR *)(CYREG_IMO_TR1), (CY_GET_XTND_REG8((void CYFAR *)CYREG_FLSHID_CUST_
 290              		.loc 1 226 0
 291 001e 0322     		movs	r2, #3
 292 0020 A3F58073 		sub	r3, r3, #256
 293 0024 1A70     		strb	r2, [r3]
 227:.\Generated_Source\PSoC5/cyfitter_cfg.c **** 
 294              		.loc 1 227 0
 295 0026 1F4B     		ldr	r3, .L21+12
 296 0028 1B78     		ldrb	r3, [r3]	@ zero_extendqisi2
 297 002a DBB2     		uxtb	r3, r3
 298 002c 1E4A     		ldr	r2, .L21+16
 299 002e 1370     		strb	r3, [r2]
 230:.\Generated_Source\PSoC5/cyfitter_cfg.c **** 	CY_SET_XTND_REG16((void CYFAR *)(CYREG_FASTCLK_PLL_CFG0), 0x1251u);
 300              		.loc 1 230 0
 301 0030 0822     		movs	r2, #8
 302 0032 1E4B     		ldr	r3, .L21+20
 303 0034 1A80     		strh	r2, [r3]	@ movhi
 231:.\Generated_Source\PSoC5/cyfitter_cfg.c **** 	/* Wait up to 250us for the PLL to lock */
 304              		.loc 1 231 0
 305 0036 41F25122 		movw	r2, #4689
 306 003a 023B     		subs	r3, r3, #2
 307 003c 1A80     		strh	r2, [r3]	@ movhi
 308              	.LVL21:
 233:.\Generated_Source\PSoC5/cyfitter_cfg.c **** 	for (timeout = 250u / 10u; (timeout > 0u) && (pllLock != 0x03u); timeout--)
 309              		.loc 1 233 0
 310 003e 0024     		movs	r4, #0
 234:.\Generated_Source\PSoC5/cyfitter_cfg.c **** 	{ 
 311              		.loc 1 234 0
 312 0040 0CE0     		b	.L16
ARM GAS  C:\Users\pxc\AppData\Local\Temp\ccqd1C0j.s 			page 12


 313              	.LVL22:
 314              	.L18:
 236:.\Generated_Source\PSoC5/cyfitter_cfg.c **** 		CyDelayCycles(10u * 48u); /* Delay 10us based on 48MHz clock */
 315              		.loc 1 236 0 discriminator 4
 316 0042 1B4B     		ldr	r3, .L21+24
 317 0044 1B78     		ldrb	r3, [r3]	@ zero_extendqisi2
 318 0046 03F00103 		and	r3, r3, #1
 319 004a 43EA4404 		orr	r4, r3, r4, lsl #1
 320              	.LVL23:
 321 004e 04F00304 		and	r4, r4, #3
 322              	.LVL24:
 237:.\Generated_Source\PSoC5/cyfitter_cfg.c **** 	}
 323              		.loc 1 237 0 discriminator 4
 324 0052 4FF4F070 		mov	r0, #480
 325 0056 FFF7FEFF 		bl	CyDelayCycles
 326              	.LVL25:
 234:.\Generated_Source\PSoC5/cyfitter_cfg.c **** 	{ 
 327              		.loc 1 234 0 discriminator 4
 328 005a 013D     		subs	r5, r5, #1
 329              	.LVL26:
 330              	.L16:
 234:.\Generated_Source\PSoC5/cyfitter_cfg.c **** 	{ 
 331              		.loc 1 234 0 is_stmt 0 discriminator 1
 332 005c 0DB1     		cbz	r5, .L17
 234:.\Generated_Source\PSoC5/cyfitter_cfg.c **** 	{ 
 333              		.loc 1 234 0 discriminator 3
 334 005e 032C     		cmp	r4, #3
 335 0060 EFD1     		bne	.L18
 336              	.L17:
 240:.\Generated_Source\PSoC5/cyfitter_cfg.c **** 	{
 337              		.loc 1 240 0 is_stmt 1
 338 0062 15B9     		cbnz	r5, .L19
 242:.\Generated_Source\PSoC5/cyfitter_cfg.c **** 	}
 339              		.loc 1 242 0
 340 0064 0320     		movs	r0, #3
 341 0066 FFF7FEFF 		bl	CyClockStartupError
 342              	.LVL27:
 343              	.L19:
 246:.\Generated_Source\PSoC5/cyfitter_cfg.c **** 	CY_SET_XTND_REG8((void CYFAR *)(CYREG_CLKDIST_MSTR0), 0x07u);
 344              		.loc 1 246 0
 345 006a 124B     		ldr	r3, .L21+28
 346 006c 4FF48072 		mov	r2, #256
 347 0070 1A80     		strh	r2, [r3]	@ movhi
 247:.\Generated_Source\PSoC5/cyfitter_cfg.c **** 	CY_SET_XTND_REG8((void CYFAR *)(CYREG_CLKDIST_BCFG0), 0x00u);
 348              		.loc 1 247 0
 349 0072 0722     		movs	r2, #7
 350 0074 1A70     		strb	r2, [r3]
 248:.\Generated_Source\PSoC5/cyfitter_cfg.c **** 	CY_SET_XTND_REG8((void CYFAR *)(CYREG_CLKDIST_BCFG2), 0x48u);
 351              		.loc 1 248 0
 352 0076 0022     		movs	r2, #0
 353 0078 0F49     		ldr	r1, .L21+32
 354 007a 0A70     		strb	r2, [r1]
 249:.\Generated_Source\PSoC5/cyfitter_cfg.c **** 	CY_SET_XTND_REG8((void CYFAR *)(CYREG_CLKDIST_MSTR0), 0x00u);
 355              		.loc 1 249 0
 356 007c 4820     		movs	r0, #72
 357 007e 0231     		adds	r1, r1, #2
 358 0080 0870     		strb	r0, [r1]
ARM GAS  C:\Users\pxc\AppData\Local\Temp\ccqd1C0j.s 			page 13


 250:.\Generated_Source\PSoC5/cyfitter_cfg.c **** 	CY_SET_XTND_REG8((void CYFAR *)(CYREG_CLKDIST_LD), 0x02u);
 359              		.loc 1 250 0
 360 0082 1A70     		strb	r2, [r3]
 251:.\Generated_Source\PSoC5/cyfitter_cfg.c **** 
 361              		.loc 1 251 0
 362 0084 0222     		movs	r2, #2
 363 0086 033B     		subs	r3, r3, #3
 364 0088 1A70     		strb	r2, [r3]
 253:.\Generated_Source\PSoC5/cyfitter_cfg.c **** }
 365              		.loc 1 253 0
 366 008a 0C4A     		ldr	r2, .L21+36
 367 008c 1378     		ldrb	r3, [r2]	@ zero_extendqisi2
 368 008e 43F00303 		orr	r3, r3, #3
 369 0092 1370     		strb	r3, [r2]
 370 0094 38BD     		pop	{r3, r4, r5, pc}
 371              	.LVL28:
 372              	.L22:
 373 0096 00BF     		.align	2
 374              	.L21:
 375 0098 80400040 		.word	1073758336
 376 009c 82400040 		.word	1073758338
 377 00a0 00430040 		.word	1073758976
 378 00a4 08010049 		.word	1224737032
 379 00a8 A1460040 		.word	1073759905
 380 00ac 22420040 		.word	1073758754
 381 00b0 25420040 		.word	1073758757
 382 00b4 04400040 		.word	1073758212
 383 00b8 06400040 		.word	1073758214
 384 00bc A2430040 		.word	1073759138
 385              		.cfi_endproc
 386              	.LFE5:
 387              		.size	ClockSetup, .-ClockSetup
 388              		.section	.text.CYCONFIGCPY,"ax",%progbits
 389              		.align	2
 390              		.thumb
 391              		.thumb_func
 392              		.type	CYCONFIGCPY, %function
 393              	CYCONFIGCPY:
 394              	.LFB1:
  68:.\Generated_Source\PSoC5/cyfitter_cfg.c **** 	(void)memcpy(dest, src, n);
 395              		.loc 1 68 0
 396              		.cfi_startproc
 397              		@ args = 0, pretend = 0, frame = 0
 398              		@ frame_needed = 0, uses_anonymous_args = 0
 399              	.LVL29:
 400 0000 08B5     		push	{r3, lr}
 401              		.cfi_def_cfa_offset 8
 402              		.cfi_offset 3, -8
 403              		.cfi_offset 14, -4
  69:.\Generated_Source\PSoC5/cyfitter_cfg.c **** }
 404              		.loc 1 69 0
 405 0002 FFF7FEFF 		bl	memcpy
 406              	.LVL30:
 407 0006 08BD     		pop	{r3, pc}
 408              		.cfi_endproc
 409              	.LFE1:
 410              		.size	CYCONFIGCPY, .-CYCONFIGCPY
ARM GAS  C:\Users\pxc\AppData\Local\Temp\ccqd1C0j.s 			page 14


 411              		.section	.text.SetAnalogRoutingPumps,"ax",%progbits
 412              		.align	2
 413              		.global	SetAnalogRoutingPumps
 414              		.thumb
 415              		.thumb_func
 416              		.type	SetAnalogRoutingPumps, %function
 417              	SetAnalogRoutingPumps:
 418              	.LFB7:
 299:.\Generated_Source\PSoC5/cyfitter_cfg.c **** 
 300:.\Generated_Source\PSoC5/cyfitter_cfg.c **** 
 301:.\Generated_Source\PSoC5/cyfitter_cfg.c **** /*******************************************************************************
 302:.\Generated_Source\PSoC5/cyfitter_cfg.c **** * Function Name: SetAnalogRoutingPumps
 303:.\Generated_Source\PSoC5/cyfitter_cfg.c **** ********************************************************************************
 304:.\Generated_Source\PSoC5/cyfitter_cfg.c **** *
 305:.\Generated_Source\PSoC5/cyfitter_cfg.c **** * Summary:
 306:.\Generated_Source\PSoC5/cyfitter_cfg.c **** * Enables or disables the analog pumps feeding analog routing switches.
 307:.\Generated_Source\PSoC5/cyfitter_cfg.c **** * Intended to be called at startup, based on the Vdda system configuration;
 308:.\Generated_Source\PSoC5/cyfitter_cfg.c **** * may be called during operation when the user informs us that the Vdda voltage
 309:.\Generated_Source\PSoC5/cyfitter_cfg.c **** * crossed the pump threshold.
 310:.\Generated_Source\PSoC5/cyfitter_cfg.c **** *
 311:.\Generated_Source\PSoC5/cyfitter_cfg.c **** * Parameters:
 312:.\Generated_Source\PSoC5/cyfitter_cfg.c **** *  enabled - 1 to enable the pumps, 0 to disable the pumps
 313:.\Generated_Source\PSoC5/cyfitter_cfg.c **** *
 314:.\Generated_Source\PSoC5/cyfitter_cfg.c **** * Return:
 315:.\Generated_Source\PSoC5/cyfitter_cfg.c **** *  void
 316:.\Generated_Source\PSoC5/cyfitter_cfg.c **** *
 317:.\Generated_Source\PSoC5/cyfitter_cfg.c **** *******************************************************************************/
 318:.\Generated_Source\PSoC5/cyfitter_cfg.c **** void SetAnalogRoutingPumps(uint8 enabled)
 319:.\Generated_Source\PSoC5/cyfitter_cfg.c **** {
 419              		.loc 1 319 0
 420              		.cfi_startproc
 421              		@ args = 0, pretend = 0, frame = 0
 422              		@ frame_needed = 0, uses_anonymous_args = 0
 423              		@ link register save eliminated.
 424              	.LVL31:
 320:.\Generated_Source\PSoC5/cyfitter_cfg.c **** 	uint8 regValue = CY_GET_XTND_REG8((void CYFAR *)CYREG_PUMP_CR0);
 425              		.loc 1 320 0
 426 0000 054B     		ldr	r3, .L28
 427 0002 1B78     		ldrb	r3, [r3]	@ zero_extendqisi2
 428 0004 DBB2     		uxtb	r3, r3
 429              	.LVL32:
 321:.\Generated_Source\PSoC5/cyfitter_cfg.c **** 	if (enabled != 0u)
 430              		.loc 1 321 0
 431 0006 10B1     		cbz	r0, .L26
 322:.\Generated_Source\PSoC5/cyfitter_cfg.c **** 	{
 323:.\Generated_Source\PSoC5/cyfitter_cfg.c **** 		regValue |= 0x22u;
 432              		.loc 1 323 0
 433 0008 43F02203 		orr	r3, r3, #34
 434              	.LVL33:
 435 000c 01E0     		b	.L27
 436              	.L26:
 324:.\Generated_Source\PSoC5/cyfitter_cfg.c **** 	}
 325:.\Generated_Source\PSoC5/cyfitter_cfg.c **** 	else
 326:.\Generated_Source\PSoC5/cyfitter_cfg.c **** 	{
 327:.\Generated_Source\PSoC5/cyfitter_cfg.c **** 		regValue &= (uint8)~0x22u;
 437              		.loc 1 327 0
 438 000e 03F0DD03 		and	r3, r3, #221
ARM GAS  C:\Users\pxc\AppData\Local\Temp\ccqd1C0j.s 			page 15


 439              	.LVL34:
 440              	.L27:
 328:.\Generated_Source\PSoC5/cyfitter_cfg.c **** 	}
 329:.\Generated_Source\PSoC5/cyfitter_cfg.c **** 	CY_SET_XTND_REG8((void CYFAR *)CYREG_PUMP_CR0, regValue);
 441              		.loc 1 329 0
 442 0012 014A     		ldr	r2, .L28
 443 0014 1370     		strb	r3, [r2]
 444 0016 7047     		bx	lr
 445              	.L29:
 446              		.align	2
 447              	.L28:
 448 0018 76580040 		.word	1073764470
 449              		.cfi_endproc
 450              	.LFE7:
 451              		.size	SetAnalogRoutingPumps, .-SetAnalogRoutingPumps
 452              		.section	.text.cyfitter_cfg,"ax",%progbits
 453              		.align	2
 454              		.global	cyfitter_cfg
 455              		.thumb
 456              		.thumb_func
 457              		.type	cyfitter_cfg, %function
 458              	cyfitter_cfg:
 459              	.LFB8:
 330:.\Generated_Source\PSoC5/cyfitter_cfg.c **** }
 331:.\Generated_Source\PSoC5/cyfitter_cfg.c **** 
 332:.\Generated_Source\PSoC5/cyfitter_cfg.c **** #define CY_AMUX_UNUSED CYREG_BOOST_SR
 333:.\Generated_Source\PSoC5/cyfitter_cfg.c **** 
 334:.\Generated_Source\PSoC5/cyfitter_cfg.c **** 
 335:.\Generated_Source\PSoC5/cyfitter_cfg.c **** /*******************************************************************************
 336:.\Generated_Source\PSoC5/cyfitter_cfg.c **** * Function Name: cyfitter_cfg
 337:.\Generated_Source\PSoC5/cyfitter_cfg.c **** ********************************************************************************
 338:.\Generated_Source\PSoC5/cyfitter_cfg.c **** * Summary:
 339:.\Generated_Source\PSoC5/cyfitter_cfg.c **** *  This function is called by the start-up code for the selected device. It
 340:.\Generated_Source\PSoC5/cyfitter_cfg.c **** *  performs all of the necessary device configuration based on the design
 341:.\Generated_Source\PSoC5/cyfitter_cfg.c **** *  settings.  This includes settings from the Design Wide Resources (DWR) such
 342:.\Generated_Source\PSoC5/cyfitter_cfg.c **** *  as Clocks and Pins as well as any component configuration that is necessary.
 343:.\Generated_Source\PSoC5/cyfitter_cfg.c **** *
 344:.\Generated_Source\PSoC5/cyfitter_cfg.c **** * Parameters:  
 345:.\Generated_Source\PSoC5/cyfitter_cfg.c **** *   void
 346:.\Generated_Source\PSoC5/cyfitter_cfg.c **** *
 347:.\Generated_Source\PSoC5/cyfitter_cfg.c **** * Return:
 348:.\Generated_Source\PSoC5/cyfitter_cfg.c **** *   void
 349:.\Generated_Source\PSoC5/cyfitter_cfg.c **** *
 350:.\Generated_Source\PSoC5/cyfitter_cfg.c **** *******************************************************************************/
 351:.\Generated_Source\PSoC5/cyfitter_cfg.c **** 
 352:.\Generated_Source\PSoC5/cyfitter_cfg.c **** void cyfitter_cfg(void)
 353:.\Generated_Source\PSoC5/cyfitter_cfg.c **** {
 460              		.loc 1 353 0
 461              		.cfi_startproc
 462              		@ args = 0, pretend = 0, frame = 0
 463              		@ frame_needed = 0, uses_anonymous_args = 0
 464 0000 70B5     		push	{r4, r5, r6, lr}
 465              		.cfi_def_cfa_offset 16
 466              		.cfi_offset 4, -16
 467              		.cfi_offset 5, -12
 468              		.cfi_offset 6, -8
 469              		.cfi_offset 14, -4
ARM GAS  C:\Users\pxc\AppData\Local\Temp\ccqd1C0j.s 			page 16


 354:.\Generated_Source\PSoC5/cyfitter_cfg.c **** #ifdef CYGlobalIntDisable
 355:.\Generated_Source\PSoC5/cyfitter_cfg.c **** 	/* Disable interrupts by default. Let user enable if/when they want. */
 356:.\Generated_Source\PSoC5/cyfitter_cfg.c **** 	CYGlobalIntDisable
 470              		.loc 1 356 0
 471              	@ 356 ".\Generated_Source\PSoC5\cyfitter_cfg.c" 1
 472 0002 72B6     		CPSID   i
 473              	@ 0 "" 2
 357:.\Generated_Source\PSoC5/cyfitter_cfg.c **** #endif
 358:.\Generated_Source\PSoC5/cyfitter_cfg.c **** 
 359:.\Generated_Source\PSoC5/cyfitter_cfg.c **** 	/* Enable/Disable Debug functionality based on settings from System DWR */
 360:.\Generated_Source\PSoC5/cyfitter_cfg.c **** 	CY_SET_XTND_REG8((void CYFAR *)CYREG_MLOGIC_DEBUG, (CY_GET_XTND_REG8((void CYFAR *)CYREG_MLOGIC_DE
 474              		.loc 1 360 0
 475              		.thumb
 476 0004 3E4A     		ldr	r2, .L36
 477 0006 1378     		ldrb	r3, [r2]	@ zero_extendqisi2
 478 0008 43F00403 		orr	r3, r3, #4
 479 000c 1370     		strb	r3, [r2]
 480              	.LVL35:
 481              	.LBB3:
 361:.\Generated_Source\PSoC5/cyfitter_cfg.c **** 
 362:.\Generated_Source\PSoC5/cyfitter_cfg.c **** 	{
 363:.\Generated_Source\PSoC5/cyfitter_cfg.c **** 
 364:.\Generated_Source\PSoC5/cyfitter_cfg.c **** 		CYPACKED typedef struct {
 365:.\Generated_Source\PSoC5/cyfitter_cfg.c **** 			void CYFAR *address;
 366:.\Generated_Source\PSoC5/cyfitter_cfg.c **** 			uint16 size;
 367:.\Generated_Source\PSoC5/cyfitter_cfg.c **** 		} CYPACKED_ATTR cfg_memset_t;
 368:.\Generated_Source\PSoC5/cyfitter_cfg.c **** 
 369:.\Generated_Source\PSoC5/cyfitter_cfg.c **** 
 370:.\Generated_Source\PSoC5/cyfitter_cfg.c **** 		CYPACKED typedef struct {
 371:.\Generated_Source\PSoC5/cyfitter_cfg.c **** 			void CYFAR *dest;
 372:.\Generated_Source\PSoC5/cyfitter_cfg.c **** 			const void CYFAR *src;
 373:.\Generated_Source\PSoC5/cyfitter_cfg.c **** 			uint16 size;
 374:.\Generated_Source\PSoC5/cyfitter_cfg.c **** 		} CYPACKED_ATTR cfg_memcpy_t;
 375:.\Generated_Source\PSoC5/cyfitter_cfg.c **** 
 376:.\Generated_Source\PSoC5/cyfitter_cfg.c **** 		static const cfg_memset_t CYCODE cfg_memset_list [] = {
 377:.\Generated_Source\PSoC5/cyfitter_cfg.c **** 			/* address, size */
 378:.\Generated_Source\PSoC5/cyfitter_cfg.c **** 			{(void CYFAR *)(CYREG_TMR0_CFG0), 12u},
 379:.\Generated_Source\PSoC5/cyfitter_cfg.c **** 			{(void CYFAR *)(CYREG_PRT5_DR), 16u},
 380:.\Generated_Source\PSoC5/cyfitter_cfg.c **** 			{(void CYFAR *)(CYREG_PRT12_DR), 16u},
 381:.\Generated_Source\PSoC5/cyfitter_cfg.c **** 			{(void CYFAR *)(CYREG_PRT15_DR), 16u},
 382:.\Generated_Source\PSoC5/cyfitter_cfg.c **** 			{(void CYFAR *)(CYDEV_UCFG_B0_P0_U0_BASE), 4096u},
 383:.\Generated_Source\PSoC5/cyfitter_cfg.c **** 			{(void CYFAR *)(CYDEV_UCFG_B1_P2_U0_BASE), 640u},
 384:.\Generated_Source\PSoC5/cyfitter_cfg.c **** 			{(void CYFAR *)(CYDEV_UCFG_B1_P3_ROUTE_BASE), 1280u},
 385:.\Generated_Source\PSoC5/cyfitter_cfg.c **** 			{(void CYFAR *)(CYDEV_UCFG_DSI0_BASE), 2560u},
 386:.\Generated_Source\PSoC5/cyfitter_cfg.c **** 			{(void CYFAR *)(CYDEV_UCFG_DSI12_BASE), 512u},
 387:.\Generated_Source\PSoC5/cyfitter_cfg.c **** 			{(void CYFAR *)(CYREG_BCTL0_MDCLK_EN), 32u},
 388:.\Generated_Source\PSoC5/cyfitter_cfg.c **** 		};
 389:.\Generated_Source\PSoC5/cyfitter_cfg.c **** 
 390:.\Generated_Source\PSoC5/cyfitter_cfg.c **** 		static const cfg_memcpy_t CYCODE cfg_memcpy_list [] = {
 391:.\Generated_Source\PSoC5/cyfitter_cfg.c **** 			/* dest, src, size */
 392:.\Generated_Source\PSoC5/cyfitter_cfg.c **** 			{(void CYFAR *)(CYDEV_UCFG_B1_P3_U1_BASE), BS_UDB_1_1_0_CONFIG_VAL, 128u},
 393:.\Generated_Source\PSoC5/cyfitter_cfg.c **** 		};
 394:.\Generated_Source\PSoC5/cyfitter_cfg.c **** 
 395:.\Generated_Source\PSoC5/cyfitter_cfg.c **** 		uint8 CYDATA i;
 396:.\Generated_Source\PSoC5/cyfitter_cfg.c **** 
 397:.\Generated_Source\PSoC5/cyfitter_cfg.c **** 		/* Zero out critical memory blocks before beginning configuration */
 398:.\Generated_Source\PSoC5/cyfitter_cfg.c **** 		for (i = 0u; i < (sizeof(cfg_memset_list)/sizeof(cfg_memset_list[0])); i++)
ARM GAS  C:\Users\pxc\AppData\Local\Temp\ccqd1C0j.s 			page 17


 482              		.loc 1 398 0
 483 000e 0024     		movs	r4, #0
 484 0010 0CE0     		b	.L31
 485              	.LVL36:
 486              	.L32:
 487              	.LBB4:
 399:.\Generated_Source\PSoC5/cyfitter_cfg.c **** 		{
 400:.\Generated_Source\PSoC5/cyfitter_cfg.c **** 			const cfg_memset_t CYCODE * CYDATA ms = &cfg_memset_list[i];
 401:.\Generated_Source\PSoC5/cyfitter_cfg.c **** 			CYMEMZERO(ms->address, (size_t)(uint32)(ms->size));
 488              		.loc 1 401 0 discriminator 3
 489 0012 3C49     		ldr	r1, .L36+4
 490 0014 6300     		lsls	r3, r4, #1
 491 0016 1A19     		adds	r2, r3, r4
 492 0018 5200     		lsls	r2, r2, #1
 493 001a 0A44     		add	r2, r2, r1
 494 001c 2344     		add	r3, r3, r4
 495 001e 5B00     		lsls	r3, r3, #1
 496 0020 C858     		ldr	r0, [r1, r3]	@ unaligned
 497 0022 9188     		ldrh	r1, [r2, #4]
 498 0024 FFF7FEFF 		bl	CYMEMZERO
 499              	.LVL37:
 500              	.LBE4:
 398:.\Generated_Source\PSoC5/cyfitter_cfg.c **** 		{
 501              		.loc 1 398 0 discriminator 3
 502 0028 0134     		adds	r4, r4, #1
 503              	.LVL38:
 504 002a E4B2     		uxtb	r4, r4
 505              	.LVL39:
 506              	.L31:
 398:.\Generated_Source\PSoC5/cyfitter_cfg.c **** 		{
 507              		.loc 1 398 0 is_stmt 0 discriminator 1
 508 002c 092C     		cmp	r4, #9
 509 002e F0D9     		bls	.L32
 510 0030 0024     		movs	r4, #0
 511              	.LVL40:
 512 0032 0BE0     		b	.L33
 513              	.LVL41:
 514              	.L34:
 515              	.LBB5:
 402:.\Generated_Source\PSoC5/cyfitter_cfg.c **** 		}
 403:.\Generated_Source\PSoC5/cyfitter_cfg.c **** 
 404:.\Generated_Source\PSoC5/cyfitter_cfg.c **** 		/* Copy device configuration data into registers */
 405:.\Generated_Source\PSoC5/cyfitter_cfg.c **** 		for (i = 0u; i < (sizeof(cfg_memcpy_list)/sizeof(cfg_memcpy_list[0])); i++)
 406:.\Generated_Source\PSoC5/cyfitter_cfg.c **** 		{
 407:.\Generated_Source\PSoC5/cyfitter_cfg.c **** 			const cfg_memcpy_t CYCODE * CYDATA mc = &cfg_memcpy_list[i];
 408:.\Generated_Source\PSoC5/cyfitter_cfg.c **** 			void * CYDATA destPtr = mc->dest;
 516              		.loc 1 408 0 is_stmt 1 discriminator 3
 517 0034 3349     		ldr	r1, .L36+4
 518 0036 A300     		lsls	r3, r4, #2
 519 0038 1A19     		adds	r2, r3, r4
 520 003a 5200     		lsls	r2, r2, #1
 521 003c 0A44     		add	r2, r2, r1
 522              	.LVL42:
 409:.\Generated_Source\PSoC5/cyfitter_cfg.c **** 			const void * CYDATA srcPtr = mc->src;
 410:.\Generated_Source\PSoC5/cyfitter_cfg.c **** 			uint16 CYDATA numBytes = mc->size;
 411:.\Generated_Source\PSoC5/cyfitter_cfg.c **** 			CYCONFIGCPY(destPtr, srcPtr, numBytes);
 523              		.loc 1 411 0 discriminator 3
ARM GAS  C:\Users\pxc\AppData\Local\Temp\ccqd1C0j.s 			page 18


 524 003e D06B     		ldr	r0, [r2, #60]	@ unaligned
 525              	.LVL43:
 526 0040 116C     		ldr	r1, [r2, #64]	@ unaligned
 527              	.LVL44:
 528 0042 8022     		movs	r2, #128
 529 0044 FFF7FEFF 		bl	CYCONFIGCPY
 530              	.LVL45:
 531              	.LBE5:
 405:.\Generated_Source\PSoC5/cyfitter_cfg.c **** 		{
 532              		.loc 1 405 0 discriminator 3
 533 0048 0134     		adds	r4, r4, #1
 534              	.LVL46:
 535 004a E4B2     		uxtb	r4, r4
 536              	.LVL47:
 537              	.L33:
 405:.\Generated_Source\PSoC5/cyfitter_cfg.c **** 		{
 538              		.loc 1 405 0 is_stmt 0 discriminator 1
 539 004c 002C     		cmp	r4, #0
 540 004e F1D0     		beq	.L34
 412:.\Generated_Source\PSoC5/cyfitter_cfg.c **** 		}
 413:.\Generated_Source\PSoC5/cyfitter_cfg.c **** 
 414:.\Generated_Source\PSoC5/cyfitter_cfg.c **** 		cfg_write_bytes32(cy_cfg_addr_table, cy_cfg_data_table);
 541              		.loc 1 414 0 is_stmt 1
 542 0050 4FF09040 		mov	r0, #1207959552
 543 0054 2C49     		ldr	r1, .L36+8
 544 0056 FFF7FEFF 		bl	cfg_write_bytes32
 545              	.LVL48:
 415:.\Generated_Source\PSoC5/cyfitter_cfg.c **** 
 416:.\Generated_Source\PSoC5/cyfitter_cfg.c **** 		/* Perform normal device configuration. Order is not critical for these items. */
 417:.\Generated_Source\PSoC5/cyfitter_cfg.c **** 		CYMEMZERO((void CYFAR *)(CYREG_PHUB_CFGMEM0_CFG0), 4u);
 546              		.loc 1 417 0
 547 005a 2C48     		ldr	r0, .L36+12
 548 005c 0421     		movs	r1, #4
 549 005e FFF7FEFF 		bl	CYMEMZERO
 550              	.LVL49:
 418:.\Generated_Source\PSoC5/cyfitter_cfg.c **** 		CYCONFIGCPY((void CYFAR *)(CYREG_PHUB_CFGMEM1_CFG0), (const void CYFAR *)(BS_PHUB_CFGMEM1_VAL), 4
 551              		.loc 1 418 0
 552 0062 2B48     		ldr	r0, .L36+16
 553 0064 2B49     		ldr	r1, .L36+20
 554 0066 0422     		movs	r2, #4
 555 0068 FFF7FEFF 		bl	CYCONFIGCPY
 556              	.LVL50:
 419:.\Generated_Source\PSoC5/cyfitter_cfg.c **** 
 420:.\Generated_Source\PSoC5/cyfitter_cfg.c **** 		/* Enable digital routing */
 421:.\Generated_Source\PSoC5/cyfitter_cfg.c **** 		CY_SET_XTND_REG8((void CYFAR *)CYREG_BCTL0_BANK_CTL, CY_GET_XTND_REG8((void CYFAR *)CYREG_BCTL0_B
 557              		.loc 1 421 0
 558 006c 2A4A     		ldr	r2, .L36+24
 559 006e 1378     		ldrb	r3, [r2]	@ zero_extendqisi2
 560 0070 43F00203 		orr	r3, r3, #2
 561 0074 1370     		strb	r3, [r2]
 422:.\Generated_Source\PSoC5/cyfitter_cfg.c **** 		CY_SET_XTND_REG8((void CYFAR *)CYREG_BCTL1_BANK_CTL, CY_GET_XTND_REG8((void CYFAR *)CYREG_BCTL1_B
 562              		.loc 1 422 0
 563 0076 1032     		adds	r2, r2, #16
 564 0078 1378     		ldrb	r3, [r2]	@ zero_extendqisi2
 565 007a 43F00203 		orr	r3, r3, #2
 566 007e 1370     		strb	r3, [r2]
 423:.\Generated_Source\PSoC5/cyfitter_cfg.c **** 
ARM GAS  C:\Users\pxc\AppData\Local\Temp\ccqd1C0j.s 			page 19


 424:.\Generated_Source\PSoC5/cyfitter_cfg.c **** 		/* Enable UDB array */
 425:.\Generated_Source\PSoC5/cyfitter_cfg.c **** 		CY_SET_XTND_REG8((void CYFAR *)CYREG_PM_ACT_CFG0, CY_GET_XTND_REG8((void CYFAR *)CYREG_PM_ACT_CFG
 567              		.loc 1 425 0
 568 0080 264C     		ldr	r4, .L36+28
 569              	.LVL51:
 570 0082 2378     		ldrb	r3, [r4]	@ zero_extendqisi2
 571 0084 43F04003 		orr	r3, r3, #64
 572 0088 2370     		strb	r3, [r4]
 426:.\Generated_Source\PSoC5/cyfitter_cfg.c **** 		CY_SET_XTND_REG8((void CYFAR *)CYREG_PM_AVAIL_CR2, CY_GET_XTND_REG8((void CYFAR *)CYREG_PM_AVAIL_
 573              		.loc 1 426 0
 574 008a A2F58632 		sub	r2, r2, #68608
 575 008e 513A     		subs	r2, r2, #81
 576 0090 1378     		ldrb	r3, [r2]	@ zero_extendqisi2
 577 0092 43F01003 		orr	r3, r3, #16
 578 0096 1370     		strb	r3, [r2]
 579              	.LBE3:
 427:.\Generated_Source\PSoC5/cyfitter_cfg.c **** 	}
 428:.\Generated_Source\PSoC5/cyfitter_cfg.c **** 
 429:.\Generated_Source\PSoC5/cyfitter_cfg.c **** 
 430:.\Generated_Source\PSoC5/cyfitter_cfg.c **** 	/* Perform second pass device configuration. These items must be configured in specific order afte
 431:.\Generated_Source\PSoC5/cyfitter_cfg.c **** 	CYCONFIGCPY((void CYFAR *)(CYREG_PRT0_DR), (const void CYFAR *)(BS_IOPINS0_0_VAL), 10u);
 580              		.loc 1 431 0
 581 0098 2148     		ldr	r0, .L36+32
 582 009a 2249     		ldr	r1, .L36+36
 583 009c 0A22     		movs	r2, #10
 584 009e FFF7FEFF 		bl	CYCONFIGCPY
 585              	.LVL52:
 432:.\Generated_Source\PSoC5/cyfitter_cfg.c **** 	CYCONFIGCPY((void CYFAR *)(CYREG_PRT1_DM0), (const void CYFAR *)(BS_IOPINS0_1_VAL), 8u);
 586              		.loc 1 432 0
 587 00a2 2148     		ldr	r0, .L36+40
 588 00a4 2149     		ldr	r1, .L36+44
 589 00a6 0822     		movs	r2, #8
 590 00a8 FFF7FEFF 		bl	CYCONFIGCPY
 591              	.LVL53:
 433:.\Generated_Source\PSoC5/cyfitter_cfg.c **** 	CYCONFIGCPY((void CYFAR *)(CYREG_PRT2_DM0), (const void CYFAR *)(BS_IOPINS0_2_VAL), 8u);
 592              		.loc 1 433 0
 593 00ac 2048     		ldr	r0, .L36+48
 594 00ae 2149     		ldr	r1, .L36+52
 595 00b0 0822     		movs	r2, #8
 596 00b2 FFF7FEFF 		bl	CYCONFIGCPY
 597              	.LVL54:
 434:.\Generated_Source\PSoC5/cyfitter_cfg.c **** 	CYCONFIGCPY((void CYFAR *)(CYREG_PRT3_DR), (const void CYFAR *)(BS_IOPINS0_3_VAL), 10u);
 598              		.loc 1 434 0
 599 00b6 2048     		ldr	r0, .L36+56
 600 00b8 2049     		ldr	r1, .L36+60
 601 00ba 0A22     		movs	r2, #10
 602 00bc FFF7FEFF 		bl	CYCONFIGCPY
 603              	.LVL55:
 435:.\Generated_Source\PSoC5/cyfitter_cfg.c **** 	CYCONFIGCPY((void CYFAR *)(CYREG_PRT4_DR), (const void CYFAR *)(BS_IOPINS0_4_VAL), 10u);
 604              		.loc 1 435 0
 605 00c0 1F48     		ldr	r0, .L36+64
 606 00c2 2049     		ldr	r1, .L36+68
 607 00c4 0A22     		movs	r2, #10
 608 00c6 FFF7FEFF 		bl	CYCONFIGCPY
 609              	.LVL56:
 436:.\Generated_Source\PSoC5/cyfitter_cfg.c **** 	CYCONFIGCPY((void CYFAR *)(CYREG_PRT6_DM0), (const void CYFAR *)(BS_IOPINS0_6_VAL), 8u);
 610              		.loc 1 436 0
ARM GAS  C:\Users\pxc\AppData\Local\Temp\ccqd1C0j.s 			page 20


 611 00ca 1F48     		ldr	r0, .L36+72
 612 00cc 1F49     		ldr	r1, .L36+76
 613 00ce 0822     		movs	r2, #8
 614 00d0 FFF7FEFF 		bl	CYCONFIGCPY
 615              	.LVL57:
 437:.\Generated_Source\PSoC5/cyfitter_cfg.c **** 	/* Switch Boost to the precision bandgap reference from its internal reference */
 438:.\Generated_Source\PSoC5/cyfitter_cfg.c **** 	CY_SET_REG8((void CYXDATA *)CYREG_BOOST_CR2, (CY_GET_REG8((void CYXDATA *)CYREG_BOOST_CR2) | 0x08u
 616              		.loc 1 438 0
 617 00d4 1E4A     		ldr	r2, .L36+80
 618 00d6 1378     		ldrb	r3, [r2]	@ zero_extendqisi2
 619 00d8 43F00803 		orr	r3, r3, #8
 620 00dc 1370     		strb	r3, [r2]
 439:.\Generated_Source\PSoC5/cyfitter_cfg.c **** 
 440:.\Generated_Source\PSoC5/cyfitter_cfg.c **** 	/* Set Flash Cycles based on max possible frequency in case a glitch occurs during ClockSetup(). *
 441:.\Generated_Source\PSoC5/cyfitter_cfg.c **** 	CY_SET_XTND_REG8((void CYFAR *)(CYREG_CACHE_CC_CTL), (((CYDEV_INSTRUCT_CACHE_ENABLED) != 0) ? 0x01
 621              		.loc 1 441 0
 622 00de 1D4E     		ldr	r6, .L36+84
 623 00e0 0125     		movs	r5, #1
 624 00e2 3570     		strb	r5, [r6]
 442:.\Generated_Source\PSoC5/cyfitter_cfg.c **** 	/* Setup clocks based on selections from Clock DWR */
 443:.\Generated_Source\PSoC5/cyfitter_cfg.c **** 	ClockSetup();
 625              		.loc 1 443 0
 626 00e4 FFF7FEFF 		bl	ClockSetup
 627              	.LVL58:
 444:.\Generated_Source\PSoC5/cyfitter_cfg.c **** 	/* Set Flash Cycles based on newly configured 24.00MHz Bus Clock. */
 445:.\Generated_Source\PSoC5/cyfitter_cfg.c **** 	CY_SET_XTND_REG8((void CYFAR *)(CYREG_CACHE_CC_CTL), (((CYDEV_INSTRUCT_CACHE_ENABLED) != 0) ? 0x81
 628              		.loc 1 445 0
 629 00e8 8123     		movs	r3, #129
 630 00ea 3370     		strb	r3, [r6]
 446:.\Generated_Source\PSoC5/cyfitter_cfg.c **** 	CY_SET_XTND_REG8((void CYFAR *)(CYREG_PANTHER_WAITPIPE), 0x01u);
 631              		.loc 1 446 0
 632 00ec 1A4B     		ldr	r3, .L36+88
 633 00ee 1D70     		strb	r5, [r3]
 447:.\Generated_Source\PSoC5/cyfitter_cfg.c **** 
 448:.\Generated_Source\PSoC5/cyfitter_cfg.c **** 	/* Perform basic analog initialization to defaults */
 449:.\Generated_Source\PSoC5/cyfitter_cfg.c **** 	AnalogSetDefault();
 634              		.loc 1 449 0
 635 00f0 FFF7FEFF 		bl	AnalogSetDefault
 636              	.LVL59:
 450:.\Generated_Source\PSoC5/cyfitter_cfg.c **** 
 451:.\Generated_Source\PSoC5/cyfitter_cfg.c **** 	/* Configure alternate active mode */
 452:.\Generated_Source\PSoC5/cyfitter_cfg.c **** 	CYCONFIGCPY((void CYFAR *)CYDEV_PM_STBY_BASE, (const void CYFAR *)CYDEV_PM_ACT_BASE, 14u);
 637              		.loc 1 452 0
 638 00f4 1948     		ldr	r0, .L36+92
 639 00f6 2146     		mov	r1, r4
 640 00f8 0E22     		movs	r2, #14
 641 00fa FFF7FEFF 		bl	CYCONFIGCPY
 642              	.LVL60:
 643 00fe 70BD     		pop	{r4, r5, r6, pc}
 644              	.L37:
 645              		.align	2
 646              	.L36:
 647 0100 E8460040 		.word	1073759976
 648 0104 00000000 		.word	.LANCHOR0
 649 0108 9C000048 		.word	1207959708
 650 010c 00760040 		.word	1073772032
 651 0110 08760040 		.word	1073772040
ARM GAS  C:\Users\pxc\AppData\Local\Temp\ccqd1C0j.s 			page 21


 652 0114 9C080048 		.word	1207961756
 653 0118 03500140 		.word	1073827843
 654 011c A0430040 		.word	1073759136
 655 0120 00510040 		.word	1073762560
 656 0124 60080048 		.word	1207961696
 657 0128 12510040 		.word	1073762578
 658 012c 6C080048 		.word	1207961708
 659 0130 22510040 		.word	1073762594
 660 0134 74080048 		.word	1207961716
 661 0138 30510040 		.word	1073762608
 662 013c 7C080048 		.word	1207961724
 663 0140 40510040 		.word	1073762624
 664 0144 88080048 		.word	1207961736
 665 0148 62510040 		.word	1073762658
 666 014c 94080048 		.word	1207961748
 667 0150 22430040 		.word	1073759010
 668 0154 00480040 		.word	1073760256
 669 0158 04000840 		.word	1074266116
 670 015c B0430040 		.word	1073759152
 671              		.cfi_endproc
 672              	.LFE8:
 673              		.size	cyfitter_cfg, .-cyfitter_cfg
 674              		.section	.rodata
 675              		.align	2
 676              		.set	.LANCHOR0,. + 0
 677              		.type	cfg_memset_list.4887, %object
 678              		.size	cfg_memset_list.4887, 60
 679              	cfg_memset_list.4887:
 680 0000 004F0040 		.word	1073762048
 681 0004 0C00     		.short	12
 682 0006 50510040 		.4byte	1073762640
 683 000a 1000     		.short	16
 684 000c C0510040 		.word	1073762752
 685 0010 1000     		.short	16
 686 0012 F0510040 		.4byte	1073762800
 687 0016 1000     		.short	16
 688 0018 00000140 		.word	1073807360
 689 001c 0010     		.short	4096
 690 001e 00140140 		.4byte	1073812480
 691 0022 8002     		.short	640
 692 0024 00170140 		.word	1073813248
 693 0028 0005     		.short	1280
 694 002a 00400140 		.4byte	1073823744
 695 002e 000A     		.short	2560
 696 0030 004C0140 		.word	1073826816
 697 0034 0002     		.short	512
 698 0036 00500140 		.4byte	1073827840
 699 003a 2000     		.short	32
 700              		.type	cfg_memcpy_list.4888, %object
 701              		.size	cfg_memcpy_list.4888, 10
 702              	cfg_memcpy_list.4888:
 703 003c 80160140 		.word	1073813120
 704 0040 E0070048 		.word	1207961568
 705 0044 8000     		.short	128
 706 0046 0000     		.text
 707              	.Letext0:
 708              		.file 2 "c:\\program files (x86)\\cypress\\psoc creator\\3.3\\psoc creator\\import\\gnu\\arm\\4.9.
ARM GAS  C:\Users\pxc\AppData\Local\Temp\ccqd1C0j.s 			page 22


 709              		.file 3 ".\\Generated_Source\\PSoC5\\cytypes.h"
 710              		.file 4 ".\\Generated_Source\\PSoC5\\CyLib.h"