ARM GAS  C:\Users\pxc\AppData\Local\Temp\ccWBOefJ.s 			page 1


   1              		.syntax unified
   2              		.cpu cortex-m3
   3              		.fpu softvfp
   4              		.eabi_attribute 20, 1
   5              		.eabi_attribute 21, 1
   6              		.eabi_attribute 23, 3
   7              		.eabi_attribute 24, 1
   8              		.eabi_attribute 25, 1
   9              		.eabi_attribute 26, 1
  10              		.eabi_attribute 30, 1
  11              		.eabi_attribute 34, 1
  12              		.eabi_attribute 18, 4
  13              		.thumb
  14              		.file	"key.c"
  15              		.text
  16              	.Ltext0:
  17              		.cfi_sections	.debug_frame
  18              		.section	.text.Callback_STR1_press_up,"ax",%progbits
  19              		.align	2
  20              		.global	Callback_STR1_press_up
  21              		.thumb
  22              		.thumb_func
  23              		.type	Callback_STR1_press_up, %function
  24              	Callback_STR1_press_up:
  25              	.LFB85:
  26              		.file 1 ".\\key.c"
   1:.\key.c       **** 
   2:.\key.c       **** #include "key.h"
   3:.\key.c       **** #include <project.h>
   4:.\key.c       **** #include "Transfer.h"
   5:.\key.c       **** #include "car.h"
   6:.\key.c       **** 
   7:.\key.c       **** 
   8:.\key.c       **** #define EVENT_CB(ev)   if(handle->cb[ev])handle->cb[ev]((Button*)handle)
   9:.\key.c       **** 
  10:.\key.c       **** #define debug(x) {UART_net_PutString(x);UART_net_PutString("\r\n");}
  11:.\key.c       **** #define led_high 100
  12:.\key.c       **** #define led_medium 40
  13:.\key.c       **** #define led_low   0
  14:.\key.c       **** uint8 led_send[4] = {0,0,0,0};
  15:.\key.c       **** //button handle list head.
  16:.\key.c       **** static struct Button* head_handle = NULL;
  17:.\key.c       **** 
  18:.\key.c       **** struct Button key_up; 
  19:.\key.c       **** struct Button key_down; 
  20:.\key.c       **** struct Button key_left;  
  21:.\key.c       **** struct Button key_right;
  22:.\key.c       **** 
  23:.\key.c       **** struct Button PTZ_up; 
  24:.\key.c       **** struct Button PTZ_down; 
  25:.\key.c       **** struct Button PTZ_left;  
  26:.\key.c       **** struct Button PTZ_right;
  27:.\key.c       **** 
  28:.\key.c       **** struct Button key_speed_low;
  29:.\key.c       **** struct Button key_speed_high;
  30:.\key.c       **** 
  31:.\key.c       **** 
ARM GAS  C:\Users\pxc\AppData\Local\Temp\ccWBOefJ.s 			page 2


  32:.\key.c       **** struct Button led_start; 
  33:.\key.c       **** 
  34:.\key.c       **** struct Button STR1; 
  35:.\key.c       **** struct Button STR2; 
  36:.\key.c       **** struct Button MSR_high; 
  37:.\key.c       **** struct Button MSR_low; 
  38:.\key.c       **** struct Button SWITCH_1_high;
  39:.\key.c       **** struct Button SWITCH_1_low;
  40:.\key.c       **** struct Button SWITCH_2_high; 
  41:.\key.c       **** struct Button SWITCH_2_low; 
  42:.\key.c       **** 
  43:.\key.c       **** uint8 temp;
  44:.\key.c       **** uint8 temp1;
  45:.\key.c       **** 
  46:.\key.c       **** uint16 Car_speed_base = 1000;
  47:.\key.c       **** 
  48:.\key.c       **** void Callback_key_up_press_up()
  49:.\key.c       **** {
  50:.\key.c       ****    DT_Send_Status(STOP);
  51:.\key.c       **** }
  52:.\key.c       **** void Callback_key_up_press_down()
  53:.\key.c       **** {
  54:.\key.c       ****    DT_Send_Status(DOWN);
  55:.\key.c       **** }
  56:.\key.c       **** 
  57:.\key.c       **** void Callback_key_down_press_up()
  58:.\key.c       **** {
  59:.\key.c       ****   DT_Send_Status(STOP);
  60:.\key.c       **** }
  61:.\key.c       **** void Callback_key_down_press_down()
  62:.\key.c       **** {
  63:.\key.c       ****     DT_Send_Status(UP);
  64:.\key.c       **** }
  65:.\key.c       **** 
  66:.\key.c       **** 
  67:.\key.c       **** void Callback_key_left_press_up()
  68:.\key.c       **** {
  69:.\key.c       ****    DT_Send_Status(STOP);
  70:.\key.c       **** }
  71:.\key.c       **** void Callback_key_left_press_down()
  72:.\key.c       **** {
  73:.\key.c       ****     DT_Send_Status(LEFT); 
  74:.\key.c       **** }
  75:.\key.c       **** 
  76:.\key.c       **** void Callback_key_right_press_up()
  77:.\key.c       **** {
  78:.\key.c       ****    DT_Send_Status(STOP);
  79:.\key.c       **** }
  80:.\key.c       **** void Callback_key_right_press_down()
  81:.\key.c       **** {
  82:.\key.c       ****     DT_Send_Status(RIGHT); 
  83:.\key.c       **** }
  84:.\key.c       **** 
  85:.\key.c       **** //PTZ
  86:.\key.c       **** void Callback_PTZ_up_press_up()
  87:.\key.c       **** {
  88:.\key.c       ****    DT_Send_Command_Ptz(STOP);
ARM GAS  C:\Users\pxc\AppData\Local\Temp\ccWBOefJ.s 			page 3


  89:.\key.c       **** }
  90:.\key.c       **** void Callback_PTZ_up_press_down()
  91:.\key.c       **** {
  92:.\key.c       ****    DT_Send_Command_Ptz(RIGHT);
  93:.\key.c       **** }
  94:.\key.c       **** 
  95:.\key.c       **** void Callback_PTZ_down_press_up()
  96:.\key.c       **** {
  97:.\key.c       ****   DT_Send_Command_Ptz(STOP);
  98:.\key.c       **** }
  99:.\key.c       **** void Callback_PTZ_down_press_down()
 100:.\key.c       **** {
 101:.\key.c       ****     DT_Send_Command_Ptz(DOWN);
 102:.\key.c       **** }
 103:.\key.c       **** 
 104:.\key.c       **** 
 105:.\key.c       **** void Callback_PTZ_left_press_up()
 106:.\key.c       **** {
 107:.\key.c       ****    DT_Send_Command_Ptz(STOP);
 108:.\key.c       **** }
 109:.\key.c       **** void Callback_PTZ_left_press_down()
 110:.\key.c       **** {
 111:.\key.c       ****     DT_Send_Command_Ptz(LEFT); 
 112:.\key.c       **** }
 113:.\key.c       **** 
 114:.\key.c       **** void Callback_PTZ_right_press_up()
 115:.\key.c       **** {
 116:.\key.c       ****    DT_Send_Command_Ptz(STOP);
 117:.\key.c       **** }
 118:.\key.c       **** void Callback_PTZ_right_press_down()
 119:.\key.c       **** {
 120:.\key.c       ****     DT_Send_Command_Ptz(UP); 
 121:.\key.c       **** }
 122:.\key.c       **** ///speed
 123:.\key.c       **** 
 124:.\key.c       **** void Callback_key_speed_low_press_up()
 125:.\key.c       **** {
 126:.\key.c       ****     DT_Send_Command_Speed(15000);
 127:.\key.c       **** }
 128:.\key.c       **** void Callback_key_speed_low_press_down()
 129:.\key.c       **** {
 130:.\key.c       ****     DT_Send_Command_Speed(20000);
 131:.\key.c       **** }
 132:.\key.c       **** void Callback_key_speed_high_press_up()
 133:.\key.c       **** {
 134:.\key.c       ****      DT_Send_Command_Speed(15000);
 135:.\key.c       **** }
 136:.\key.c       **** void Callback_key_speed_high_press_down()
 137:.\key.c       **** {
 138:.\key.c       ****      DT_Send_Command_Speed(10000);
 139:.\key.c       **** }
 140:.\key.c       **** ///led
 141:.\key.c       **** 
 142:.\key.c       **** void Callback_led_start_press_up()
 143:.\key.c       **** {
 144:.\key.c       ****   DT_Send_Command_Turn(0); 
 145:.\key.c       **** }
ARM GAS  C:\Users\pxc\AppData\Local\Temp\ccWBOefJ.s 			page 4


 146:.\key.c       **** void Callback_led_start_press_down()
 147:.\key.c       **** {
 148:.\key.c       ****   DT_Send_Command_Turn(2); 
 149:.\key.c       **** }
 150:.\key.c       **** 
 151:.\key.c       **** ////2个预留开关
 152:.\key.c       **** void Callback_STR1_press_up()
 153:.\key.c       **** {
  27              		.loc 1 153 0
  28              		.cfi_startproc
  29              		@ args = 0, pretend = 0, frame = 0
  30              		@ frame_needed = 0, uses_anonymous_args = 0
  31 0000 08B5     		push	{r3, lr}
  32              		.cfi_def_cfa_offset 8
  33              		.cfi_offset 3, -8
  34              		.cfi_offset 14, -4
 154:.\key.c       ****    debug("str1_up");
  35              		.loc 1 154 0
  36 0002 0348     		ldr	r0, .L3
  37 0004 FFF7FEFF 		bl	UART_net_PutString
  38              	.LVL0:
  39 0008 0248     		ldr	r0, .L3+4
  40 000a FFF7FEFF 		bl	UART_net_PutString
  41              	.LVL1:
  42 000e 08BD     		pop	{r3, pc}
  43              	.L4:
  44              		.align	2
  45              	.L3:
  46 0010 00000000 		.word	.LC0
  47 0014 08000000 		.word	.LC1
  48              		.cfi_endproc
  49              	.LFE85:
  50              		.size	Callback_STR1_press_up, .-Callback_STR1_press_up
  51              		.section	.text.Callback_STR1_down,"ax",%progbits
  52              		.align	2
  53              		.global	Callback_STR1_down
  54              		.thumb
  55              		.thumb_func
  56              		.type	Callback_STR1_down, %function
  57              	Callback_STR1_down:
  58              	.LFB86:
 155:.\key.c       **** }
 156:.\key.c       **** void Callback_STR1_down()
 157:.\key.c       **** {
  59              		.loc 1 157 0
  60              		.cfi_startproc
  61              		@ args = 0, pretend = 0, frame = 0
  62              		@ frame_needed = 0, uses_anonymous_args = 0
  63 0000 08B5     		push	{r3, lr}
  64              		.cfi_def_cfa_offset 8
  65              		.cfi_offset 3, -8
  66              		.cfi_offset 14, -4
 158:.\key.c       **** debug("str1_down");
  67              		.loc 1 158 0
  68 0002 0348     		ldr	r0, .L7
  69 0004 FFF7FEFF 		bl	UART_net_PutString
  70              	.LVL2:
ARM GAS  C:\Users\pxc\AppData\Local\Temp\ccWBOefJ.s 			page 5


  71 0008 0248     		ldr	r0, .L7+4
  72 000a FFF7FEFF 		bl	UART_net_PutString
  73              	.LVL3:
  74 000e 08BD     		pop	{r3, pc}
  75              	.L8:
  76              		.align	2
  77              	.L7:
  78 0010 0C000000 		.word	.LC2
  79 0014 08000000 		.word	.LC1
  80              		.cfi_endproc
  81              	.LFE86:
  82              		.size	Callback_STR1_down, .-Callback_STR1_down
  83              		.section	.text.Callback_STR2_press_up,"ax",%progbits
  84              		.align	2
  85              		.global	Callback_STR2_press_up
  86              		.thumb
  87              		.thumb_func
  88              		.type	Callback_STR2_press_up, %function
  89              	Callback_STR2_press_up:
  90              	.LFB87:
 159:.\key.c       **** }
 160:.\key.c       **** void Callback_STR2_press_up()
 161:.\key.c       **** {
  91              		.loc 1 161 0
  92              		.cfi_startproc
  93              		@ args = 0, pretend = 0, frame = 0
  94              		@ frame_needed = 0, uses_anonymous_args = 0
  95 0000 08B5     		push	{r3, lr}
  96              		.cfi_def_cfa_offset 8
  97              		.cfi_offset 3, -8
  98              		.cfi_offset 14, -4
 162:.\key.c       ****     debug("str2_up");
  99              		.loc 1 162 0
 100 0002 0348     		ldr	r0, .L11
 101 0004 FFF7FEFF 		bl	UART_net_PutString
 102              	.LVL4:
 103 0008 0248     		ldr	r0, .L11+4
 104 000a FFF7FEFF 		bl	UART_net_PutString
 105              	.LVL5:
 106 000e 08BD     		pop	{r3, pc}
 107              	.L12:
 108              		.align	2
 109              	.L11:
 110 0010 18000000 		.word	.LC3
 111 0014 08000000 		.word	.LC1
 112              		.cfi_endproc
 113              	.LFE87:
 114              		.size	Callback_STR2_press_up, .-Callback_STR2_press_up
 115              		.section	.text.Callback_STR2_press_down,"ax",%progbits
 116              		.align	2
 117              		.global	Callback_STR2_press_down
 118              		.thumb
 119              		.thumb_func
 120              		.type	Callback_STR2_press_down, %function
 121              	Callback_STR2_press_down:
 122              	.LFB88:
 163:.\key.c       **** }
ARM GAS  C:\Users\pxc\AppData\Local\Temp\ccWBOefJ.s 			page 6


 164:.\key.c       **** void Callback_STR2_press_down()
 165:.\key.c       **** {
 123              		.loc 1 165 0
 124              		.cfi_startproc
 125              		@ args = 0, pretend = 0, frame = 0
 126              		@ frame_needed = 0, uses_anonymous_args = 0
 127 0000 08B5     		push	{r3, lr}
 128              		.cfi_def_cfa_offset 8
 129              		.cfi_offset 3, -8
 130              		.cfi_offset 14, -4
 166:.\key.c       ****    debug("str2_down");
 131              		.loc 1 166 0
 132 0002 0348     		ldr	r0, .L15
 133 0004 FFF7FEFF 		bl	UART_net_PutString
 134              	.LVL6:
 135 0008 0248     		ldr	r0, .L15+4
 136 000a FFF7FEFF 		bl	UART_net_PutString
 137              	.LVL7:
 138 000e 08BD     		pop	{r3, pc}
 139              	.L16:
 140              		.align	2
 141              	.L15:
 142 0010 20000000 		.word	.LC4
 143 0014 08000000 		.word	.LC1
 144              		.cfi_endproc
 145              	.LFE88:
 146              		.size	Callback_STR2_press_down, .-Callback_STR2_press_down
 147              		.section	.text.Callback_MSR_low_press_up,"ax",%progbits
 148              		.align	2
 149              		.global	Callback_MSR_low_press_up
 150              		.thumb
 151              		.thumb_func
 152              		.type	Callback_MSR_low_press_up, %function
 153              	Callback_MSR_low_press_up:
 154              	.LFB89:
 167:.\key.c       **** }    
 168:.\key.c       **** ////////////left
 169:.\key.c       **** void Callback_MSR_low_press_up()
 170:.\key.c       **** {
 155              		.loc 1 170 0
 156              		.cfi_startproc
 157              		@ args = 0, pretend = 0, frame = 0
 158              		@ frame_needed = 0, uses_anonymous_args = 0
 159 0000 08B5     		push	{r3, lr}
 160              		.cfi_def_cfa_offset 8
 161              		.cfi_offset 3, -8
 162              		.cfi_offset 14, -4
 171:.\key.c       ****   debug("MSR_low_up");
 163              		.loc 1 171 0
 164 0002 0348     		ldr	r0, .L19
 165 0004 FFF7FEFF 		bl	UART_net_PutString
 166              	.LVL8:
 167 0008 0248     		ldr	r0, .L19+4
 168 000a FFF7FEFF 		bl	UART_net_PutString
 169              	.LVL9:
 170 000e 08BD     		pop	{r3, pc}
 171              	.L20:
ARM GAS  C:\Users\pxc\AppData\Local\Temp\ccWBOefJ.s 			page 7


 172              		.align	2
 173              	.L19:
 174 0010 2C000000 		.word	.LC5
 175 0014 08000000 		.word	.LC1
 176              		.cfi_endproc
 177              	.LFE89:
 178              		.size	Callback_MSR_low_press_up, .-Callback_MSR_low_press_up
 179              		.section	.text.Callback_MSR_low_press_down,"ax",%progbits
 180              		.align	2
 181              		.global	Callback_MSR_low_press_down
 182              		.thumb
 183              		.thumb_func
 184              		.type	Callback_MSR_low_press_down, %function
 185              	Callback_MSR_low_press_down:
 186              	.LFB90:
 172:.\key.c       **** }
 173:.\key.c       **** void Callback_MSR_low_press_down()
 174:.\key.c       **** {
 187              		.loc 1 174 0
 188              		.cfi_startproc
 189              		@ args = 0, pretend = 0, frame = 0
 190              		@ frame_needed = 0, uses_anonymous_args = 0
 191 0000 08B5     		push	{r3, lr}
 192              		.cfi_def_cfa_offset 8
 193              		.cfi_offset 3, -8
 194              		.cfi_offset 14, -4
 175:.\key.c       ****      debug("MSR_low_down");
 195              		.loc 1 175 0
 196 0002 0348     		ldr	r0, .L23
 197 0004 FFF7FEFF 		bl	UART_net_PutString
 198              	.LVL10:
 199 0008 0248     		ldr	r0, .L23+4
 200 000a FFF7FEFF 		bl	UART_net_PutString
 201              	.LVL11:
 202 000e 08BD     		pop	{r3, pc}
 203              	.L24:
 204              		.align	2
 205              	.L23:
 206 0010 38000000 		.word	.LC6
 207 0014 08000000 		.word	.LC1
 208              		.cfi_endproc
 209              	.LFE90:
 210              		.size	Callback_MSR_low_press_down, .-Callback_MSR_low_press_down
 211              		.section	.text.Callback_MSR_high_press_up,"ax",%progbits
 212              		.align	2
 213              		.global	Callback_MSR_high_press_up
 214              		.thumb
 215              		.thumb_func
 216              		.type	Callback_MSR_high_press_up, %function
 217              	Callback_MSR_high_press_up:
 218              	.LFB91:
 176:.\key.c       **** }
 177:.\key.c       **** void Callback_MSR_high_press_up()
 178:.\key.c       **** {
 219              		.loc 1 178 0
 220              		.cfi_startproc
 221              		@ args = 0, pretend = 0, frame = 0
ARM GAS  C:\Users\pxc\AppData\Local\Temp\ccWBOefJ.s 			page 8


 222              		@ frame_needed = 0, uses_anonymous_args = 0
 223 0000 08B5     		push	{r3, lr}
 224              		.cfi_def_cfa_offset 8
 225              		.cfi_offset 3, -8
 226              		.cfi_offset 14, -4
 179:.\key.c       ****     debug("MSR_high_up");
 227              		.loc 1 179 0
 228 0002 0348     		ldr	r0, .L27
 229 0004 FFF7FEFF 		bl	UART_net_PutString
 230              	.LVL12:
 231 0008 0248     		ldr	r0, .L27+4
 232 000a FFF7FEFF 		bl	UART_net_PutString
 233              	.LVL13:
 234 000e 08BD     		pop	{r3, pc}
 235              	.L28:
 236              		.align	2
 237              	.L27:
 238 0010 48000000 		.word	.LC7
 239 0014 08000000 		.word	.LC1
 240              		.cfi_endproc
 241              	.LFE91:
 242              		.size	Callback_MSR_high_press_up, .-Callback_MSR_high_press_up
 243              		.section	.text.Callback_MSR_high_press_down,"ax",%progbits
 244              		.align	2
 245              		.global	Callback_MSR_high_press_down
 246              		.thumb
 247              		.thumb_func
 248              		.type	Callback_MSR_high_press_down, %function
 249              	Callback_MSR_high_press_down:
 250              	.LFB92:
 180:.\key.c       **** }
 181:.\key.c       **** void Callback_MSR_high_press_down()
 182:.\key.c       **** {
 251              		.loc 1 182 0
 252              		.cfi_startproc
 253              		@ args = 0, pretend = 0, frame = 0
 254              		@ frame_needed = 0, uses_anonymous_args = 0
 255 0000 08B5     		push	{r3, lr}
 256              		.cfi_def_cfa_offset 8
 257              		.cfi_offset 3, -8
 258              		.cfi_offset 14, -4
 183:.\key.c       ****     debug("MSR_high_down");
 259              		.loc 1 183 0
 260 0002 0348     		ldr	r0, .L31
 261 0004 FFF7FEFF 		bl	UART_net_PutString
 262              	.LVL14:
 263 0008 0248     		ldr	r0, .L31+4
 264 000a FFF7FEFF 		bl	UART_net_PutString
 265              	.LVL15:
 266 000e 08BD     		pop	{r3, pc}
 267              	.L32:
 268              		.align	2
 269              	.L31:
 270 0010 54000000 		.word	.LC8
 271 0014 08000000 		.word	.LC1
 272              		.cfi_endproc
 273              	.LFE92:
ARM GAS  C:\Users\pxc\AppData\Local\Temp\ccWBOefJ.s 			page 9


 274              		.size	Callback_MSR_high_press_down, .-Callback_MSR_high_press_down
 275              		.section	.text.Callback_SWITCH_1_low_press_up,"ax",%progbits
 276              		.align	2
 277              		.global	Callback_SWITCH_1_low_press_up
 278              		.thumb
 279              		.thumb_func
 280              		.type	Callback_SWITCH_1_low_press_up, %function
 281              	Callback_SWITCH_1_low_press_up:
 282              	.LFB93:
 184:.\key.c       **** }    
 185:.\key.c       **** //SWITCH_1
 186:.\key.c       **** void Callback_SWITCH_1_low_press_up()
 187:.\key.c       **** {
 283              		.loc 1 187 0
 284              		.cfi_startproc
 285              		@ args = 0, pretend = 0, frame = 0
 286              		@ frame_needed = 0, uses_anonymous_args = 0
 287 0000 08B5     		push	{r3, lr}
 288              		.cfi_def_cfa_offset 8
 289              		.cfi_offset 3, -8
 290              		.cfi_offset 14, -4
 188:.\key.c       ****       debug("Callback_SWITCH_1_low_press_up");
 291              		.loc 1 188 0
 292 0002 0348     		ldr	r0, .L35
 293 0004 FFF7FEFF 		bl	UART_net_PutString
 294              	.LVL16:
 295 0008 0248     		ldr	r0, .L35+4
 296 000a FFF7FEFF 		bl	UART_net_PutString
 297              	.LVL17:
 298 000e 08BD     		pop	{r3, pc}
 299              	.L36:
 300              		.align	2
 301              	.L35:
 302 0010 64000000 		.word	.LC9
 303 0014 08000000 		.word	.LC1
 304              		.cfi_endproc
 305              	.LFE93:
 306              		.size	Callback_SWITCH_1_low_press_up, .-Callback_SWITCH_1_low_press_up
 307              		.section	.text.Callback_SWITCH_1_low_press_down,"ax",%progbits
 308              		.align	2
 309              		.global	Callback_SWITCH_1_low_press_down
 310              		.thumb
 311              		.thumb_func
 312              		.type	Callback_SWITCH_1_low_press_down, %function
 313              	Callback_SWITCH_1_low_press_down:
 314              	.LFB94:
 189:.\key.c       **** }
 190:.\key.c       **** void Callback_SWITCH_1_low_press_down()
 191:.\key.c       **** {
 315              		.loc 1 191 0
 316              		.cfi_startproc
 317              		@ args = 0, pretend = 0, frame = 0
 318              		@ frame_needed = 0, uses_anonymous_args = 0
 319 0000 08B5     		push	{r3, lr}
 320              		.cfi_def_cfa_offset 8
 321              		.cfi_offset 3, -8
 322              		.cfi_offset 14, -4
ARM GAS  C:\Users\pxc\AppData\Local\Temp\ccWBOefJ.s 			page 10


 192:.\key.c       ****        debug("Callback_SWITCH_1_low_press_down");
 323              		.loc 1 192 0
 324 0002 0348     		ldr	r0, .L39
 325 0004 FFF7FEFF 		bl	UART_net_PutString
 326              	.LVL18:
 327 0008 0248     		ldr	r0, .L39+4
 328 000a FFF7FEFF 		bl	UART_net_PutString
 329              	.LVL19:
 330 000e 08BD     		pop	{r3, pc}
 331              	.L40:
 332              		.align	2
 333              	.L39:
 334 0010 84000000 		.word	.LC10
 335 0014 08000000 		.word	.LC1
 336              		.cfi_endproc
 337              	.LFE94:
 338              		.size	Callback_SWITCH_1_low_press_down, .-Callback_SWITCH_1_low_press_down
 339              		.section	.text.Callback_SWITCH_1_high_press_up,"ax",%progbits
 340              		.align	2
 341              		.global	Callback_SWITCH_1_high_press_up
 342              		.thumb
 343              		.thumb_func
 344              		.type	Callback_SWITCH_1_high_press_up, %function
 345              	Callback_SWITCH_1_high_press_up:
 346              	.LFB95:
 193:.\key.c       **** }
 194:.\key.c       **** void Callback_SWITCH_1_high_press_up()
 195:.\key.c       **** {
 347              		.loc 1 195 0
 348              		.cfi_startproc
 349              		@ args = 0, pretend = 0, frame = 0
 350              		@ frame_needed = 0, uses_anonymous_args = 0
 351 0000 08B5     		push	{r3, lr}
 352              		.cfi_def_cfa_offset 8
 353              		.cfi_offset 3, -8
 354              		.cfi_offset 14, -4
 196:.\key.c       ****     debug("Callback_SWITCH_1_high_press_up");
 355              		.loc 1 196 0
 356 0002 0348     		ldr	r0, .L43
 357 0004 FFF7FEFF 		bl	UART_net_PutString
 358              	.LVL20:
 359 0008 0248     		ldr	r0, .L43+4
 360 000a FFF7FEFF 		bl	UART_net_PutString
 361              	.LVL21:
 362 000e 08BD     		pop	{r3, pc}
 363              	.L44:
 364              		.align	2
 365              	.L43:
 366 0010 A8000000 		.word	.LC11
 367 0014 08000000 		.word	.LC1
 368              		.cfi_endproc
 369              	.LFE95:
 370              		.size	Callback_SWITCH_1_high_press_up, .-Callback_SWITCH_1_high_press_up
 371              		.section	.text.Callback_SWITCH_1_high_press_down,"ax",%progbits
 372              		.align	2
 373              		.global	Callback_SWITCH_1_high_press_down
 374              		.thumb
ARM GAS  C:\Users\pxc\AppData\Local\Temp\ccWBOefJ.s 			page 11


 375              		.thumb_func
 376              		.type	Callback_SWITCH_1_high_press_down, %function
 377              	Callback_SWITCH_1_high_press_down:
 378              	.LFB96:
 197:.\key.c       **** }
 198:.\key.c       **** void Callback_SWITCH_1_high_press_down()
 199:.\key.c       **** {
 379              		.loc 1 199 0
 380              		.cfi_startproc
 381              		@ args = 0, pretend = 0, frame = 0
 382              		@ frame_needed = 0, uses_anonymous_args = 0
 383 0000 08B5     		push	{r3, lr}
 384              		.cfi_def_cfa_offset 8
 385              		.cfi_offset 3, -8
 386              		.cfi_offset 14, -4
 200:.\key.c       ****     debug("Callback_SWITCH_1_high_press_down");
 387              		.loc 1 200 0
 388 0002 0348     		ldr	r0, .L47
 389 0004 FFF7FEFF 		bl	UART_net_PutString
 390              	.LVL22:
 391 0008 0248     		ldr	r0, .L47+4
 392 000a FFF7FEFF 		bl	UART_net_PutString
 393              	.LVL23:
 394 000e 08BD     		pop	{r3, pc}
 395              	.L48:
 396              		.align	2
 397              	.L47:
 398 0010 C8000000 		.word	.LC12
 399 0014 08000000 		.word	.LC1
 400              		.cfi_endproc
 401              	.LFE96:
 402              		.size	Callback_SWITCH_1_high_press_down, .-Callback_SWITCH_1_high_press_down
 403              		.section	.text.Callback_SWITCH_2_low_press_up,"ax",%progbits
 404              		.align	2
 405              		.global	Callback_SWITCH_2_low_press_up
 406              		.thumb
 407              		.thumb_func
 408              		.type	Callback_SWITCH_2_low_press_up, %function
 409              	Callback_SWITCH_2_low_press_up:
 410              	.LFB97:
 201:.\key.c       **** }    
 202:.\key.c       **** //SWITCH_2
 203:.\key.c       **** void Callback_SWITCH_2_low_press_up()
 204:.\key.c       **** {
 411              		.loc 1 204 0
 412              		.cfi_startproc
 413              		@ args = 0, pretend = 0, frame = 0
 414              		@ frame_needed = 0, uses_anonymous_args = 0
 415 0000 08B5     		push	{r3, lr}
 416              		.cfi_def_cfa_offset 8
 417              		.cfi_offset 3, -8
 418              		.cfi_offset 14, -4
 205:.\key.c       ****    debug("Callback_SWITCH_2_low_press_up");
 419              		.loc 1 205 0
 420 0002 0348     		ldr	r0, .L51
 421 0004 FFF7FEFF 		bl	UART_net_PutString
 422              	.LVL24:
ARM GAS  C:\Users\pxc\AppData\Local\Temp\ccWBOefJ.s 			page 12


 423 0008 0248     		ldr	r0, .L51+4
 424 000a FFF7FEFF 		bl	UART_net_PutString
 425              	.LVL25:
 426 000e 08BD     		pop	{r3, pc}
 427              	.L52:
 428              		.align	2
 429              	.L51:
 430 0010 EC000000 		.word	.LC13
 431 0014 08000000 		.word	.LC1
 432              		.cfi_endproc
 433              	.LFE97:
 434              		.size	Callback_SWITCH_2_low_press_up, .-Callback_SWITCH_2_low_press_up
 435              		.section	.text.Callback_SWITCH_2_low_press_down,"ax",%progbits
 436              		.align	2
 437              		.global	Callback_SWITCH_2_low_press_down
 438              		.thumb
 439              		.thumb_func
 440              		.type	Callback_SWITCH_2_low_press_down, %function
 441              	Callback_SWITCH_2_low_press_down:
 442              	.LFB98:
 206:.\key.c       **** }
 207:.\key.c       **** void Callback_SWITCH_2_low_press_down()
 208:.\key.c       **** {
 443              		.loc 1 208 0
 444              		.cfi_startproc
 445              		@ args = 0, pretend = 0, frame = 0
 446              		@ frame_needed = 0, uses_anonymous_args = 0
 447 0000 08B5     		push	{r3, lr}
 448              		.cfi_def_cfa_offset 8
 449              		.cfi_offset 3, -8
 450              		.cfi_offset 14, -4
 209:.\key.c       ****     debug("Callback_SWITCH_2_low_press_down");
 451              		.loc 1 209 0
 452 0002 0348     		ldr	r0, .L55
 453 0004 FFF7FEFF 		bl	UART_net_PutString
 454              	.LVL26:
 455 0008 0248     		ldr	r0, .L55+4
 456 000a FFF7FEFF 		bl	UART_net_PutString
 457              	.LVL27:
 458 000e 08BD     		pop	{r3, pc}
 459              	.L56:
 460              		.align	2
 461              	.L55:
 462 0010 0C010000 		.word	.LC14
 463 0014 08000000 		.word	.LC1
 464              		.cfi_endproc
 465              	.LFE98:
 466              		.size	Callback_SWITCH_2_low_press_down, .-Callback_SWITCH_2_low_press_down
 467              		.section	.text.Callback_SWITCH_2_high_press_up,"ax",%progbits
 468              		.align	2
 469              		.global	Callback_SWITCH_2_high_press_up
 470              		.thumb
 471              		.thumb_func
 472              		.type	Callback_SWITCH_2_high_press_up, %function
 473              	Callback_SWITCH_2_high_press_up:
 474              	.LFB99:
 210:.\key.c       **** }
ARM GAS  C:\Users\pxc\AppData\Local\Temp\ccWBOefJ.s 			page 13


 211:.\key.c       **** void Callback_SWITCH_2_high_press_up()
 212:.\key.c       **** {
 475              		.loc 1 212 0
 476              		.cfi_startproc
 477              		@ args = 0, pretend = 0, frame = 0
 478              		@ frame_needed = 0, uses_anonymous_args = 0
 479 0000 08B5     		push	{r3, lr}
 480              		.cfi_def_cfa_offset 8
 481              		.cfi_offset 3, -8
 482              		.cfi_offset 14, -4
 213:.\key.c       ****     debug("Callback_SWITCH_2_high_press_up");
 483              		.loc 1 213 0
 484 0002 0348     		ldr	r0, .L59
 485 0004 FFF7FEFF 		bl	UART_net_PutString
 486              	.LVL28:
 487 0008 0248     		ldr	r0, .L59+4
 488 000a FFF7FEFF 		bl	UART_net_PutString
 489              	.LVL29:
 490 000e 08BD     		pop	{r3, pc}
 491              	.L60:
 492              		.align	2
 493              	.L59:
 494 0010 30010000 		.word	.LC15
 495 0014 08000000 		.word	.LC1
 496              		.cfi_endproc
 497              	.LFE99:
 498              		.size	Callback_SWITCH_2_high_press_up, .-Callback_SWITCH_2_high_press_up
 499              		.section	.text.Callback_SWITCH_2_high_press_down,"ax",%progbits
 500              		.align	2
 501              		.global	Callback_SWITCH_2_high_press_down
 502              		.thumb
 503              		.thumb_func
 504              		.type	Callback_SWITCH_2_high_press_down, %function
 505              	Callback_SWITCH_2_high_press_down:
 506              	.LFB100:
 214:.\key.c       **** }
 215:.\key.c       **** void Callback_SWITCH_2_high_press_down()
 216:.\key.c       **** {
 507              		.loc 1 216 0
 508              		.cfi_startproc
 509              		@ args = 0, pretend = 0, frame = 0
 510              		@ frame_needed = 0, uses_anonymous_args = 0
 511 0000 08B5     		push	{r3, lr}
 512              		.cfi_def_cfa_offset 8
 513              		.cfi_offset 3, -8
 514              		.cfi_offset 14, -4
 217:.\key.c       ****    debug("Callback_SWITCH_2_high_press_down");
 515              		.loc 1 217 0
 516 0002 0348     		ldr	r0, .L63
 517 0004 FFF7FEFF 		bl	UART_net_PutString
 518              	.LVL30:
 519 0008 0248     		ldr	r0, .L63+4
 520 000a FFF7FEFF 		bl	UART_net_PutString
 521              	.LVL31:
 522 000e 08BD     		pop	{r3, pc}
 523              	.L64:
 524              		.align	2
ARM GAS  C:\Users\pxc\AppData\Local\Temp\ccWBOefJ.s 			page 14


 525              	.L63:
 526 0010 50010000 		.word	.LC16
 527 0014 08000000 		.word	.LC1
 528              		.cfi_endproc
 529              	.LFE100:
 530              		.size	Callback_SWITCH_2_high_press_down, .-Callback_SWITCH_2_high_press_down
 531              		.section	.text.Callback_key_up_press_up,"ax",%progbits
 532              		.align	2
 533              		.global	Callback_key_up_press_up
 534              		.thumb
 535              		.thumb_func
 536              		.type	Callback_key_up_press_up, %function
 537              	Callback_key_up_press_up:
 538              	.LFB63:
  49:.\key.c       ****    DT_Send_Status(STOP);
 539              		.loc 1 49 0
 540              		.cfi_startproc
 541              		@ args = 0, pretend = 0, frame = 0
 542              		@ frame_needed = 0, uses_anonymous_args = 0
 543 0000 08B5     		push	{r3, lr}
 544              		.cfi_def_cfa_offset 8
 545              		.cfi_offset 3, -8
 546              		.cfi_offset 14, -4
  50:.\key.c       **** }
 547              		.loc 1 50 0
 548 0002 0820     		movs	r0, #8
 549 0004 FFF7FEFF 		bl	DT_Send_Status
 550              	.LVL32:
 551 0008 08BD     		pop	{r3, pc}
 552              		.cfi_endproc
 553              	.LFE63:
 554              		.size	Callback_key_up_press_up, .-Callback_key_up_press_up
 555 000a 00BF     		.section	.text.Callback_key_up_press_down,"ax",%progbits
 556              		.align	2
 557              		.global	Callback_key_up_press_down
 558              		.thumb
 559              		.thumb_func
 560              		.type	Callback_key_up_press_down, %function
 561              	Callback_key_up_press_down:
 562              	.LFB64:
  53:.\key.c       ****    DT_Send_Status(DOWN);
 563              		.loc 1 53 0
 564              		.cfi_startproc
 565              		@ args = 0, pretend = 0, frame = 0
 566              		@ frame_needed = 0, uses_anonymous_args = 0
 567 0000 08B5     		push	{r3, lr}
 568              		.cfi_def_cfa_offset 8
 569              		.cfi_offset 3, -8
 570              		.cfi_offset 14, -4
  54:.\key.c       **** }
 571              		.loc 1 54 0
 572 0002 0120     		movs	r0, #1
 573 0004 FFF7FEFF 		bl	DT_Send_Status
 574              	.LVL33:
 575 0008 08BD     		pop	{r3, pc}
 576              		.cfi_endproc
 577              	.LFE64:
ARM GAS  C:\Users\pxc\AppData\Local\Temp\ccWBOefJ.s 			page 15


 578              		.size	Callback_key_up_press_down, .-Callback_key_up_press_down
 579 000a 00BF     		.section	.text.Callback_key_down_press_up,"ax",%progbits
 580              		.align	2
 581              		.global	Callback_key_down_press_up
 582              		.thumb
 583              		.thumb_func
 584              		.type	Callback_key_down_press_up, %function
 585              	Callback_key_down_press_up:
 586              	.LFB65:
  58:.\key.c       ****   DT_Send_Status(STOP);
 587              		.loc 1 58 0
 588              		.cfi_startproc
 589              		@ args = 0, pretend = 0, frame = 0
 590              		@ frame_needed = 0, uses_anonymous_args = 0
 591 0000 08B5     		push	{r3, lr}
 592              		.cfi_def_cfa_offset 8
 593              		.cfi_offset 3, -8
 594              		.cfi_offset 14, -4
  59:.\key.c       **** }
 595              		.loc 1 59 0
 596 0002 0820     		movs	r0, #8
 597 0004 FFF7FEFF 		bl	DT_Send_Status
 598              	.LVL34:
 599 0008 08BD     		pop	{r3, pc}
 600              		.cfi_endproc
 601              	.LFE65:
 602              		.size	Callback_key_down_press_up, .-Callback_key_down_press_up
 603 000a 00BF     		.section	.text.Callback_key_down_press_down,"ax",%progbits
 604              		.align	2
 605              		.global	Callback_key_down_press_down
 606              		.thumb
 607              		.thumb_func
 608              		.type	Callback_key_down_press_down, %function
 609              	Callback_key_down_press_down:
 610              	.LFB66:
  62:.\key.c       ****     DT_Send_Status(UP);
 611              		.loc 1 62 0
 612              		.cfi_startproc
 613              		@ args = 0, pretend = 0, frame = 0
 614              		@ frame_needed = 0, uses_anonymous_args = 0
 615 0000 08B5     		push	{r3, lr}
 616              		.cfi_def_cfa_offset 8
 617              		.cfi_offset 3, -8
 618              		.cfi_offset 14, -4
  63:.\key.c       **** }
 619              		.loc 1 63 0
 620 0002 0020     		movs	r0, #0
 621 0004 FFF7FEFF 		bl	DT_Send_Status
 622              	.LVL35:
 623 0008 08BD     		pop	{r3, pc}
 624              		.cfi_endproc
 625              	.LFE66:
 626              		.size	Callback_key_down_press_down, .-Callback_key_down_press_down
 627 000a 00BF     		.section	.text.Callback_key_left_press_up,"ax",%progbits
 628              		.align	2
 629              		.global	Callback_key_left_press_up
 630              		.thumb
ARM GAS  C:\Users\pxc\AppData\Local\Temp\ccWBOefJ.s 			page 16


 631              		.thumb_func
 632              		.type	Callback_key_left_press_up, %function
 633              	Callback_key_left_press_up:
 634              	.LFB67:
  68:.\key.c       ****    DT_Send_Status(STOP);
 635              		.loc 1 68 0
 636              		.cfi_startproc
 637              		@ args = 0, pretend = 0, frame = 0
 638              		@ frame_needed = 0, uses_anonymous_args = 0
 639 0000 08B5     		push	{r3, lr}
 640              		.cfi_def_cfa_offset 8
 641              		.cfi_offset 3, -8
 642              		.cfi_offset 14, -4
  69:.\key.c       **** }
 643              		.loc 1 69 0
 644 0002 0820     		movs	r0, #8
 645 0004 FFF7FEFF 		bl	DT_Send_Status
 646              	.LVL36:
 647 0008 08BD     		pop	{r3, pc}
 648              		.cfi_endproc
 649              	.LFE67:
 650              		.size	Callback_key_left_press_up, .-Callback_key_left_press_up
 651 000a 00BF     		.section	.text.Callback_key_left_press_down,"ax",%progbits
 652              		.align	2
 653              		.global	Callback_key_left_press_down
 654              		.thumb
 655              		.thumb_func
 656              		.type	Callback_key_left_press_down, %function
 657              	Callback_key_left_press_down:
 658              	.LFB68:
  72:.\key.c       ****     DT_Send_Status(LEFT); 
 659              		.loc 1 72 0
 660              		.cfi_startproc
 661              		@ args = 0, pretend = 0, frame = 0
 662              		@ frame_needed = 0, uses_anonymous_args = 0
 663 0000 08B5     		push	{r3, lr}
 664              		.cfi_def_cfa_offset 8
 665              		.cfi_offset 3, -8
 666              		.cfi_offset 14, -4
  73:.\key.c       **** }
 667              		.loc 1 73 0
 668 0002 0220     		movs	r0, #2
 669 0004 FFF7FEFF 		bl	DT_Send_Status
 670              	.LVL37:
 671 0008 08BD     		pop	{r3, pc}
 672              		.cfi_endproc
 673              	.LFE68:
 674              		.size	Callback_key_left_press_down, .-Callback_key_left_press_down
 675 000a 00BF     		.section	.text.Callback_key_right_press_up,"ax",%progbits
 676              		.align	2
 677              		.global	Callback_key_right_press_up
 678              		.thumb
 679              		.thumb_func
 680              		.type	Callback_key_right_press_up, %function
 681              	Callback_key_right_press_up:
 682              	.LFB69:
  77:.\key.c       ****    DT_Send_Status(STOP);
ARM GAS  C:\Users\pxc\AppData\Local\Temp\ccWBOefJ.s 			page 17


 683              		.loc 1 77 0
 684              		.cfi_startproc
 685              		@ args = 0, pretend = 0, frame = 0
 686              		@ frame_needed = 0, uses_anonymous_args = 0
 687 0000 08B5     		push	{r3, lr}
 688              		.cfi_def_cfa_offset 8
 689              		.cfi_offset 3, -8
 690              		.cfi_offset 14, -4
  78:.\key.c       **** }
 691              		.loc 1 78 0
 692 0002 0820     		movs	r0, #8
 693 0004 FFF7FEFF 		bl	DT_Send_Status
 694              	.LVL38:
 695 0008 08BD     		pop	{r3, pc}
 696              		.cfi_endproc
 697              	.LFE69:
 698              		.size	Callback_key_right_press_up, .-Callback_key_right_press_up
 699 000a 00BF     		.section	.text.Callback_key_right_press_down,"ax",%progbits
 700              		.align	2
 701              		.global	Callback_key_right_press_down
 702              		.thumb
 703              		.thumb_func
 704              		.type	Callback_key_right_press_down, %function
 705              	Callback_key_right_press_down:
 706              	.LFB70:
  81:.\key.c       ****     DT_Send_Status(RIGHT); 
 707              		.loc 1 81 0
 708              		.cfi_startproc
 709              		@ args = 0, pretend = 0, frame = 0
 710              		@ frame_needed = 0, uses_anonymous_args = 0
 711 0000 08B5     		push	{r3, lr}
 712              		.cfi_def_cfa_offset 8
 713              		.cfi_offset 3, -8
 714              		.cfi_offset 14, -4
  82:.\key.c       **** }
 715              		.loc 1 82 0
 716 0002 0320     		movs	r0, #3
 717 0004 FFF7FEFF 		bl	DT_Send_Status
 718              	.LVL39:
 719 0008 08BD     		pop	{r3, pc}
 720              		.cfi_endproc
 721              	.LFE70:
 722              		.size	Callback_key_right_press_down, .-Callback_key_right_press_down
 723 000a 00BF     		.section	.text.Callback_PTZ_up_press_up,"ax",%progbits
 724              		.align	2
 725              		.global	Callback_PTZ_up_press_up
 726              		.thumb
 727              		.thumb_func
 728              		.type	Callback_PTZ_up_press_up, %function
 729              	Callback_PTZ_up_press_up:
 730              	.LFB71:
  87:.\key.c       ****    DT_Send_Command_Ptz(STOP);
 731              		.loc 1 87 0
 732              		.cfi_startproc
 733              		@ args = 0, pretend = 0, frame = 0
 734              		@ frame_needed = 0, uses_anonymous_args = 0
 735 0000 08B5     		push	{r3, lr}
ARM GAS  C:\Users\pxc\AppData\Local\Temp\ccWBOefJ.s 			page 18


 736              		.cfi_def_cfa_offset 8
 737              		.cfi_offset 3, -8
 738              		.cfi_offset 14, -4
  88:.\key.c       **** }
 739              		.loc 1 88 0
 740 0002 0820     		movs	r0, #8
 741 0004 FFF7FEFF 		bl	DT_Send_Command_Ptz
 742              	.LVL40:
 743 0008 08BD     		pop	{r3, pc}
 744              		.cfi_endproc
 745              	.LFE71:
 746              		.size	Callback_PTZ_up_press_up, .-Callback_PTZ_up_press_up
 747 000a 00BF     		.section	.text.Callback_PTZ_up_press_down,"ax",%progbits
 748              		.align	2
 749              		.global	Callback_PTZ_up_press_down
 750              		.thumb
 751              		.thumb_func
 752              		.type	Callback_PTZ_up_press_down, %function
 753              	Callback_PTZ_up_press_down:
 754              	.LFB72:
  91:.\key.c       ****    DT_Send_Command_Ptz(RIGHT);
 755              		.loc 1 91 0
 756              		.cfi_startproc
 757              		@ args = 0, pretend = 0, frame = 0
 758              		@ frame_needed = 0, uses_anonymous_args = 0
 759 0000 08B5     		push	{r3, lr}
 760              		.cfi_def_cfa_offset 8
 761              		.cfi_offset 3, -8
 762              		.cfi_offset 14, -4
  92:.\key.c       **** }
 763              		.loc 1 92 0
 764 0002 0320     		movs	r0, #3
 765 0004 FFF7FEFF 		bl	DT_Send_Command_Ptz
 766              	.LVL41:
 767 0008 08BD     		pop	{r3, pc}
 768              		.cfi_endproc
 769              	.LFE72:
 770              		.size	Callback_PTZ_up_press_down, .-Callback_PTZ_up_press_down
 771 000a 00BF     		.section	.text.Callback_PTZ_down_press_up,"ax",%progbits
 772              		.align	2
 773              		.global	Callback_PTZ_down_press_up
 774              		.thumb
 775              		.thumb_func
 776              		.type	Callback_PTZ_down_press_up, %function
 777              	Callback_PTZ_down_press_up:
 778              	.LFB73:
  96:.\key.c       ****   DT_Send_Command_Ptz(STOP);
 779              		.loc 1 96 0
 780              		.cfi_startproc
 781              		@ args = 0, pretend = 0, frame = 0
 782              		@ frame_needed = 0, uses_anonymous_args = 0
 783 0000 08B5     		push	{r3, lr}
 784              		.cfi_def_cfa_offset 8
 785              		.cfi_offset 3, -8
 786              		.cfi_offset 14, -4
  97:.\key.c       **** }
 787              		.loc 1 97 0
ARM GAS  C:\Users\pxc\AppData\Local\Temp\ccWBOefJ.s 			page 19


 788 0002 0820     		movs	r0, #8
 789 0004 FFF7FEFF 		bl	DT_Send_Command_Ptz
 790              	.LVL42:
 791 0008 08BD     		pop	{r3, pc}
 792              		.cfi_endproc
 793              	.LFE73:
 794              		.size	Callback_PTZ_down_press_up, .-Callback_PTZ_down_press_up
 795 000a 00BF     		.section	.text.Callback_PTZ_down_press_down,"ax",%progbits
 796              		.align	2
 797              		.global	Callback_PTZ_down_press_down
 798              		.thumb
 799              		.thumb_func
 800              		.type	Callback_PTZ_down_press_down, %function
 801              	Callback_PTZ_down_press_down:
 802              	.LFB74:
 100:.\key.c       ****     DT_Send_Command_Ptz(DOWN);
 803              		.loc 1 100 0
 804              		.cfi_startproc
 805              		@ args = 0, pretend = 0, frame = 0
 806              		@ frame_needed = 0, uses_anonymous_args = 0
 807 0000 08B5     		push	{r3, lr}
 808              		.cfi_def_cfa_offset 8
 809              		.cfi_offset 3, -8
 810              		.cfi_offset 14, -4
 101:.\key.c       **** }
 811              		.loc 1 101 0
 812 0002 0120     		movs	r0, #1
 813 0004 FFF7FEFF 		bl	DT_Send_Command_Ptz
 814              	.LVL43:
 815 0008 08BD     		pop	{r3, pc}
 816              		.cfi_endproc
 817              	.LFE74:
 818              		.size	Callback_PTZ_down_press_down, .-Callback_PTZ_down_press_down
 819 000a 00BF     		.section	.text.Callback_PTZ_left_press_up,"ax",%progbits
 820              		.align	2
 821              		.global	Callback_PTZ_left_press_up
 822              		.thumb
 823              		.thumb_func
 824              		.type	Callback_PTZ_left_press_up, %function
 825              	Callback_PTZ_left_press_up:
 826              	.LFB75:
 106:.\key.c       ****    DT_Send_Command_Ptz(STOP);
 827              		.loc 1 106 0
 828              		.cfi_startproc
 829              		@ args = 0, pretend = 0, frame = 0
 830              		@ frame_needed = 0, uses_anonymous_args = 0
 831 0000 08B5     		push	{r3, lr}
 832              		.cfi_def_cfa_offset 8
 833              		.cfi_offset 3, -8
 834              		.cfi_offset 14, -4
 107:.\key.c       **** }
 835              		.loc 1 107 0
 836 0002 0820     		movs	r0, #8
 837 0004 FFF7FEFF 		bl	DT_Send_Command_Ptz
 838              	.LVL44:
 839 0008 08BD     		pop	{r3, pc}
 840              		.cfi_endproc
ARM GAS  C:\Users\pxc\AppData\Local\Temp\ccWBOefJ.s 			page 20


 841              	.LFE75:
 842              		.size	Callback_PTZ_left_press_up, .-Callback_PTZ_left_press_up
 843 000a 00BF     		.section	.text.Callback_PTZ_left_press_down,"ax",%progbits
 844              		.align	2
 845              		.global	Callback_PTZ_left_press_down
 846              		.thumb
 847              		.thumb_func
 848              		.type	Callback_PTZ_left_press_down, %function
 849              	Callback_PTZ_left_press_down:
 850              	.LFB76:
 110:.\key.c       ****     DT_Send_Command_Ptz(LEFT); 
 851              		.loc 1 110 0
 852              		.cfi_startproc
 853              		@ args = 0, pretend = 0, frame = 0
 854              		@ frame_needed = 0, uses_anonymous_args = 0
 855 0000 08B5     		push	{r3, lr}
 856              		.cfi_def_cfa_offset 8
 857              		.cfi_offset 3, -8
 858              		.cfi_offset 14, -4
 111:.\key.c       **** }
 859              		.loc 1 111 0
 860 0002 0220     		movs	r0, #2
 861 0004 FFF7FEFF 		bl	DT_Send_Command_Ptz
 862              	.LVL45:
 863 0008 08BD     		pop	{r3, pc}
 864              		.cfi_endproc
 865              	.LFE76:
 866              		.size	Callback_PTZ_left_press_down, .-Callback_PTZ_left_press_down
 867 000a 00BF     		.section	.text.Callback_PTZ_right_press_up,"ax",%progbits
 868              		.align	2
 869              		.global	Callback_PTZ_right_press_up
 870              		.thumb
 871              		.thumb_func
 872              		.type	Callback_PTZ_right_press_up, %function
 873              	Callback_PTZ_right_press_up:
 874              	.LFB77:
 115:.\key.c       ****    DT_Send_Command_Ptz(STOP);
 875              		.loc 1 115 0
 876              		.cfi_startproc
 877              		@ args = 0, pretend = 0, frame = 0
 878              		@ frame_needed = 0, uses_anonymous_args = 0
 879 0000 08B5     		push	{r3, lr}
 880              		.cfi_def_cfa_offset 8
 881              		.cfi_offset 3, -8
 882              		.cfi_offset 14, -4
 116:.\key.c       **** }
 883              		.loc 1 116 0
 884 0002 0820     		movs	r0, #8
 885 0004 FFF7FEFF 		bl	DT_Send_Command_Ptz
 886              	.LVL46:
 887 0008 08BD     		pop	{r3, pc}
 888              		.cfi_endproc
 889              	.LFE77:
 890              		.size	Callback_PTZ_right_press_up, .-Callback_PTZ_right_press_up
 891 000a 00BF     		.section	.text.Callback_PTZ_right_press_down,"ax",%progbits
 892              		.align	2
 893              		.global	Callback_PTZ_right_press_down
ARM GAS  C:\Users\pxc\AppData\Local\Temp\ccWBOefJ.s 			page 21


 894              		.thumb
 895              		.thumb_func
 896              		.type	Callback_PTZ_right_press_down, %function
 897              	Callback_PTZ_right_press_down:
 898              	.LFB78:
 119:.\key.c       ****     DT_Send_Command_Ptz(UP); 
 899              		.loc 1 119 0
 900              		.cfi_startproc
 901              		@ args = 0, pretend = 0, frame = 0
 902              		@ frame_needed = 0, uses_anonymous_args = 0
 903 0000 08B5     		push	{r3, lr}
 904              		.cfi_def_cfa_offset 8
 905              		.cfi_offset 3, -8
 906              		.cfi_offset 14, -4
 120:.\key.c       **** }
 907              		.loc 1 120 0
 908 0002 0020     		movs	r0, #0
 909 0004 FFF7FEFF 		bl	DT_Send_Command_Ptz
 910              	.LVL47:
 911 0008 08BD     		pop	{r3, pc}
 912              		.cfi_endproc
 913              	.LFE78:
 914              		.size	Callback_PTZ_right_press_down, .-Callback_PTZ_right_press_down
 915 000a 00BF     		.section	.text.Callback_key_speed_low_press_up,"ax",%progbits
 916              		.align	2
 917              		.global	Callback_key_speed_low_press_up
 918              		.thumb
 919              		.thumb_func
 920              		.type	Callback_key_speed_low_press_up, %function
 921              	Callback_key_speed_low_press_up:
 922              	.LFB79:
 125:.\key.c       ****     DT_Send_Command_Speed(15000);
 923              		.loc 1 125 0
 924              		.cfi_startproc
 925              		@ args = 0, pretend = 0, frame = 0
 926              		@ frame_needed = 0, uses_anonymous_args = 0
 927 0000 08B5     		push	{r3, lr}
 928              		.cfi_def_cfa_offset 8
 929              		.cfi_offset 3, -8
 930              		.cfi_offset 14, -4
 126:.\key.c       **** }
 931              		.loc 1 126 0
 932 0002 43F69820 		movw	r0, #15000
 933 0006 FFF7FEFF 		bl	DT_Send_Command_Speed
 934              	.LVL48:
 935 000a 08BD     		pop	{r3, pc}
 936              		.cfi_endproc
 937              	.LFE79:
 938              		.size	Callback_key_speed_low_press_up, .-Callback_key_speed_low_press_up
 939              		.section	.text.Callback_key_speed_low_press_down,"ax",%progbits
 940              		.align	2
 941              		.global	Callback_key_speed_low_press_down
 942              		.thumb
 943              		.thumb_func
 944              		.type	Callback_key_speed_low_press_down, %function
 945              	Callback_key_speed_low_press_down:
 946              	.LFB80:
ARM GAS  C:\Users\pxc\AppData\Local\Temp\ccWBOefJ.s 			page 22


 129:.\key.c       ****     DT_Send_Command_Speed(20000);
 947              		.loc 1 129 0
 948              		.cfi_startproc
 949              		@ args = 0, pretend = 0, frame = 0
 950              		@ frame_needed = 0, uses_anonymous_args = 0
 951 0000 08B5     		push	{r3, lr}
 952              		.cfi_def_cfa_offset 8
 953              		.cfi_offset 3, -8
 954              		.cfi_offset 14, -4
 130:.\key.c       **** }
 955              		.loc 1 130 0
 956 0002 44F62060 		movw	r0, #20000
 957 0006 FFF7FEFF 		bl	DT_Send_Command_Speed
 958              	.LVL49:
 959 000a 08BD     		pop	{r3, pc}
 960              		.cfi_endproc
 961              	.LFE80:
 962              		.size	Callback_key_speed_low_press_down, .-Callback_key_speed_low_press_down
 963              		.section	.text.Callback_key_speed_high_press_up,"ax",%progbits
 964              		.align	2
 965              		.global	Callback_key_speed_high_press_up
 966              		.thumb
 967              		.thumb_func
 968              		.type	Callback_key_speed_high_press_up, %function
 969              	Callback_key_speed_high_press_up:
 970              	.LFB81:
 133:.\key.c       ****      DT_Send_Command_Speed(15000);
 971              		.loc 1 133 0
 972              		.cfi_startproc
 973              		@ args = 0, pretend = 0, frame = 0
 974              		@ frame_needed = 0, uses_anonymous_args = 0
 975 0000 08B5     		push	{r3, lr}
 976              		.cfi_def_cfa_offset 8
 977              		.cfi_offset 3, -8
 978              		.cfi_offset 14, -4
 134:.\key.c       **** }
 979              		.loc 1 134 0
 980 0002 43F69820 		movw	r0, #15000
 981 0006 FFF7FEFF 		bl	DT_Send_Command_Speed
 982              	.LVL50:
 983 000a 08BD     		pop	{r3, pc}
 984              		.cfi_endproc
 985              	.LFE81:
 986              		.size	Callback_key_speed_high_press_up, .-Callback_key_speed_high_press_up
 987              		.section	.text.Callback_key_speed_high_press_down,"ax",%progbits
 988              		.align	2
 989              		.global	Callback_key_speed_high_press_down
 990              		.thumb
 991              		.thumb_func
 992              		.type	Callback_key_speed_high_press_down, %function
 993              	Callback_key_speed_high_press_down:
 994              	.LFB82:
 137:.\key.c       ****      DT_Send_Command_Speed(10000);
 995              		.loc 1 137 0
 996              		.cfi_startproc
 997              		@ args = 0, pretend = 0, frame = 0
 998              		@ frame_needed = 0, uses_anonymous_args = 0
ARM GAS  C:\Users\pxc\AppData\Local\Temp\ccWBOefJ.s 			page 23


 999 0000 08B5     		push	{r3, lr}
 1000              		.cfi_def_cfa_offset 8
 1001              		.cfi_offset 3, -8
 1002              		.cfi_offset 14, -4
 138:.\key.c       **** }
 1003              		.loc 1 138 0
 1004 0002 42F21070 		movw	r0, #10000
 1005 0006 FFF7FEFF 		bl	DT_Send_Command_Speed
 1006              	.LVL51:
 1007 000a 08BD     		pop	{r3, pc}
 1008              		.cfi_endproc
 1009              	.LFE82:
 1010              		.size	Callback_key_speed_high_press_down, .-Callback_key_speed_high_press_down
 1011              		.section	.text.Callback_led_start_press_up,"ax",%progbits
 1012              		.align	2
 1013              		.global	Callback_led_start_press_up
 1014              		.thumb
 1015              		.thumb_func
 1016              		.type	Callback_led_start_press_up, %function
 1017              	Callback_led_start_press_up:
 1018              	.LFB83:
 143:.\key.c       ****   DT_Send_Command_Turn(0); 
 1019              		.loc 1 143 0
 1020              		.cfi_startproc
 1021              		@ args = 0, pretend = 0, frame = 0
 1022              		@ frame_needed = 0, uses_anonymous_args = 0
 1023 0000 08B5     		push	{r3, lr}
 1024              		.cfi_def_cfa_offset 8
 1025              		.cfi_offset 3, -8
 1026              		.cfi_offset 14, -4
 144:.\key.c       **** }
 1027              		.loc 1 144 0
 1028 0002 0020     		movs	r0, #0
 1029 0004 FFF7FEFF 		bl	DT_Send_Command_Turn
 1030              	.LVL52:
 1031 0008 08BD     		pop	{r3, pc}
 1032              		.cfi_endproc
 1033              	.LFE83:
 1034              		.size	Callback_led_start_press_up, .-Callback_led_start_press_up
 1035 000a 00BF     		.section	.text.Callback_led_start_press_down,"ax",%progbits
 1036              		.align	2
 1037              		.global	Callback_led_start_press_down
 1038              		.thumb
 1039              		.thumb_func
 1040              		.type	Callback_led_start_press_down, %function
 1041              	Callback_led_start_press_down:
 1042              	.LFB84:
 147:.\key.c       ****   DT_Send_Command_Turn(2); 
 1043              		.loc 1 147 0
 1044              		.cfi_startproc
 1045              		@ args = 0, pretend = 0, frame = 0
 1046              		@ frame_needed = 0, uses_anonymous_args = 0
 1047 0000 08B5     		push	{r3, lr}
 1048              		.cfi_def_cfa_offset 8
 1049              		.cfi_offset 3, -8
 1050              		.cfi_offset 14, -4
 148:.\key.c       **** }
ARM GAS  C:\Users\pxc\AppData\Local\Temp\ccWBOefJ.s 			page 24


 1051              		.loc 1 148 0
 1052 0002 0220     		movs	r0, #2
 1053 0004 FFF7FEFF 		bl	DT_Send_Command_Turn
 1054              	.LVL53:
 1055 0008 08BD     		pop	{r3, pc}
 1056              		.cfi_endproc
 1057              	.LFE84:
 1058              		.size	Callback_led_start_press_down, .-Callback_led_start_press_down
 1059 000a 00BF     		.section	.text.button_init,"ax",%progbits
 1060              		.align	2
 1061              		.global	button_init
 1062              		.thumb
 1063              		.thumb_func
 1064              		.type	button_init, %function
 1065              	button_init:
 1066              	.LFB102:
 218:.\key.c       **** }
 219:.\key.c       **** void init_button(void)
 220:.\key.c       **** {
 221:.\key.c       **** 
 222:.\key.c       ****   //2个预留开关
 223:.\key.c       ****     button_init   (&STR1, STR1_Read, 0);
 224:.\key.c       ****     button_attach (&STR1, PRESS_UP, Callback_STR1_press_up);
 225:.\key.c       ****     button_start  (&STR1);
 226:.\key.c       ****     button_init   (&STR1, STR1_Read, 0);
 227:.\key.c       ****     button_attach (&STR1, PRESS_DOWN, Callback_STR1_down);
 228:.\key.c       ****     button_start  (&STR1);
 229:.\key.c       ****     button_init   (&STR2, STR2_Read, 0);
 230:.\key.c       ****     button_attach (&STR2, PRESS_UP, Callback_STR2_press_up);
 231:.\key.c       ****     button_start  (&STR2);
 232:.\key.c       ****     button_init  (&STR2, STR2_Read, 0);
 233:.\key.c       ****     button_attach (&STR2, PRESS_DOWN, Callback_STR2_press_down);
 234:.\key.c       ****     button_start  (&STR2);
 235:.\key.c       ****  ///测厚仪3段式开关MSR
 236:.\key.c       ****     
 237:.\key.c       ****     button_init  (&MSR_low, MSR_LOW_Read, 0);
 238:.\key.c       ****     button_attach(&MSR_low, PRESS_UP, Callback_MSR_low_press_up);
 239:.\key.c       ****     button_start (&MSR_low);
 240:.\key.c       ****     button_init  (&MSR_low, MSR_LOW_Read, 0);
 241:.\key.c       ****     button_attach(&MSR_low, PRESS_DOWN, Callback_MSR_low_press_down);
 242:.\key.c       ****     button_start (&MSR_low);
 243:.\key.c       ****     button_init  (&MSR_high, MSR_HIGH_Read, 0);
 244:.\key.c       ****     button_attach(&MSR_high, PRESS_UP, Callback_MSR_high_press_up);
 245:.\key.c       ****     button_start (&MSR_high);
 246:.\key.c       ****      button_init  (&MSR_high, MSR_HIGH_Read, 0);
 247:.\key.c       ****     button_attach(&MSR_high, PRESS_DOWN, Callback_MSR_high_press_down);
 248:.\key.c       ****     button_start (&MSR_high);
 249:.\key.c       ****     
 250:.\key.c       ****     
 251:.\key.c       ****     
 252:.\key.c       **** //SWITCH_1
 253:.\key.c       ****     button_init  (&SWITCH_1_low, SWITCH_1_LOW_Read, 0);
 254:.\key.c       ****     button_attach(&SWITCH_1_low, PRESS_UP, Callback_SWITCH_1_low_press_up);
 255:.\key.c       ****     button_start (&SWITCH_1_low);
 256:.\key.c       ****     button_init  (&SWITCH_1_low, SWITCH_1_LOW_Read, 0);
 257:.\key.c       ****     button_attach(&SWITCH_1_low, PRESS_DOWN, Callback_SWITCH_1_low_press_down);
 258:.\key.c       ****     button_start (&SWITCH_1_low);
ARM GAS  C:\Users\pxc\AppData\Local\Temp\ccWBOefJ.s 			page 25


 259:.\key.c       ****     
 260:.\key.c       ****     button_init  (&SWITCH_1_high, SWITCH_1_HIGH_Read, 0);
 261:.\key.c       ****     button_attach(&SWITCH_1_high, PRESS_UP, Callback_SWITCH_1_high_press_up);
 262:.\key.c       ****     button_start (&SWITCH_1_high);
 263:.\key.c       ****     button_init  (&SWITCH_1_high, SWITCH_1_HIGH_Read, 0);
 264:.\key.c       ****     button_attach(&SWITCH_1_high, PRESS_DOWN, Callback_SWITCH_1_high_press_down);
 265:.\key.c       ****     button_start (&SWITCH_1_high);
 266:.\key.c       **** //SWITCH_2
 267:.\key.c       ****     button_init  (&SWITCH_2_low, SWITCH_2_LOW_Read, 0);
 268:.\key.c       ****     button_attach(&SWITCH_2_low, PRESS_UP, Callback_SWITCH_2_low_press_up);
 269:.\key.c       ****     button_start (&SWITCH_2_low);
 270:.\key.c       ****     button_init  (&SWITCH_2_low, SWITCH_2_LOW_Read, 0);
 271:.\key.c       ****     button_attach(&SWITCH_2_low, PRESS_DOWN, Callback_SWITCH_2_low_press_down);
 272:.\key.c       ****     button_start (&SWITCH_2_low);
 273:.\key.c       ****     
 274:.\key.c       ****     button_init  (&SWITCH_2_high, SWITCH_2_HIGH_Read, 0);
 275:.\key.c       ****     button_attach(&SWITCH_2_high, PRESS_UP, Callback_SWITCH_2_high_press_up);
 276:.\key.c       ****     button_start (&SWITCH_2_high);
 277:.\key.c       ****     button_init  (&SWITCH_2_high, SWITCH_2_HIGH_Read, 0);
 278:.\key.c       ****     button_attach(&SWITCH_2_high, PRESS_DOWN, Callback_SWITCH_2_high_press_down);
 279:.\key.c       ****     button_start (&SWITCH_2_high);    
 280:.\key.c       ****     ////1
 281:.\key.c       **** //    if(LED_UP_LOW_Read() == 0)
 282:.\key.c       **** //    {
 283:.\key.c       **** //     led_send[0] = led_low;
 284:.\key.c       **** // 
 285:.\key.c       **** //    }
 286:.\key.c       **** //    else if(LED_UP_HIGH_Read() == 0)
 287:.\key.c       **** //    {
 288:.\key.c       **** //     led_send[0] = led_high;
 289:.\key.c       **** //   
 290:.\key.c       **** //    }
 291:.\key.c       **** //   
 292:.\key.c       **** //    else 
 293:.\key.c       **** //    {
 294:.\key.c       **** //     led_send[0] = led_medium;
 295:.\key.c       **** //    
 296:.\key.c       **** //    } 
 297:.\key.c       **** //    
 298:.\key.c       **** //    CyDelay(2);
 299:.\key.c       ****     
 300:.\key.c       ****     ///2
 301:.\key.c       **** //    if(LED_DOWN_LOW_Read() == 0)
 302:.\key.c       **** //    {
 303:.\key.c       **** //     led_send[1] = led_low;
 304:.\key.c       **** //  
 305:.\key.c       **** //    }
 306:.\key.c       **** //    else if(LED_DOWN_HIGH_Read() == 0)
 307:.\key.c       **** //    {
 308:.\key.c       **** //     led_send[1] = led_high;
 309:.\key.c       **** //  
 310:.\key.c       **** //    }
 311:.\key.c       **** //    else 
 312:.\key.c       **** //    {
 313:.\key.c       **** //     led_send[1] = led_medium;
 314:.\key.c       **** //
 315:.\key.c       **** //    }
ARM GAS  C:\Users\pxc\AppData\Local\Temp\ccWBOefJ.s 			page 26


 316:.\key.c       **** //        CyDelay(2);
 317:.\key.c       **** //   if(LED_LEFT_LOW_Read() == 0)
 318:.\key.c       **** //    {
 319:.\key.c       **** //     led_send[2] = led_low;
 320:.\key.c       **** // 
 321:.\key.c       **** //    }
 322:.\key.c       **** //    else if(LED_LEFT_HIGH_Read() == 0)
 323:.\key.c       **** //    {
 324:.\key.c       **** //     led_send[2] = led_high;
 325:.\key.c       **** //  
 326:.\key.c       **** //    }
 327:.\key.c       **** //    else 
 328:.\key.c       **** //    {
 329:.\key.c       **** //     led_send[2] = led_medium;
 330:.\key.c       **** //   
 331:.\key.c       **** //    }
 332:.\key.c       **** //        CyDelay(2);
 333:.\key.c       **** //        if(LED_RIGHT_LOW_Read() == 0)
 334:.\key.c       **** //    {
 335:.\key.c       **** //     led_send[3] = led_low;
 336:.\key.c       **** //
 337:.\key.c       **** //    }
 338:.\key.c       **** //    else if(LED_RIGHT_HIGH_Read() == 0)
 339:.\key.c       **** //    {
 340:.\key.c       **** //     led_send[3] = led_high;
 341:.\key.c       **** //   
 342:.\key.c       **** //    }
 343:.\key.c       **** //    else 
 344:.\key.c       **** //    {
 345:.\key.c       **** //     led_send[3] = led_medium;
 346:.\key.c       **** //     
 347:.\key.c       **** //    }
 348:.\key.c       **** //    DT_Send_Command_Led(led_send);
 349:.\key.c       **** //        CyDelay(2);
 350:.\key.c       **** //    if(KEY_SPEED_LOW_Read() == 0)
 351:.\key.c       **** //    {
 352:.\key.c       **** //        DT_Send_Command_Speed(20000);
 353:.\key.c       **** //    }
 354:.\key.c       **** //    else if(KEY_SPEED_HIGH_Read() == 0)
 355:.\key.c       **** //    {
 356:.\key.c       **** //         DT_Send_Command_Speed(10000);
 357:.\key.c       **** //    }
 358:.\key.c       **** //    else
 359:.\key.c       **** //    {
 360:.\key.c       **** //         DT_Send_Command_Speed(15000);
 361:.\key.c       **** //    }
 362:.\key.c       ****    
 363:.\key.c       **** }
 364:.\key.c       **** 
 365:.\key.c       **** void button_init(struct Button* handle, uint8_t(*pin_level)(), uint8_t active_level)
 366:.\key.c       **** {
 1067              		.loc 1 366 0
 1068              		.cfi_startproc
 1069              		@ args = 0, pretend = 0, frame = 0
 1070              		@ frame_needed = 0, uses_anonymous_args = 0
 1071              	.LVL54:
 1072 0000 38B5     		push	{r3, r4, r5, lr}
ARM GAS  C:\Users\pxc\AppData\Local\Temp\ccWBOefJ.s 			page 27


 1073              		.cfi_def_cfa_offset 16
 1074              		.cfi_offset 3, -16
 1075              		.cfi_offset 4, -12
 1076              		.cfi_offset 5, -8
 1077              		.cfi_offset 14, -4
 1078 0002 0446     		mov	r4, r0
 1079 0004 1546     		mov	r5, r2
 367:.\key.c       **** 	memset(handle, sizeof(struct Button), 0);
 368:.\key.c       **** 	handle->event = (uint8_t)NONE_PRESS;
 1080              		.loc 1 368 0
 1081 0006 8378     		ldrb	r3, [r0, #2]	@ zero_extendqisi2
 1082 0008 0822     		movs	r2, #8
 1083              	.LVL55:
 1084 000a 62F30713 		bfi	r3, r2, #4, #4
 1085 000e 8370     		strb	r3, [r0, #2]
 369:.\key.c       **** 	handle->hal_button_Level = pin_level;
 1086              		.loc 1 369 0
 1087 0010 4160     		str	r1, [r0, #4]
 370:.\key.c       **** 	handle->button_level = handle->hal_button_Level();
 1088              		.loc 1 370 0
 1089 0012 8847     		blx	r1
 1090              	.LVL56:
 1091 0014 E378     		ldrb	r3, [r4, #3]	@ zero_extendqisi2
 1092 0016 60F3C713 		bfi	r3, r0, #7, #1
 371:.\key.c       **** 	handle->active_level = active_level;
 1093              		.loc 1 371 0
 1094 001a 65F38613 		bfi	r3, r5, #6, #1
 1095 001e E370     		strb	r3, [r4, #3]
 1096 0020 38BD     		pop	{r3, r4, r5, pc}
 1097              		.cfi_endproc
 1098              	.LFE102:
 1099              		.size	button_init, .-button_init
 1100 0022 00BF     		.section	.text.button_attach,"ax",%progbits
 1101              		.align	2
 1102              		.global	button_attach
 1103              		.thumb
 1104              		.thumb_func
 1105              		.type	button_attach, %function
 1106              	button_attach:
 1107              	.LFB103:
 372:.\key.c       **** }
 373:.\key.c       **** 
 374:.\key.c       **** void button_attach(struct Button* handle, PressEvent event, BtnCallback cb)
 375:.\key.c       **** {
 1108              		.loc 1 375 0
 1109              		.cfi_startproc
 1110              		@ args = 0, pretend = 0, frame = 0
 1111              		@ frame_needed = 0, uses_anonymous_args = 0
 1112              		@ link register save eliminated.
 1113              	.LVL57:
 376:.\key.c       **** 	handle->cb[event] = cb;
 1114              		.loc 1 376 0
 1115 0000 0231     		adds	r1, r1, #2
 1116              	.LVL58:
 1117 0002 40F82120 		str	r2, [r0, r1, lsl #2]
 1118 0006 7047     		bx	lr
 1119              		.cfi_endproc
ARM GAS  C:\Users\pxc\AppData\Local\Temp\ccWBOefJ.s 			page 28


 1120              	.LFE103:
 1121              		.size	button_attach, .-button_attach
 1122              		.section	.text.get_button_event,"ax",%progbits
 1123              		.align	2
 1124              		.global	get_button_event
 1125              		.thumb
 1126              		.thumb_func
 1127              		.type	get_button_event, %function
 1128              	get_button_event:
 1129              	.LFB104:
 377:.\key.c       **** }
 378:.\key.c       **** 
 379:.\key.c       **** 
 380:.\key.c       **** PressEvent get_button_event(struct Button* handle)
 381:.\key.c       **** {
 1130              		.loc 1 381 0
 1131              		.cfi_startproc
 1132              		@ args = 0, pretend = 0, frame = 0
 1133              		@ frame_needed = 0, uses_anonymous_args = 0
 1134              		@ link register save eliminated.
 1135              	.LVL59:
 382:.\key.c       **** 	return (PressEvent)(handle->event);
 1136              		.loc 1 382 0
 1137 0000 8078     		ldrb	r0, [r0, #2]	@ zero_extendqisi2
 1138              	.LVL60:
 383:.\key.c       **** }
 1139              		.loc 1 383 0
 1140 0002 0009     		lsrs	r0, r0, #4
 1141 0004 7047     		bx	lr
 1142              		.cfi_endproc
 1143              	.LFE104:
 1144              		.size	get_button_event, .-get_button_event
 1145 0006 00BF     		.section	.text.button_handler,"ax",%progbits
 1146              		.align	2
 1147              		.global	button_handler
 1148              		.thumb
 1149              		.thumb_func
 1150              		.type	button_handler, %function
 1151              	button_handler:
 1152              	.LFB105:
 384:.\key.c       **** 
 385:.\key.c       **** 
 386:.\key.c       **** void button_handler(struct Button* handle)
 387:.\key.c       **** {
 1153              		.loc 1 387 0
 1154              		.cfi_startproc
 1155              		@ args = 0, pretend = 0, frame = 0
 1156              		@ frame_needed = 0, uses_anonymous_args = 0
 1157              	.LVL61:
 1158 0000 10B5     		push	{r4, lr}
 1159              		.cfi_def_cfa_offset 8
 1160              		.cfi_offset 4, -8
 1161              		.cfi_offset 14, -4
 1162 0002 0446     		mov	r4, r0
 388:.\key.c       **** 	uint8_t read_gpio_level = handle->hal_button_Level();
 1163              		.loc 1 388 0
 1164 0004 4368     		ldr	r3, [r0, #4]
ARM GAS  C:\Users\pxc\AppData\Local\Temp\ccWBOefJ.s 			page 29


 1165 0006 9847     		blx	r3
 1166              	.LVL62:
 389:.\key.c       **** 
 390:.\key.c       **** 	//ticks counter working..
 391:.\key.c       **** 	if((handle->state) > 0) handle->ticks++;
 1167              		.loc 1 391 0
 1168 0008 E378     		ldrb	r3, [r4, #3]	@ zero_extendqisi2
 1169 000a 13F00703 		ands	r3, r3, #7
 1170 000e 02D0     		beq	.L114
 1171              		.loc 1 391 0 is_stmt 0 discriminator 1
 1172 0010 2288     		ldrh	r2, [r4]
 1173 0012 0132     		adds	r2, r2, #1
 1174 0014 2280     		strh	r2, [r4]	@ movhi
 1175              	.L114:
 392:.\key.c       **** 
 393:.\key.c       **** 	/*------------button debounce handle---------------*/
 394:.\key.c       **** 	if(read_gpio_level != handle->button_level) { //not equal to prev one
 1176              		.loc 1 394 0 is_stmt 1
 1177 0016 E278     		ldrb	r2, [r4, #3]	@ zero_extendqisi2
 1178 0018 B0EBD21F 		cmp	r0, r2, lsr #7
 1179 001c 11D0     		beq	.L115
 395:.\key.c       **** 		//continue read 3 times same new level change
 396:.\key.c       **** 		if(++(handle->debounce_cnt) >= DEBOUNCE_TICKS) {
 1180              		.loc 1 396 0
 1181 001e 1146     		mov	r1, r2
 1182 0020 C2F3C202 		ubfx	r2, r2, #3, #3
 1183 0024 0132     		adds	r2, r2, #1
 1184 0026 02F00702 		and	r2, r2, #7
 1185 002a 62F3C501 		bfi	r1, r2, #3, #3
 1186 002e E170     		strb	r1, [r4, #3]
 1187 0030 022A     		cmp	r2, #2
 1188 0032 0ADD     		ble	.L116
 397:.\key.c       **** 			handle->button_level = read_gpio_level;
 1189              		.loc 1 397 0
 1190 0034 CAB2     		uxtb	r2, r1
 1191 0036 60F3C712 		bfi	r2, r0, #7, #1
 398:.\key.c       **** 			handle->debounce_cnt = 0;
 1192              		.loc 1 398 0
 1193 003a 6FF3C502 		bfc	r2, #3, #3
 1194 003e E270     		strb	r2, [r4, #3]
 1195 0040 03E0     		b	.L116
 1196              	.L115:
 399:.\key.c       **** 		}
 400:.\key.c       **** 	} else { //leved not change ,counter reset.
 401:.\key.c       **** 		handle->debounce_cnt = 0;
 1197              		.loc 1 401 0
 1198 0042 E278     		ldrb	r2, [r4, #3]	@ zero_extendqisi2
 1199 0044 6FF3C502 		bfc	r2, #3, #3
 1200 0048 E270     		strb	r2, [r4, #3]
 1201              	.L116:
 402:.\key.c       **** 	}
 403:.\key.c       **** 
 404:.\key.c       **** 	/*-----------------State machine-------------------*/
 405:.\key.c       **** 	switch (handle->state) {
 1202              		.loc 1 405 0
 1203 004a 052B     		cmp	r3, #5
 1204 004c 00F2D380 		bhi	.L113
ARM GAS  C:\Users\pxc\AppData\Local\Temp\ccWBOefJ.s 			page 30


 1205 0050 DFE813F0 		tbh	[pc, r3, lsl #1]
 1206              	.L119:
 1207 0054 0600     		.2byte	(.L118-.L119)/2
 1208 0056 2600     		.2byte	(.L120-.L119)/2
 1209 0058 5000     		.2byte	(.L121-.L119)/2
 1210 005a 9500     		.2byte	(.L122-.L119)/2
 1211 005c D100     		.2byte	(.L113-.L119)/2
 1212 005e B400     		.2byte	(.L123-.L119)/2
 1213              		.p2align 1
 1214              	.L118:
 406:.\key.c       **** 	case 0:
 407:.\key.c       **** 		if(handle->button_level == handle->active_level) {	//start press down
 1215              		.loc 1 407 0
 1216 0060 E378     		ldrb	r3, [r4, #3]	@ zero_extendqisi2
 1217 0062 C3F38012 		ubfx	r2, r3, #6, #1
 1218 0066 B2EBD31F 		cmp	r2, r3, lsr #7
 1219 006a 13D1     		bne	.L124
 408:.\key.c       **** 			handle->event = (uint8_t)PRESS_DOWN;
 1220              		.loc 1 408 0
 1221 006c A378     		ldrb	r3, [r4, #2]	@ zero_extendqisi2
 1222 006e 6FF30713 		bfc	r3, #4, #4
 1223 0072 A370     		strb	r3, [r4, #2]
 409:.\key.c       **** 			EVENT_CB(PRESS_DOWN);
 1224              		.loc 1 409 0
 1225 0074 A368     		ldr	r3, [r4, #8]
 1226 0076 0BB1     		cbz	r3, .L125
 1227              		.loc 1 409 0 is_stmt 0 discriminator 1
 1228 0078 2046     		mov	r0, r4
 1229              	.LVL63:
 1230 007a 9847     		blx	r3
 1231              	.LVL64:
 1232              	.L125:
 410:.\key.c       **** 			handle->ticks = 0;
 1233              		.loc 1 410 0 is_stmt 1
 1234 007c 0023     		movs	r3, #0
 1235 007e 2380     		strh	r3, [r4]	@ movhi
 411:.\key.c       **** 			handle->repeat = 1;
 1236              		.loc 1 411 0
 1237 0080 A378     		ldrb	r3, [r4, #2]	@ zero_extendqisi2
 1238 0082 0122     		movs	r2, #1
 1239 0084 62F30303 		bfi	r3, r2, #0, #4
 1240 0088 A370     		strb	r3, [r4, #2]
 412:.\key.c       **** 			handle->state = 1;
 1241              		.loc 1 412 0
 1242 008a E378     		ldrb	r3, [r4, #3]	@ zero_extendqisi2
 1243 008c 62F30203 		bfi	r3, r2, #0, #3
 1244 0090 E370     		strb	r3, [r4, #3]
 1245 0092 10BD     		pop	{r4, pc}
 1246              	.LVL65:
 1247              	.L124:
 413:.\key.c       **** 		} else {
 414:.\key.c       **** 			handle->event = (uint8_t)NONE_PRESS;
 1248              		.loc 1 414 0
 1249 0094 A378     		ldrb	r3, [r4, #2]	@ zero_extendqisi2
 1250 0096 0822     		movs	r2, #8
 1251 0098 62F30713 		bfi	r3, r2, #4, #4
 1252 009c A370     		strb	r3, [r4, #2]
ARM GAS  C:\Users\pxc\AppData\Local\Temp\ccWBOefJ.s 			page 31


 1253 009e 10BD     		pop	{r4, pc}
 1254              	.LVL66:
 1255              	.L120:
 415:.\key.c       **** 		}
 416:.\key.c       **** 		break;
 417:.\key.c       **** 
 418:.\key.c       **** 	case 1:
 419:.\key.c       **** 		if(handle->button_level != handle->active_level) { //released press up
 1256              		.loc 1 419 0
 1257 00a0 E378     		ldrb	r3, [r4, #3]	@ zero_extendqisi2
 1258 00a2 C3F38012 		ubfx	r2, r3, #6, #1
 1259 00a6 B2EBD31F 		cmp	r2, r3, lsr #7
 1260 00aa 10D0     		beq	.L126
 420:.\key.c       **** 			handle->event = (uint8_t)PRESS_UP;
 1261              		.loc 1 420 0
 1262 00ac A378     		ldrb	r3, [r4, #2]	@ zero_extendqisi2
 1263 00ae 0122     		movs	r2, #1
 1264 00b0 62F30713 		bfi	r3, r2, #4, #4
 1265 00b4 A370     		strb	r3, [r4, #2]
 421:.\key.c       **** 			EVENT_CB(PRESS_UP);
 1266              		.loc 1 421 0
 1267 00b6 E368     		ldr	r3, [r4, #12]
 1268 00b8 0BB1     		cbz	r3, .L127
 1269              		.loc 1 421 0 is_stmt 0 discriminator 1
 1270 00ba 2046     		mov	r0, r4
 1271              	.LVL67:
 1272 00bc 9847     		blx	r3
 1273              	.LVL68:
 1274              	.L127:
 422:.\key.c       **** 			handle->ticks = 0;
 1275              		.loc 1 422 0 is_stmt 1
 1276 00be 0023     		movs	r3, #0
 1277 00c0 2380     		strh	r3, [r4]	@ movhi
 423:.\key.c       **** 			handle->state = 2;
 1278              		.loc 1 423 0
 1279 00c2 E378     		ldrb	r3, [r4, #3]	@ zero_extendqisi2
 1280 00c4 0222     		movs	r2, #2
 1281 00c6 62F30203 		bfi	r3, r2, #0, #3
 1282 00ca E370     		strb	r3, [r4, #3]
 1283 00cc 10BD     		pop	{r4, pc}
 1284              	.LVL69:
 1285              	.L126:
 424:.\key.c       **** 
 425:.\key.c       **** 		} else if(handle->ticks > LONG_TICKS) {
 1286              		.loc 1 425 0
 1287 00ce 2388     		ldrh	r3, [r4]
 1288 00d0 642B     		cmp	r3, #100
 1289 00d2 40F29080 		bls	.L113
 426:.\key.c       **** 			handle->event = (uint8_t)LONG_RRESS_START;
 1290              		.loc 1 426 0
 1291 00d6 A378     		ldrb	r3, [r4, #2]	@ zero_extendqisi2
 1292 00d8 0522     		movs	r2, #5
 1293 00da 62F30713 		bfi	r3, r2, #4, #4
 1294 00de A370     		strb	r3, [r4, #2]
 427:.\key.c       **** 			EVENT_CB(LONG_RRESS_START);
 1295              		.loc 1 427 0
 1296 00e0 E369     		ldr	r3, [r4, #28]
ARM GAS  C:\Users\pxc\AppData\Local\Temp\ccWBOefJ.s 			page 32


 1297 00e2 0BB1     		cbz	r3, .L128
 1298              		.loc 1 427 0 is_stmt 0 discriminator 1
 1299 00e4 2046     		mov	r0, r4
 1300              	.LVL70:
 1301 00e6 9847     		blx	r3
 1302              	.LVL71:
 1303              	.L128:
 428:.\key.c       **** 			handle->state = 5;
 1304              		.loc 1 428 0 is_stmt 1
 1305 00e8 E378     		ldrb	r3, [r4, #3]	@ zero_extendqisi2
 1306 00ea 0522     		movs	r2, #5
 1307 00ec 62F30203 		bfi	r3, r2, #0, #3
 1308 00f0 E370     		strb	r3, [r4, #3]
 1309 00f2 10BD     		pop	{r4, pc}
 1310              	.LVL72:
 1311              	.L121:
 429:.\key.c       **** 		}
 430:.\key.c       **** 		break;
 431:.\key.c       **** 
 432:.\key.c       **** 	case 2:
 433:.\key.c       **** 		if(handle->button_level == handle->active_level) { //press down again
 1312              		.loc 1 433 0
 1313 00f4 E378     		ldrb	r3, [r4, #3]	@ zero_extendqisi2
 1314 00f6 C3F38012 		ubfx	r2, r3, #6, #1
 1315 00fa B2EBD31F 		cmp	r2, r3, lsr #7
 1316 00fe 20D1     		bne	.L129
 434:.\key.c       **** 			handle->event = (uint8_t)PRESS_DOWN;
 1317              		.loc 1 434 0
 1318 0100 A378     		ldrb	r3, [r4, #2]	@ zero_extendqisi2
 1319 0102 6FF30713 		bfc	r3, #4, #4
 1320 0106 A370     		strb	r3, [r4, #2]
 435:.\key.c       **** 			EVENT_CB(PRESS_DOWN);
 1321              		.loc 1 435 0
 1322 0108 A368     		ldr	r3, [r4, #8]
 1323 010a 0BB1     		cbz	r3, .L130
 1324              		.loc 1 435 0 is_stmt 0 discriminator 1
 1325 010c 2046     		mov	r0, r4
 1326              	.LVL73:
 1327 010e 9847     		blx	r3
 1328              	.LVL74:
 1329              	.L130:
 436:.\key.c       **** 			handle->repeat++;
 1330              		.loc 1 436 0 is_stmt 1
 1331 0110 A378     		ldrb	r3, [r4, #2]	@ zero_extendqisi2
 1332 0112 5A1C     		adds	r2, r3, #1
 1333 0114 62F30303 		bfi	r3, r2, #0, #4
 1334 0118 A370     		strb	r3, [r4, #2]
 437:.\key.c       **** 			if(handle->repeat == 2) {
 1335              		.loc 1 437 0
 1336 011a 03F00F03 		and	r3, r3, #15
 1337 011e 022B     		cmp	r3, #2
 1338 0120 03D1     		bne	.L131
 438:.\key.c       **** 				EVENT_CB(DOUBLE_CLICK); // repeat hit
 1339              		.loc 1 438 0
 1340 0122 A369     		ldr	r3, [r4, #24]
 1341 0124 0BB1     		cbz	r3, .L131
 1342              		.loc 1 438 0 is_stmt 0 discriminator 1
ARM GAS  C:\Users\pxc\AppData\Local\Temp\ccWBOefJ.s 			page 33


 1343 0126 2046     		mov	r0, r4
 1344 0128 9847     		blx	r3
 1345              	.LVL75:
 1346              	.L131:
 439:.\key.c       **** 			} 
 440:.\key.c       **** 			EVENT_CB(PRESS_REPEAT); // repeat hit
 1347              		.loc 1 440 0 is_stmt 1
 1348 012a 2369     		ldr	r3, [r4, #16]
 1349 012c 0BB1     		cbz	r3, .L132
 1350              		.loc 1 440 0 is_stmt 0 discriminator 1
 1351 012e 2046     		mov	r0, r4
 1352 0130 9847     		blx	r3
 1353              	.LVL76:
 1354              	.L132:
 441:.\key.c       **** 			handle->ticks = 0;
 1355              		.loc 1 441 0 is_stmt 1
 1356 0132 0023     		movs	r3, #0
 1357 0134 2380     		strh	r3, [r4]	@ movhi
 442:.\key.c       **** 			handle->state = 3;
 1358              		.loc 1 442 0
 1359 0136 E378     		ldrb	r3, [r4, #3]	@ zero_extendqisi2
 1360 0138 0322     		movs	r2, #3
 1361 013a 62F30203 		bfi	r3, r2, #0, #3
 1362 013e E370     		strb	r3, [r4, #3]
 1363 0140 10BD     		pop	{r4, pc}
 1364              	.LVL77:
 1365              	.L129:
 443:.\key.c       **** 		} else if(handle->ticks > SHORT_TICKS) { //released timeout
 1366              		.loc 1 443 0
 1367 0142 2388     		ldrh	r3, [r4]
 1368 0144 3C2B     		cmp	r3, #60
 1369 0146 56D9     		bls	.L113
 444:.\key.c       **** 			if(handle->repeat == 1) {
 1370              		.loc 1 444 0
 1371 0148 A378     		ldrb	r3, [r4, #2]	@ zero_extendqisi2
 1372 014a 03F00F03 		and	r3, r3, #15
 1373 014e 012B     		cmp	r3, #1
 1374 0150 09D1     		bne	.L133
 445:.\key.c       **** 				handle->event = (uint8_t)SINGLE_CLICK;
 1375              		.loc 1 445 0
 1376 0152 A378     		ldrb	r3, [r4, #2]	@ zero_extendqisi2
 1377 0154 0322     		movs	r2, #3
 1378 0156 62F30713 		bfi	r3, r2, #4, #4
 1379 015a A370     		strb	r3, [r4, #2]
 446:.\key.c       **** 				EVENT_CB(SINGLE_CLICK);
 1380              		.loc 1 446 0
 1381 015c 6369     		ldr	r3, [r4, #20]
 1382 015e 4BB1     		cbz	r3, .L134
 1383              		.loc 1 446 0 is_stmt 0 discriminator 1
 1384 0160 2046     		mov	r0, r4
 1385              	.LVL78:
 1386 0162 9847     		blx	r3
 1387              	.LVL79:
 1388 0164 06E0     		b	.L134
 1389              	.LVL80:
 1390              	.L133:
 447:.\key.c       **** 			} else if(handle->repeat == 2) {
ARM GAS  C:\Users\pxc\AppData\Local\Temp\ccWBOefJ.s 			page 34


 1391              		.loc 1 447 0 is_stmt 1
 1392 0166 022B     		cmp	r3, #2
 1393 0168 04D1     		bne	.L134
 448:.\key.c       **** 				handle->event = (uint8_t)DOUBLE_CLICK;
 1394              		.loc 1 448 0
 1395 016a A378     		ldrb	r3, [r4, #2]	@ zero_extendqisi2
 1396 016c 0422     		movs	r2, #4
 1397 016e 62F30713 		bfi	r3, r2, #4, #4
 1398 0172 A370     		strb	r3, [r4, #2]
 1399              	.LVL81:
 1400              	.L134:
 449:.\key.c       **** 			}
 450:.\key.c       **** 			handle->state = 0;
 1401              		.loc 1 450 0
 1402 0174 E378     		ldrb	r3, [r4, #3]	@ zero_extendqisi2
 1403 0176 6FF30203 		bfc	r3, #0, #3
 1404 017a E370     		strb	r3, [r4, #3]
 1405 017c 10BD     		pop	{r4, pc}
 1406              	.LVL82:
 1407              	.L122:
 451:.\key.c       **** 		}
 452:.\key.c       **** 		break;
 453:.\key.c       **** 
 454:.\key.c       **** 	case 3:
 455:.\key.c       **** 		if(handle->button_level != handle->active_level) { //released press up
 1408              		.loc 1 455 0
 1409 017e E378     		ldrb	r3, [r4, #3]	@ zero_extendqisi2
 1410 0180 C3F38012 		ubfx	r2, r3, #6, #1
 1411 0184 B2EBD31F 		cmp	r2, r3, lsr #7
 1412 0188 35D0     		beq	.L113
 456:.\key.c       **** 			handle->event = (uint8_t)PRESS_UP;
 1413              		.loc 1 456 0
 1414 018a A378     		ldrb	r3, [r4, #2]	@ zero_extendqisi2
 1415 018c 0122     		movs	r2, #1
 1416 018e 62F30713 		bfi	r3, r2, #4, #4
 1417 0192 A370     		strb	r3, [r4, #2]
 457:.\key.c       **** 			EVENT_CB(PRESS_UP);
 1418              		.loc 1 457 0
 1419 0194 E368     		ldr	r3, [r4, #12]
 1420 0196 0BB1     		cbz	r3, .L135
 1421              		.loc 1 457 0 is_stmt 0 discriminator 1
 1422 0198 2046     		mov	r0, r4
 1423              	.LVL83:
 1424 019a 9847     		blx	r3
 1425              	.LVL84:
 1426              	.L135:
 458:.\key.c       **** 			if(handle->ticks < SHORT_TICKS) {
 1427              		.loc 1 458 0 is_stmt 1
 1428 019c 2388     		ldrh	r3, [r4]
 1429 019e 3B2B     		cmp	r3, #59
 1430 01a0 07D8     		bhi	.L136
 459:.\key.c       **** 				handle->ticks = 0;
 1431              		.loc 1 459 0
 1432 01a2 0023     		movs	r3, #0
 1433 01a4 2380     		strh	r3, [r4]	@ movhi
 460:.\key.c       **** 				handle->state = 2; //repeat press
 1434              		.loc 1 460 0
ARM GAS  C:\Users\pxc\AppData\Local\Temp\ccWBOefJ.s 			page 35


 1435 01a6 E378     		ldrb	r3, [r4, #3]	@ zero_extendqisi2
 1436 01a8 0222     		movs	r2, #2
 1437 01aa 62F30203 		bfi	r3, r2, #0, #3
 1438 01ae E370     		strb	r3, [r4, #3]
 1439 01b0 10BD     		pop	{r4, pc}
 1440              	.LVL85:
 1441              	.L136:
 461:.\key.c       **** 			} else {
 462:.\key.c       **** 				handle->state = 0;
 1442              		.loc 1 462 0
 1443 01b2 E378     		ldrb	r3, [r4, #3]	@ zero_extendqisi2
 1444 01b4 6FF30203 		bfc	r3, #0, #3
 1445 01b8 E370     		strb	r3, [r4, #3]
 1446 01ba 10BD     		pop	{r4, pc}
 1447              	.LVL86:
 1448              	.L123:
 463:.\key.c       **** 			}
 464:.\key.c       **** 		}
 465:.\key.c       **** 		break;
 466:.\key.c       **** 
 467:.\key.c       **** 	case 5:
 468:.\key.c       **** 		if(handle->button_level == handle->active_level) {
 1449              		.loc 1 468 0
 1450 01bc E378     		ldrb	r3, [r4, #3]	@ zero_extendqisi2
 1451 01be C3F38012 		ubfx	r2, r3, #6, #1
 1452 01c2 B2EBD31F 		cmp	r2, r3, lsr #7
 1453 01c6 09D1     		bne	.L137
 469:.\key.c       **** 			//continue hold trigger
 470:.\key.c       **** 			handle->event = (uint8_t)LONG_PRESS_HOLD;
 1454              		.loc 1 470 0
 1455 01c8 A378     		ldrb	r3, [r4, #2]	@ zero_extendqisi2
 1456 01ca 0622     		movs	r2, #6
 1457 01cc 62F30713 		bfi	r3, r2, #4, #4
 1458 01d0 A370     		strb	r3, [r4, #2]
 471:.\key.c       **** 			EVENT_CB(LONG_PRESS_HOLD);
 1459              		.loc 1 471 0
 1460 01d2 236A     		ldr	r3, [r4, #32]
 1461 01d4 7BB1     		cbz	r3, .L113
 1462              		.loc 1 471 0 is_stmt 0 discriminator 1
 1463 01d6 2046     		mov	r0, r4
 1464              	.LVL87:
 1465 01d8 9847     		blx	r3
 1466              	.LVL88:
 1467 01da 10BD     		pop	{r4, pc}
 1468              	.LVL89:
 1469              	.L137:
 472:.\key.c       **** 
 473:.\key.c       **** 		} else { //releasd
 474:.\key.c       **** 			handle->event = (uint8_t)PRESS_UP;
 1470              		.loc 1 474 0 is_stmt 1
 1471 01dc A378     		ldrb	r3, [r4, #2]	@ zero_extendqisi2
 1472 01de 0122     		movs	r2, #1
 1473 01e0 62F30713 		bfi	r3, r2, #4, #4
 1474 01e4 A370     		strb	r3, [r4, #2]
 475:.\key.c       **** 			EVENT_CB(PRESS_UP);
 1475              		.loc 1 475 0
 1476 01e6 E368     		ldr	r3, [r4, #12]
ARM GAS  C:\Users\pxc\AppData\Local\Temp\ccWBOefJ.s 			page 36


 1477 01e8 0BB1     		cbz	r3, .L138
 1478              		.loc 1 475 0 is_stmt 0 discriminator 1
 1479 01ea 2046     		mov	r0, r4
 1480              	.LVL90:
 1481 01ec 9847     		blx	r3
 1482              	.LVL91:
 1483              	.L138:
 476:.\key.c       **** 			handle->state = 0; //reset
 1484              		.loc 1 476 0 is_stmt 1
 1485 01ee E378     		ldrb	r3, [r4, #3]	@ zero_extendqisi2
 1486 01f0 6FF30203 		bfc	r3, #0, #3
 1487 01f4 E370     		strb	r3, [r4, #3]
 1488              	.L113:
 1489 01f6 10BD     		pop	{r4, pc}
 1490              		.cfi_endproc
 1491              	.LFE105:
 1492              		.size	button_handler, .-button_handler
 1493              		.section	.text.button_start,"ax",%progbits
 1494              		.align	2
 1495              		.global	button_start
 1496              		.thumb
 1497              		.thumb_func
 1498              		.type	button_start, %function
 1499              	button_start:
 1500              	.LFB106:
 477:.\key.c       **** 		}
 478:.\key.c       **** 		break;
 479:.\key.c       **** 	}
 480:.\key.c       **** }
 481:.\key.c       **** 
 482:.\key.c       **** 
 483:.\key.c       **** int button_start(struct Button* handle)
 484:.\key.c       **** {
 1501              		.loc 1 484 0
 1502              		.cfi_startproc
 1503              		@ args = 0, pretend = 0, frame = 0
 1504              		@ frame_needed = 0, uses_anonymous_args = 0
 1505              		@ link register save eliminated.
 1506              	.LVL92:
 485:.\key.c       **** 	struct Button* target = head_handle;
 1507              		.loc 1 485 0
 1508 0000 084B     		ldr	r3, .L145
 1509 0002 1A68     		ldr	r2, [r3]
 1510              	.LVL93:
 1511 0004 1346     		mov	r3, r2
 486:.\key.c       **** 	while(target) {
 1512              		.loc 1 486 0
 1513 0006 02E0     		b	.L141
 1514              	.LVL94:
 1515              	.L143:
 487:.\key.c       **** 		if(target == handle) return -1;	//already exist.
 1516              		.loc 1 487 0
 1517 0008 8342     		cmp	r3, r0
 1518 000a 07D0     		beq	.L144
 488:.\key.c       **** 		target = target->next;
 1519              		.loc 1 488 0
 1520 000c 5B6A     		ldr	r3, [r3, #36]
ARM GAS  C:\Users\pxc\AppData\Local\Temp\ccWBOefJ.s 			page 37


 1521              	.LVL95:
 1522              	.L141:
 486:.\key.c       **** 	while(target) {
 1523              		.loc 1 486 0
 1524 000e 002B     		cmp	r3, #0
 1525 0010 FAD1     		bne	.L143
 489:.\key.c       **** 	}
 490:.\key.c       **** 	handle->next = head_handle;
 1526              		.loc 1 490 0
 1527 0012 4262     		str	r2, [r0, #36]
 491:.\key.c       **** 	head_handle = handle;
 1528              		.loc 1 491 0
 1529 0014 034B     		ldr	r3, .L145
 1530              	.LVL96:
 1531 0016 1860     		str	r0, [r3]
 492:.\key.c       **** 	return 0;
 1532              		.loc 1 492 0
 1533 0018 0020     		movs	r0, #0
 1534              	.LVL97:
 1535 001a 7047     		bx	lr
 1536              	.LVL98:
 1537              	.L144:
 487:.\key.c       **** 		target = target->next;
 1538              		.loc 1 487 0
 1539 001c 4FF0FF30 		mov	r0, #-1
 1540              	.LVL99:
 493:.\key.c       **** }
 1541              		.loc 1 493 0
 1542 0020 7047     		bx	lr
 1543              	.L146:
 1544 0022 00BF     		.align	2
 1545              	.L145:
 1546 0024 00000000 		.word	.LANCHOR0
 1547              		.cfi_endproc
 1548              	.LFE106:
 1549              		.size	button_start, .-button_start
 1550              		.section	.text.init_button,"ax",%progbits
 1551              		.align	2
 1552              		.global	init_button
 1553              		.thumb
 1554              		.thumb_func
 1555              		.type	init_button, %function
 1556              	init_button:
 1557              	.LFB101:
 220:.\key.c       **** 
 1558              		.loc 1 220 0
 1559              		.cfi_startproc
 1560              		@ args = 0, pretend = 0, frame = 0
 1561              		@ frame_needed = 0, uses_anonymous_args = 0
 1562 0000 38B5     		push	{r3, r4, r5, lr}
 1563              		.cfi_def_cfa_offset 16
 1564              		.cfi_offset 3, -16
 1565              		.cfi_offset 4, -12
 1566              		.cfi_offset 5, -8
 1567              		.cfi_offset 14, -4
 223:.\key.c       ****     button_attach (&STR1, PRESS_UP, Callback_STR1_press_up);
 1568              		.loc 1 223 0
ARM GAS  C:\Users\pxc\AppData\Local\Temp\ccWBOefJ.s 			page 38


 1569 0002 704C     		ldr	r4, .L149
 1570 0004 704D     		ldr	r5, .L149+4
 1571 0006 2046     		mov	r0, r4
 1572 0008 2946     		mov	r1, r5
 1573 000a 0022     		movs	r2, #0
 1574 000c FFF7FEFF 		bl	button_init
 1575              	.LVL100:
 224:.\key.c       ****     button_start  (&STR1);
 1576              		.loc 1 224 0
 1577 0010 2046     		mov	r0, r4
 1578 0012 0121     		movs	r1, #1
 1579 0014 6D4A     		ldr	r2, .L149+8
 1580 0016 FFF7FEFF 		bl	button_attach
 1581              	.LVL101:
 225:.\key.c       ****     button_init   (&STR1, STR1_Read, 0);
 1582              		.loc 1 225 0
 1583 001a 2046     		mov	r0, r4
 1584 001c FFF7FEFF 		bl	button_start
 1585              	.LVL102:
 226:.\key.c       ****     button_attach (&STR1, PRESS_DOWN, Callback_STR1_down);
 1586              		.loc 1 226 0
 1587 0020 2046     		mov	r0, r4
 1588 0022 2946     		mov	r1, r5
 1589 0024 0022     		movs	r2, #0
 1590 0026 FFF7FEFF 		bl	button_init
 1591              	.LVL103:
 227:.\key.c       ****     button_start  (&STR1);
 1592              		.loc 1 227 0
 1593 002a 2046     		mov	r0, r4
 1594 002c 0021     		movs	r1, #0
 1595 002e 684A     		ldr	r2, .L149+12
 1596 0030 FFF7FEFF 		bl	button_attach
 1597              	.LVL104:
 228:.\key.c       ****     button_init   (&STR2, STR2_Read, 0);
 1598              		.loc 1 228 0
 1599 0034 2046     		mov	r0, r4
 1600 0036 FFF7FEFF 		bl	button_start
 1601              	.LVL105:
 229:.\key.c       ****     button_attach (&STR2, PRESS_UP, Callback_STR2_press_up);
 1602              		.loc 1 229 0
 1603 003a 664C     		ldr	r4, .L149+16
 1604 003c 664D     		ldr	r5, .L149+20
 1605 003e 2046     		mov	r0, r4
 1606 0040 2946     		mov	r1, r5
 1607 0042 0022     		movs	r2, #0
 1608 0044 FFF7FEFF 		bl	button_init
 1609              	.LVL106:
 230:.\key.c       ****     button_start  (&STR2);
 1610              		.loc 1 230 0
 1611 0048 2046     		mov	r0, r4
 1612 004a 0121     		movs	r1, #1
 1613 004c 634A     		ldr	r2, .L149+24
 1614 004e FFF7FEFF 		bl	button_attach
 1615              	.LVL107:
 231:.\key.c       ****     button_init  (&STR2, STR2_Read, 0);
 1616              		.loc 1 231 0
 1617 0052 2046     		mov	r0, r4
ARM GAS  C:\Users\pxc\AppData\Local\Temp\ccWBOefJ.s 			page 39


 1618 0054 FFF7FEFF 		bl	button_start
 1619              	.LVL108:
 232:.\key.c       ****     button_attach (&STR2, PRESS_DOWN, Callback_STR2_press_down);
 1620              		.loc 1 232 0
 1621 0058 2046     		mov	r0, r4
 1622 005a 2946     		mov	r1, r5
 1623 005c 0022     		movs	r2, #0
 1624 005e FFF7FEFF 		bl	button_init
 1625              	.LVL109:
 233:.\key.c       ****     button_start  (&STR2);
 1626              		.loc 1 233 0
 1627 0062 2046     		mov	r0, r4
 1628 0064 0021     		movs	r1, #0
 1629 0066 5E4A     		ldr	r2, .L149+28
 1630 0068 FFF7FEFF 		bl	button_attach
 1631              	.LVL110:
 234:.\key.c       ****  ///测厚仪3段式开关MSR
 1632              		.loc 1 234 0
 1633 006c 2046     		mov	r0, r4
 1634 006e FFF7FEFF 		bl	button_start
 1635              	.LVL111:
 237:.\key.c       ****     button_attach(&MSR_low, PRESS_UP, Callback_MSR_low_press_up);
 1636              		.loc 1 237 0
 1637 0072 5C4C     		ldr	r4, .L149+32
 1638 0074 5C4D     		ldr	r5, .L149+36
 1639 0076 2046     		mov	r0, r4
 1640 0078 2946     		mov	r1, r5
 1641 007a 0022     		movs	r2, #0
 1642 007c FFF7FEFF 		bl	button_init
 1643              	.LVL112:
 238:.\key.c       ****     button_start (&MSR_low);
 1644              		.loc 1 238 0
 1645 0080 2046     		mov	r0, r4
 1646 0082 0121     		movs	r1, #1
 1647 0084 594A     		ldr	r2, .L149+40
 1648 0086 FFF7FEFF 		bl	button_attach
 1649              	.LVL113:
 239:.\key.c       ****     button_init  (&MSR_low, MSR_LOW_Read, 0);
 1650              		.loc 1 239 0
 1651 008a 2046     		mov	r0, r4
 1652 008c FFF7FEFF 		bl	button_start
 1653              	.LVL114:
 240:.\key.c       ****     button_attach(&MSR_low, PRESS_DOWN, Callback_MSR_low_press_down);
 1654              		.loc 1 240 0
 1655 0090 2046     		mov	r0, r4
 1656 0092 2946     		mov	r1, r5
 1657 0094 0022     		movs	r2, #0
 1658 0096 FFF7FEFF 		bl	button_init
 1659              	.LVL115:
 241:.\key.c       ****     button_start (&MSR_low);
 1660              		.loc 1 241 0
 1661 009a 2046     		mov	r0, r4
 1662 009c 0021     		movs	r1, #0
 1663 009e 544A     		ldr	r2, .L149+44
 1664 00a0 FFF7FEFF 		bl	button_attach
 1665              	.LVL116:
 242:.\key.c       ****     button_init  (&MSR_high, MSR_HIGH_Read, 0);
ARM GAS  C:\Users\pxc\AppData\Local\Temp\ccWBOefJ.s 			page 40


 1666              		.loc 1 242 0
 1667 00a4 2046     		mov	r0, r4
 1668 00a6 FFF7FEFF 		bl	button_start
 1669              	.LVL117:
 243:.\key.c       ****     button_attach(&MSR_high, PRESS_UP, Callback_MSR_high_press_up);
 1670              		.loc 1 243 0
 1671 00aa 524C     		ldr	r4, .L149+48
 1672 00ac 524D     		ldr	r5, .L149+52
 1673 00ae 2046     		mov	r0, r4
 1674 00b0 2946     		mov	r1, r5
 1675 00b2 0022     		movs	r2, #0
 1676 00b4 FFF7FEFF 		bl	button_init
 1677              	.LVL118:
 244:.\key.c       ****     button_start (&MSR_high);
 1678              		.loc 1 244 0
 1679 00b8 2046     		mov	r0, r4
 1680 00ba 0121     		movs	r1, #1
 1681 00bc 4F4A     		ldr	r2, .L149+56
 1682 00be FFF7FEFF 		bl	button_attach
 1683              	.LVL119:
 245:.\key.c       ****      button_init  (&MSR_high, MSR_HIGH_Read, 0);
 1684              		.loc 1 245 0
 1685 00c2 2046     		mov	r0, r4
 1686 00c4 FFF7FEFF 		bl	button_start
 1687              	.LVL120:
 246:.\key.c       ****     button_attach(&MSR_high, PRESS_DOWN, Callback_MSR_high_press_down);
 1688              		.loc 1 246 0
 1689 00c8 2046     		mov	r0, r4
 1690 00ca 2946     		mov	r1, r5
 1691 00cc 0022     		movs	r2, #0
 1692 00ce FFF7FEFF 		bl	button_init
 1693              	.LVL121:
 247:.\key.c       ****     button_start (&MSR_high);
 1694              		.loc 1 247 0
 1695 00d2 2046     		mov	r0, r4
 1696 00d4 0021     		movs	r1, #0
 1697 00d6 4A4A     		ldr	r2, .L149+60
 1698 00d8 FFF7FEFF 		bl	button_attach
 1699              	.LVL122:
 248:.\key.c       ****     
 1700              		.loc 1 248 0
 1701 00dc 2046     		mov	r0, r4
 1702 00de FFF7FEFF 		bl	button_start
 1703              	.LVL123:
 253:.\key.c       ****     button_attach(&SWITCH_1_low, PRESS_UP, Callback_SWITCH_1_low_press_up);
 1704              		.loc 1 253 0
 1705 00e2 484C     		ldr	r4, .L149+64
 1706 00e4 484D     		ldr	r5, .L149+68
 1707 00e6 2046     		mov	r0, r4
 1708 00e8 2946     		mov	r1, r5
 1709 00ea 0022     		movs	r2, #0
 1710 00ec FFF7FEFF 		bl	button_init
 1711              	.LVL124:
 254:.\key.c       ****     button_start (&SWITCH_1_low);
 1712              		.loc 1 254 0
 1713 00f0 2046     		mov	r0, r4
 1714 00f2 0121     		movs	r1, #1
ARM GAS  C:\Users\pxc\AppData\Local\Temp\ccWBOefJ.s 			page 41


 1715 00f4 454A     		ldr	r2, .L149+72
 1716 00f6 FFF7FEFF 		bl	button_attach
 1717              	.LVL125:
 255:.\key.c       ****     button_init  (&SWITCH_1_low, SWITCH_1_LOW_Read, 0);
 1718              		.loc 1 255 0
 1719 00fa 2046     		mov	r0, r4
 1720 00fc FFF7FEFF 		bl	button_start
 1721              	.LVL126:
 256:.\key.c       ****     button_attach(&SWITCH_1_low, PRESS_DOWN, Callback_SWITCH_1_low_press_down);
 1722              		.loc 1 256 0
 1723 0100 2046     		mov	r0, r4
 1724 0102 2946     		mov	r1, r5
 1725 0104 0022     		movs	r2, #0
 1726 0106 FFF7FEFF 		bl	button_init
 1727              	.LVL127:
 257:.\key.c       ****     button_start (&SWITCH_1_low);
 1728              		.loc 1 257 0
 1729 010a 2046     		mov	r0, r4
 1730 010c 0021     		movs	r1, #0
 1731 010e 404A     		ldr	r2, .L149+76
 1732 0110 FFF7FEFF 		bl	button_attach
 1733              	.LVL128:
 258:.\key.c       ****     
 1734              		.loc 1 258 0
 1735 0114 2046     		mov	r0, r4
 1736 0116 FFF7FEFF 		bl	button_start
 1737              	.LVL129:
 260:.\key.c       ****     button_attach(&SWITCH_1_high, PRESS_UP, Callback_SWITCH_1_high_press_up);
 1738              		.loc 1 260 0
 1739 011a 3E4C     		ldr	r4, .L149+80
 1740 011c 3E4D     		ldr	r5, .L149+84
 1741 011e 2046     		mov	r0, r4
 1742 0120 2946     		mov	r1, r5
 1743 0122 0022     		movs	r2, #0
 1744 0124 FFF7FEFF 		bl	button_init
 1745              	.LVL130:
 261:.\key.c       ****     button_start (&SWITCH_1_high);
 1746              		.loc 1 261 0
 1747 0128 2046     		mov	r0, r4
 1748 012a 0121     		movs	r1, #1
 1749 012c 3B4A     		ldr	r2, .L149+88
 1750 012e FFF7FEFF 		bl	button_attach
 1751              	.LVL131:
 262:.\key.c       ****     button_init  (&SWITCH_1_high, SWITCH_1_HIGH_Read, 0);
 1752              		.loc 1 262 0
 1753 0132 2046     		mov	r0, r4
 1754 0134 FFF7FEFF 		bl	button_start
 1755              	.LVL132:
 263:.\key.c       ****     button_attach(&SWITCH_1_high, PRESS_DOWN, Callback_SWITCH_1_high_press_down);
 1756              		.loc 1 263 0
 1757 0138 2046     		mov	r0, r4
 1758 013a 2946     		mov	r1, r5
 1759 013c 0022     		movs	r2, #0
 1760 013e FFF7FEFF 		bl	button_init
 1761              	.LVL133:
 264:.\key.c       ****     button_start (&SWITCH_1_high);
 1762              		.loc 1 264 0
ARM GAS  C:\Users\pxc\AppData\Local\Temp\ccWBOefJ.s 			page 42


 1763 0142 2046     		mov	r0, r4
 1764 0144 0021     		movs	r1, #0
 1765 0146 364A     		ldr	r2, .L149+92
 1766 0148 FFF7FEFF 		bl	button_attach
 1767              	.LVL134:
 265:.\key.c       **** //SWITCH_2
 1768              		.loc 1 265 0
 1769 014c 2046     		mov	r0, r4
 1770 014e FFF7FEFF 		bl	button_start
 1771              	.LVL135:
 267:.\key.c       ****     button_attach(&SWITCH_2_low, PRESS_UP, Callback_SWITCH_2_low_press_up);
 1772              		.loc 1 267 0
 1773 0152 344C     		ldr	r4, .L149+96
 1774 0154 344D     		ldr	r5, .L149+100
 1775 0156 2046     		mov	r0, r4
 1776 0158 2946     		mov	r1, r5
 1777 015a 0022     		movs	r2, #0
 1778 015c FFF7FEFF 		bl	button_init
 1779              	.LVL136:
 268:.\key.c       ****     button_start (&SWITCH_2_low);
 1780              		.loc 1 268 0
 1781 0160 2046     		mov	r0, r4
 1782 0162 0121     		movs	r1, #1
 1783 0164 314A     		ldr	r2, .L149+104
 1784 0166 FFF7FEFF 		bl	button_attach
 1785              	.LVL137:
 269:.\key.c       ****     button_init  (&SWITCH_2_low, SWITCH_2_LOW_Read, 0);
 1786              		.loc 1 269 0
 1787 016a 2046     		mov	r0, r4
 1788 016c FFF7FEFF 		bl	button_start
 1789              	.LVL138:
 270:.\key.c       ****     button_attach(&SWITCH_2_low, PRESS_DOWN, Callback_SWITCH_2_low_press_down);
 1790              		.loc 1 270 0
 1791 0170 2046     		mov	r0, r4
 1792 0172 2946     		mov	r1, r5
 1793 0174 0022     		movs	r2, #0
 1794 0176 FFF7FEFF 		bl	button_init
 1795              	.LVL139:
 271:.\key.c       ****     button_start (&SWITCH_2_low);
 1796              		.loc 1 271 0
 1797 017a 2046     		mov	r0, r4
 1798 017c 0021     		movs	r1, #0
 1799 017e 2C4A     		ldr	r2, .L149+108
 1800 0180 FFF7FEFF 		bl	button_attach
 1801              	.LVL140:
 272:.\key.c       ****     
 1802              		.loc 1 272 0
 1803 0184 2046     		mov	r0, r4
 1804 0186 FFF7FEFF 		bl	button_start
 1805              	.LVL141:
 274:.\key.c       ****     button_attach(&SWITCH_2_high, PRESS_UP, Callback_SWITCH_2_high_press_up);
 1806              		.loc 1 274 0
 1807 018a 2A4C     		ldr	r4, .L149+112
 1808 018c 2A4D     		ldr	r5, .L149+116
 1809 018e 2046     		mov	r0, r4
 1810 0190 2946     		mov	r1, r5
 1811 0192 0022     		movs	r2, #0
ARM GAS  C:\Users\pxc\AppData\Local\Temp\ccWBOefJ.s 			page 43


 1812 0194 FFF7FEFF 		bl	button_init
 1813              	.LVL142:
 275:.\key.c       ****     button_start (&SWITCH_2_high);
 1814              		.loc 1 275 0
 1815 0198 2046     		mov	r0, r4
 1816 019a 0121     		movs	r1, #1
 1817 019c 274A     		ldr	r2, .L149+120
 1818 019e FFF7FEFF 		bl	button_attach
 1819              	.LVL143:
 276:.\key.c       ****     button_init  (&SWITCH_2_high, SWITCH_2_HIGH_Read, 0);
 1820              		.loc 1 276 0
 1821 01a2 2046     		mov	r0, r4
 1822 01a4 FFF7FEFF 		bl	button_start
 1823              	.LVL144:
 277:.\key.c       ****     button_attach(&SWITCH_2_high, PRESS_DOWN, Callback_SWITCH_2_high_press_down);
 1824              		.loc 1 277 0
 1825 01a8 2046     		mov	r0, r4
 1826 01aa 2946     		mov	r1, r5
 1827 01ac 0022     		movs	r2, #0
 1828 01ae FFF7FEFF 		bl	button_init
 1829              	.LVL145:
 278:.\key.c       ****     button_start (&SWITCH_2_high);    
 1830              		.loc 1 278 0
 1831 01b2 2046     		mov	r0, r4
 1832 01b4 0021     		movs	r1, #0
 1833 01b6 224A     		ldr	r2, .L149+124
 1834 01b8 FFF7FEFF 		bl	button_attach
 1835              	.LVL146:
 279:.\key.c       ****     ////1
 1836              		.loc 1 279 0
 1837 01bc 2046     		mov	r0, r4
 1838 01be FFF7FEFF 		bl	button_start
 1839              	.LVL147:
 1840 01c2 38BD     		pop	{r3, r4, r5, pc}
 1841              	.L150:
 1842              		.align	2
 1843              	.L149:
 1844 01c4 00000000 		.word	STR1
 1845 01c8 00000000 		.word	STR1_Read
 1846 01cc 00000000 		.word	Callback_STR1_press_up
 1847 01d0 00000000 		.word	Callback_STR1_down
 1848 01d4 00000000 		.word	STR2
 1849 01d8 00000000 		.word	STR2_Read
 1850 01dc 00000000 		.word	Callback_STR2_press_up
 1851 01e0 00000000 		.word	Callback_STR2_press_down
 1852 01e4 00000000 		.word	MSR_low
 1853 01e8 00000000 		.word	MSR_LOW_Read
 1854 01ec 00000000 		.word	Callback_MSR_low_press_up
 1855 01f0 00000000 		.word	Callback_MSR_low_press_down
 1856 01f4 00000000 		.word	MSR_high
 1857 01f8 00000000 		.word	MSR_HIGH_Read
 1858 01fc 00000000 		.word	Callback_MSR_high_press_up
 1859 0200 00000000 		.word	Callback_MSR_high_press_down
 1860 0204 00000000 		.word	SWITCH_1_low
 1861 0208 00000000 		.word	SWITCH_1_LOW_Read
 1862 020c 00000000 		.word	Callback_SWITCH_1_low_press_up
 1863 0210 00000000 		.word	Callback_SWITCH_1_low_press_down
ARM GAS  C:\Users\pxc\AppData\Local\Temp\ccWBOefJ.s 			page 44


 1864 0214 00000000 		.word	SWITCH_1_high
 1865 0218 00000000 		.word	SWITCH_1_HIGH_Read
 1866 021c 00000000 		.word	Callback_SWITCH_1_high_press_up
 1867 0220 00000000 		.word	Callback_SWITCH_1_high_press_down
 1868 0224 00000000 		.word	SWITCH_2_low
 1869 0228 00000000 		.word	SWITCH_2_LOW_Read
 1870 022c 00000000 		.word	Callback_SWITCH_2_low_press_up
 1871 0230 00000000 		.word	Callback_SWITCH_2_low_press_down
 1872 0234 00000000 		.word	SWITCH_2_high
 1873 0238 00000000 		.word	SWITCH_2_HIGH_Read
 1874 023c 00000000 		.word	Callback_SWITCH_2_high_press_up
 1875 0240 00000000 		.word	Callback_SWITCH_2_high_press_down
 1876              		.cfi_endproc
 1877              	.LFE101:
 1878              		.size	init_button, .-init_button
 1879              		.section	.text.button_stop,"ax",%progbits
 1880              		.align	2
 1881              		.global	button_stop
 1882              		.thumb
 1883              		.thumb_func
 1884              		.type	button_stop, %function
 1885              	button_stop:
 1886              	.LFB107:
 494:.\key.c       **** 
 495:.\key.c       **** void button_stop(struct Button* handle)
 496:.\key.c       **** {
 1887              		.loc 1 496 0
 1888              		.cfi_startproc
 1889              		@ args = 0, pretend = 0, frame = 0
 1890              		@ frame_needed = 0, uses_anonymous_args = 0
 1891              		@ link register save eliminated.
 1892              	.LVL148:
 497:.\key.c       **** 	struct Button** curr;
 498:.\key.c       **** 	for(curr = &head_handle; *curr; ) {
 1893              		.loc 1 498 0
 1894 0000 064A     		ldr	r2, .L156
 1895 0002 06E0     		b	.L152
 1896              	.LVL149:
 1897              	.L155:
 1898              	.LBB2:
 499:.\key.c       **** 		struct Button* entry = *curr;
 500:.\key.c       **** 		if (entry == handle) {
 1899              		.loc 1 500 0
 1900 0004 8342     		cmp	r3, r0
 1901 0006 02D1     		bne	.L153
 501:.\key.c       **** 			*curr = entry->next;
 1902              		.loc 1 501 0
 1903 0008 5B6A     		ldr	r3, [r3, #36]
 1904              	.LVL150:
 1905 000a 1360     		str	r3, [r2]
 1906              	.LVL151:
 1907 000c 01E0     		b	.L152
 1908              	.LVL152:
 1909              	.L153:
 502:.\key.c       **** //			free(entry);
 503:.\key.c       **** 		} else
 504:.\key.c       **** 			curr = &entry->next;
ARM GAS  C:\Users\pxc\AppData\Local\Temp\ccWBOefJ.s 			page 45


 1910              		.loc 1 504 0
 1911 000e 03F12402 		add	r2, r3, #36
 1912              	.LVL153:
 1913              	.L152:
 1914              	.LBE2:
 498:.\key.c       **** 		struct Button* entry = *curr;
 1915              		.loc 1 498 0 discriminator 1
 1916 0012 1368     		ldr	r3, [r2]
 1917 0014 002B     		cmp	r3, #0
 1918 0016 F5D1     		bne	.L155
 505:.\key.c       **** 	}
 506:.\key.c       **** }
 1919              		.loc 1 506 0
 1920 0018 7047     		bx	lr
 1921              	.L157:
 1922 001a 00BF     		.align	2
 1923              	.L156:
 1924 001c 00000000 		.word	.LANCHOR0
 1925              		.cfi_endproc
 1926              	.LFE107:
 1927              		.size	button_stop, .-button_stop
 1928              		.section	.text.button_ticks,"ax",%progbits
 1929              		.align	2
 1930              		.global	button_ticks
 1931              		.thumb
 1932              		.thumb_func
 1933              		.type	button_ticks, %function
 1934              	button_ticks:
 1935              	.LFB108:
 507:.\key.c       **** 
 508:.\key.c       **** 
 509:.\key.c       **** void button_ticks()
 510:.\key.c       **** {
 1936              		.loc 1 510 0
 1937              		.cfi_startproc
 1938              		@ args = 0, pretend = 0, frame = 0
 1939              		@ frame_needed = 0, uses_anonymous_args = 0
 1940 0000 10B5     		push	{r4, lr}
 1941              		.cfi_def_cfa_offset 8
 1942              		.cfi_offset 4, -8
 1943              		.cfi_offset 14, -4
 511:.\key.c       **** 	struct Button* target;
 512:.\key.c       **** 	for(target=head_handle; target; target=target->next) {
 1944              		.loc 1 512 0
 1945 0002 054B     		ldr	r3, .L162
 1946 0004 1C68     		ldr	r4, [r3]
 1947              	.LVL154:
 1948 0006 03E0     		b	.L159
 1949              	.L160:
 513:.\key.c       **** 		button_handler(target);
 1950              		.loc 1 513 0 discriminator 3
 1951 0008 2046     		mov	r0, r4
 1952 000a FFF7FEFF 		bl	button_handler
 1953              	.LVL155:
 512:.\key.c       **** 		button_handler(target);
 1954              		.loc 1 512 0 discriminator 3
 1955 000e 646A     		ldr	r4, [r4, #36]
ARM GAS  C:\Users\pxc\AppData\Local\Temp\ccWBOefJ.s 			page 46


 1956              	.LVL156:
 1957              	.L159:
 512:.\key.c       **** 		button_handler(target);
 1958              		.loc 1 512 0 is_stmt 0 discriminator 1
 1959 0010 002C     		cmp	r4, #0
 1960 0012 F9D1     		bne	.L160
 514:.\key.c       **** 	}
 515:.\key.c       **** }
 1961              		.loc 1 515 0 is_stmt 1
 1962 0014 10BD     		pop	{r4, pc}
 1963              	.LVL157:
 1964              	.L163:
 1965 0016 00BF     		.align	2
 1966              	.L162:
 1967 0018 00000000 		.word	.LANCHOR0
 1968              		.cfi_endproc
 1969              	.LFE108:
 1970              		.size	button_ticks, .-button_ticks
 1971              		.global	Car_speed_base
 1972              		.comm	temp1,1,1
 1973              		.comm	temp,1,1
 1974              		.comm	SWITCH_2_low,40,4
 1975              		.comm	SWITCH_2_high,40,4
 1976              		.comm	SWITCH_1_low,40,4
 1977              		.comm	SWITCH_1_high,40,4
 1978              		.comm	MSR_low,40,4
 1979              		.comm	MSR_high,40,4
 1980              		.comm	STR2,40,4
 1981              		.comm	STR1,40,4
 1982              		.comm	led_start,40,4
 1983              		.comm	key_speed_high,40,4
 1984              		.comm	key_speed_low,40,4
 1985              		.comm	PTZ_right,40,4
 1986              		.comm	PTZ_left,40,4
 1987              		.comm	PTZ_down,40,4
 1988              		.comm	PTZ_up,40,4
 1989              		.comm	key_right,40,4
 1990              		.comm	key_left,40,4
 1991              		.comm	key_down,40,4
 1992              		.comm	key_up,40,4
 1993              		.global	led_send
 1994              		.comm	g_Car,20,4
 1995              		.data
 1996              		.align	1
 1997              		.type	Car_speed_base, %object
 1998              		.size	Car_speed_base, 2
 1999              	Car_speed_base:
 2000 0000 E803     		.short	1000
 2001              		.section	.rodata.str1.4,"aMS",%progbits,1
 2002              		.align	2
 2003              	.LC0:
 2004 0000 73747231 		.ascii	"str1_up\000"
 2004      5F757000 
 2005              	.LC1:
 2006 0008 0D0A00   		.ascii	"\015\012\000"
 2007 000b 00       		.space	1
 2008              	.LC2:
ARM GAS  C:\Users\pxc\AppData\Local\Temp\ccWBOefJ.s 			page 47


 2009 000c 73747231 		.ascii	"str1_down\000"
 2009      5F646F77 
 2009      6E00
 2010 0016 0000     		.space	2
 2011              	.LC3:
 2012 0018 73747232 		.ascii	"str2_up\000"
 2012      5F757000 
 2013              	.LC4:
 2014 0020 73747232 		.ascii	"str2_down\000"
 2014      5F646F77 
 2014      6E00
 2015 002a 0000     		.space	2
 2016              	.LC5:
 2017 002c 4D53525F 		.ascii	"MSR_low_up\000"
 2017      6C6F775F 
 2017      757000
 2018 0037 00       		.space	1
 2019              	.LC6:
 2020 0038 4D53525F 		.ascii	"MSR_low_down\000"
 2020      6C6F775F 
 2020      646F776E 
 2020      00
 2021 0045 000000   		.space	3
 2022              	.LC7:
 2023 0048 4D53525F 		.ascii	"MSR_high_up\000"
 2023      68696768 
 2023      5F757000 
 2024              	.LC8:
 2025 0054 4D53525F 		.ascii	"MSR_high_down\000"
 2025      68696768 
 2025      5F646F77 
 2025      6E00
 2026 0062 0000     		.space	2
 2027              	.LC9:
 2028 0064 43616C6C 		.ascii	"Callback_SWITCH_1_low_press_up\000"
 2028      6261636B 
 2028      5F535749 
 2028      5443485F 
 2028      315F6C6F 
 2029 0083 00       		.space	1
 2030              	.LC10:
 2031 0084 43616C6C 		.ascii	"Callback_SWITCH_1_low_press_down\000"
 2031      6261636B 
 2031      5F535749 
 2031      5443485F 
 2031      315F6C6F 
 2032 00a5 000000   		.space	3
 2033              	.LC11:
 2034 00a8 43616C6C 		.ascii	"Callback_SWITCH_1_high_press_up\000"
 2034      6261636B 
 2034      5F535749 
 2034      5443485F 
 2034      315F6869 
 2035              	.LC12:
 2036 00c8 43616C6C 		.ascii	"Callback_SWITCH_1_high_press_down\000"
 2036      6261636B 
 2036      5F535749 
ARM GAS  C:\Users\pxc\AppData\Local\Temp\ccWBOefJ.s 			page 48


 2036      5443485F 
 2036      315F6869 
 2037 00ea 0000     		.space	2
 2038              	.LC13:
 2039 00ec 43616C6C 		.ascii	"Callback_SWITCH_2_low_press_up\000"
 2039      6261636B 
 2039      5F535749 
 2039      5443485F 
 2039      325F6C6F 
 2040 010b 00       		.space	1
 2041              	.LC14:
 2042 010c 43616C6C 		.ascii	"Callback_SWITCH_2_low_press_down\000"
 2042      6261636B 
 2042      5F535749 
 2042      5443485F 
 2042      325F6C6F 
 2043 012d 000000   		.space	3
 2044              	.LC15:
 2045 0130 43616C6C 		.ascii	"Callback_SWITCH_2_high_press_up\000"
 2045      6261636B 
 2045      5F535749 
 2045      5443485F 
 2045      325F6869 
 2046              	.LC16:
 2047 0150 43616C6C 		.ascii	"Callback_SWITCH_2_high_press_down\000"
 2047      6261636B 
 2047      5F535749 
 2047      5443485F 
 2047      325F6869 
 2048 0172 0000     		.bss
 2049              		.align	2
 2050              		.set	.LANCHOR0,. + 0
 2051              		.type	head_handle, %object
 2052              		.size	head_handle, 4
 2053              	head_handle:
 2054 0000 00000000 		.space	4
 2055              		.type	led_send, %object
 2056              		.size	led_send, 4
 2057              	led_send:
 2058 0004 00000000 		.space	4
 2059              		.text
 2060              	.Letext0:
 2061              		.file 2 "c:\\program files (x86)\\cypress\\psoc creator\\3.3\\psoc creator\\import\\gnu\\arm\\4.9.
 2062              		.file 3 "c:\\program files (x86)\\cypress\\psoc creator\\3.3\\psoc creator\\import\\gnu\\arm\\4.9.
 2063              		.file 4 ".\\key.h"
 2064              		.file 5 "Generated_Source\\PSoC5/cytypes.h"
 2065              		.file 6 ".\\car.h"
 2066              		.file 7 "Generated_Source\\PSoC5/core_cm3.h"
 2067              		.file 8 "Generated_Source\\PSoC5/UART_net.h"
 2068              		.file 9 ".\\Transfer.h"