ARM GAS  C:\Users\pxc\AppData\Local\Temp\cckNWg9K.s 			page 1


   1              		.syntax unified
   2              		.cpu cortex-m3
   3              		.fpu softvfp
   4              		.eabi_attribute 20, 1
   5              		.eabi_attribute 21, 1
   6              		.eabi_attribute 23, 3
   7              		.eabi_attribute 24, 1
   8              		.eabi_attribute 25, 1
   9              		.eabi_attribute 26, 1
  10              		.eabi_attribute 30, 1
  11              		.eabi_attribute 34, 1
  12              		.eabi_attribute 18, 4
  13              		.thumb
  14              		.file	"main.c"
  15              		.text
  16              	.Ltext0:
  17              		.cfi_sections	.debug_frame
  18              		.section	.text.main,"ax",%progbits
  19              		.align	2
  20              		.global	main
  21              		.thumb
  22              		.thumb_func
  23              		.type	main, %function
  24              	main:
  25              	.LFB63:
  26              		.file 1 ".\\main.c"
   1:.\main.c      **** /* ========================================
   2:.\main.c      ****  *
   3:.\main.c      ****  * Copyright YOUR COMPANY, THE YEAR
   4:.\main.c      ****  * All Rights Reserved
   5:.\main.c      ****  * UNPUBLISHED, LICENSED SOFTWARE.
   6:.\main.c      ****  *
   7:.\main.c      ****  * CONFIDENTIAL AND PROPRIETARY INFORMATION
   8:.\main.c      ****  * WHICH IS THE PROPERTY OF your company.
   9:.\main.c      ****  *
  10:.\main.c      ****  * ========================================
  11:.\main.c      **** */
  12:.\main.c      **** #include <project.h>
  13:.\main.c      **** #include "ADC_V.h"
  14:.\main.c      **** #include "Transfer.h"
  15:.\main.c      **** #include "key.h"
  16:.\main.c      **** #include "buzzer.h"
  17:.\main.c      **** 
  18:.\main.c      **** 
  19:.\main.c      **** char8 command_connect[] = "AT+CONNL";
  20:.\main.c      **** 
  21:.\main.c      **** extern uint8 time_5ms_state;
  22:.\main.c      **** extern uint8 time_1s_state;
  23:.\main.c      **** void put_num(uint16 n);
  24:.\main.c      **** int main()
  25:.\main.c      **** {
  27              		.loc 1 25 0
  28              		.cfi_startproc
  29              		@ Volatile: function does not return.
  30              		@ args = 0, pretend = 0, frame = 0
  31              		@ frame_needed = 0, uses_anonymous_args = 0
  32 0000 00B5     		push	{lr}
ARM GAS  C:\Users\pxc\AppData\Local\Temp\cckNWg9K.s 			page 2


  33              		.cfi_def_cfa_offset 4
  34              		.cfi_offset 14, -4
  35 0002 87B0     		sub	sp, sp, #28
  36              		.cfi_def_cfa_offset 32
  26:.\main.c      ****     
  27:.\main.c      ****     CyGlobalIntEnable; /* Enable global interrupts. */
  37              		.loc 1 27 0
  38              	@ 27 ".\main.c" 1
  39 0004 62B6     		CPSIE   i
  40              	@ 0 "" 2
  28:.\main.c      ****   
  29:.\main.c      ****     /* Place your initialization/startup code here (e.g. MyInst_Start()) */
  30:.\main.c      ****   //  bzr_Init();
  31:.\main.c      ****     init_button();
  41              		.loc 1 31 0
  42              		.thumb
  43 0006 FFF7FEFF 		bl	init_button
  44              	.LVL0:
  32:.\main.c      ****    
  33:.\main.c      ****     UART_net_Init();
  45              		.loc 1 33 0
  46 000a FFF7FEFF 		bl	UART_net_Init
  47              	.LVL1:
  34:.\main.c      ****      
  35:.\main.c      ****     UART_net_Start();
  48              		.loc 1 35 0
  49 000e FFF7FEFF 		bl	UART_net_Start
  50              	.LVL2:
  36:.\main.c      ****  
  37:.\main.c      ****     Timer_1_Start(); 
  51              		.loc 1 37 0
  52 0012 FFF7FEFF 		bl	Timer_1_Start
  53              	.LVL3:
  38:.\main.c      ****     isr_timer_Start();
  54              		.loc 1 38 0
  55 0016 FFF7FEFF 		bl	isr_timer_Start
  56              	.LVL4:
  39:.\main.c      ****     
  40:.\main.c      ****     isr_rx_net_Start();
  57              		.loc 1 40 0
  58 001a FFF7FEFF 		bl	isr_rx_net_Start
  59              	.LVL5:
  41:.\main.c      ****     Monitor_Battery_Init();
  60              		.loc 1 41 0
  61 001e FFF7FEFF 		bl	Monitor_Battery_Init
  62              	.LVL6:
  42:.\main.c      **** 
  43:.\main.c      ****    // CyDelay(100);
  44:.\main.c      ****    // UART_net_PutString(command_connect);
  45:.\main.c      ****  //  CyDelay(500);
  46:.\main.c      **** //    bzr_SetBell(400,400,1,0,1); 
  47:.\main.c      ****   //  isr_net_Start();
  48:.\main.c      ****   //  PWM_MOTOR_WriteCompare1(100);
  49:.\main.c      ****     CyDelay(3000);
  63              		.loc 1 49 0
  64 0022 40F6B830 		movw	r0, #3000
  65 0026 FFF7FEFF 		bl	CyDelay
ARM GAS  C:\Users\pxc\AppData\Local\Temp\cckNWg9K.s 			page 3


  66              	.LVL7:
  50:.\main.c      ****     UART_net_PutString("Init_ok \r\n");
  67              		.loc 1 50 0
  68 002a 1E48     		ldr	r0, .L6
  69 002c FFF7FEFF 		bl	UART_net_PutString
  70              	.LVL8:
  51:.\main.c      ****     UART_net_PutString("Hardware--V5.0\r\n");
  71              		.loc 1 51 0
  72 0030 1D48     		ldr	r0, .L6+4
  73 0032 FFF7FEFF 		bl	UART_net_PutString
  74              	.LVL9:
  52:.\main.c      ****     UART_net_PutString("Software--V.C.1.0\r\n");
  75              		.loc 1 52 0
  76 0036 1D48     		ldr	r0, .L6+8
  77 0038 FFF7FEFF 		bl	UART_net_PutString
  78              	.LVL10:
  53:.\main.c      ****     WARNING_BLUE_Write(0);
  79              		.loc 1 53 0
  80 003c 0020     		movs	r0, #0
  81 003e FFF7FEFF 		bl	WARNING_BLUE_Write
  82              	.LVL11:
  54:.\main.c      ****     WARNING_GREEN_Write(0);
  83              		.loc 1 54 0
  84 0042 0020     		movs	r0, #0
  85 0044 FFF7FEFF 		bl	WARNING_GREEN_Write
  86              	.LVL12:
  55:.\main.c      ****     WARNING_RED_Write(0);
  87              		.loc 1 55 0
  88 0048 0020     		movs	r0, #0
  89 004a FFF7FEFF 		bl	WARNING_RED_Write
  90              	.LVL13:
  91              	.L3:
  56:.\main.c      ****     for(;;)
  57:.\main.c      ****     {
  58:.\main.c      ****       /* Place your application code here. */
  59:.\main.c      ****       // UART_net_WriteTxData(0xff);
  60:.\main.c      ****     
  61:.\main.c      ****         
  62:.\main.c      ****       // DT_Data_Exchange();
  63:.\main.c      ****       // UART_net_PutChar(0xfe);
  64:.\main.c      ****       //Car_Dir(UP,1000);
  65:.\main.c      ****     if( time_1s_state == 1)
  92              		.loc 1 65 0
  93 004e 184B     		ldr	r3, .L6+12
  94 0050 1B78     		ldrb	r3, [r3]	@ zero_extendqisi2
  95 0052 012B     		cmp	r3, #1
  96 0054 1CD1     		bne	.L2
  97              	.LBB2:
  66:.\main.c      ****     {
  67:.\main.c      ****         Cal_Battery_loop();
  98              		.loc 1 67 0
  99 0056 FFF7FEFF 		bl	Cal_Battery_loop
 100              	.LVL14:
  68:.\main.c      ****         printf("CAR_X:%d | CAR_Y:%d | PTZ_X:%d |PTZ_Y:%d | LED1:%d | LED2:%d | LED3:%d | SPEED:%d \
 101              		.loc 1 68 0
 102 005a 164B     		ldr	r3, .L6+16
 103 005c 1988     		ldrh	r1, [r3]
ARM GAS  C:\Users\pxc\AppData\Local\Temp\cckNWg9K.s 			page 4


 104 005e 164B     		ldr	r3, .L6+20
 105 0060 1A88     		ldrh	r2, [r3]
 106 0062 164B     		ldr	r3, .L6+24
 107 0064 1B88     		ldrh	r3, [r3]
 108 0066 1648     		ldr	r0, .L6+28
 109 0068 0088     		ldrh	r0, [r0]
 110 006a 0090     		str	r0, [sp]
 111 006c 1548     		ldr	r0, .L6+32
 112 006e 0088     		ldrh	r0, [r0]
 113 0070 0190     		str	r0, [sp, #4]
 114 0072 1548     		ldr	r0, .L6+36
 115 0074 0088     		ldrh	r0, [r0]
 116 0076 0290     		str	r0, [sp, #8]
 117 0078 1448     		ldr	r0, .L6+40
 118 007a 0088     		ldrh	r0, [r0]
 119 007c 0390     		str	r0, [sp, #12]
 120 007e 1448     		ldr	r0, .L6+44
 121 0080 0088     		ldrh	r0, [r0]
 122 0082 0490     		str	r0, [sp, #16]
 123 0084 1348     		ldr	r0, .L6+48
 124 0086 FFF7FEFF 		bl	printf
 125              	.LVL15:
  69:.\main.c      ****         
  70:.\main.c      ****         time_1s_state = 0;
 126              		.loc 1 70 0
 127 008a 0022     		movs	r2, #0
 128 008c 084B     		ldr	r3, .L6+12
 129 008e 1A70     		strb	r2, [r3]
 130              	.L2:
 131              	.LBE2:
  71:.\main.c      ****         
  72:.\main.c      ****     }
  73:.\main.c      ****    if(time_5ms_state == 1)
 132              		.loc 1 73 0
 133 0090 114B     		ldr	r3, .L6+52
 134 0092 1B78     		ldrb	r3, [r3]	@ zero_extendqisi2
 135 0094 012B     		cmp	r3, #1
 136 0096 DAD1     		bne	.L3
  74:.\main.c      ****     {
  75:.\main.c      ****            button_ticks();
 137              		.loc 1 75 0
 138 0098 FFF7FEFF 		bl	button_ticks
 139              	.LVL16:
  76:.\main.c      ****            time_5ms_state = 0;
 140              		.loc 1 76 0
 141 009c 0022     		movs	r2, #0
 142 009e 0E4B     		ldr	r3, .L6+52
 143 00a0 1A70     		strb	r2, [r3]
 144 00a2 D4E7     		b	.L3
 145              	.L7:
 146              		.align	2
 147              	.L6:
 148 00a4 00000000 		.word	.LC0
 149 00a8 0C000000 		.word	.LC1
 150 00ac 20000000 		.word	.LC2
 151 00b0 00000000 		.word	time_1s_state
 152 00b4 00000000 		.word	CAR_X_V
ARM GAS  C:\Users\pxc\AppData\Local\Temp\cckNWg9K.s 			page 5


 153 00b8 00000000 		.word	CAR_Y_V
 154 00bc 00000000 		.word	PTZ_X_V
 155 00c0 00000000 		.word	PTZ_Y_V
 156 00c4 00000000 		.word	LED_1_V
 157 00c8 00000000 		.word	LED_2_V
 158 00cc 00000000 		.word	LED_3_V
 159 00d0 00000000 		.word	CAR_SPEED_V
 160 00d4 34000000 		.word	.LC3
 161 00d8 00000000 		.word	time_5ms_state
 162              		.cfi_endproc
 163              	.LFE63:
 164              		.size	main, .-main
 165              		.section	.text._write,"ax",%progbits
 166              		.align	2
 167              		.global	_write
 168              		.thumb
 169              		.thumb_func
 170              		.type	_write, %function
 171              	_write:
 172              	.LFB64:
  77:.\main.c      ****            
  78:.\main.c      ****     }
  79:.\main.c      ****     }
  80:.\main.c      **** }
  81:.\main.c      **** 
  82:.\main.c      **** int _write(int file, char *ptr, int len)
  83:.\main.c      **** {
 173              		.loc 1 83 0
 174              		.cfi_startproc
 175              		@ args = 0, pretend = 0, frame = 0
 176              		@ frame_needed = 0, uses_anonymous_args = 0
 177              	.LVL17:
 178 0000 70B5     		push	{r4, r5, r6, lr}
 179              		.cfi_def_cfa_offset 16
 180              		.cfi_offset 4, -16
 181              		.cfi_offset 5, -12
 182              		.cfi_offset 6, -8
 183              		.cfi_offset 14, -4
 184 0002 1646     		mov	r6, r2
 185              	.LVL18:
  84:.\main.c      ****     int i;
  85:.\main.c      ****     file = file;
  86:.\main.c      ****     for (i = 0; i < len; i++)
 186              		.loc 1 86 0
 187 0004 0024     		movs	r4, #0
 188 0006 05E0     		b	.L9
 189              	.LVL19:
 190              	.L10:
  87:.\main.c      ****     {
  88:.\main.c      ****         UART_net_PutChar(*ptr++);
 191              		.loc 1 88 0 discriminator 3
 192 0008 4D1C     		adds	r5, r1, #1
 193              	.LVL20:
 194 000a 0878     		ldrb	r0, [r1]	@ zero_extendqisi2
 195 000c FFF7FEFF 		bl	UART_net_PutChar
 196              	.LVL21:
  86:.\main.c      ****     {
ARM GAS  C:\Users\pxc\AppData\Local\Temp\cckNWg9K.s 			page 6


 197              		.loc 1 86 0 discriminator 3
 198 0010 0134     		adds	r4, r4, #1
 199              	.LVL22:
 200              		.loc 1 88 0 discriminator 3
 201 0012 2946     		mov	r1, r5
 202              	.LVL23:
 203              	.L9:
  86:.\main.c      ****     {
 204              		.loc 1 86 0 discriminator 1
 205 0014 B442     		cmp	r4, r6
 206 0016 F7DB     		blt	.L10
  89:.\main.c      ****     }
  90:.\main.c      ****     return len;
  91:.\main.c      **** }
 207              		.loc 1 91 0
 208 0018 3046     		mov	r0, r6
 209 001a 70BD     		pop	{r4, r5, r6, pc}
 210              		.cfi_endproc
 211              	.LFE64:
 212              		.size	_write, .-_write
 213              		.global	command_connect
 214              		.comm	g_Car,20,4
 215              		.comm	CAR_SPEED_V,2,2
 216              		.comm	LED_3_V,2,2
 217              		.comm	LED_2_V,2,2
 218              		.comm	LED_1_V,2,2
 219              		.comm	PTZ_Y_V,2,2
 220              		.comm	PTZ_X_V,2,2
 221              		.comm	CAR_Y_V,2,2
 222              		.comm	CAR_X_V,2,2
 223              		.comm	B_V,2,2
 224              		.data
 225              		.align	2
 226              		.type	command_connect, %object
 227              		.size	command_connect, 9
 228              	command_connect:
 229 0000 41542B43 		.ascii	"AT+CONNL\000"
 229      4F4E4E4C 
 229      00
 230 0009 000000   		.section	.rodata.str1.4,"aMS",%progbits,1
 231              		.align	2
 232              	.LC0:
 233 0000 496E6974 		.ascii	"Init_ok \015\012\000"
 233      5F6F6B20 
 233      0D0A00
 234 000b 00       		.space	1
 235              	.LC1:
 236 000c 48617264 		.ascii	"Hardware--V5.0\015\012\000"
 236      77617265 
 236      2D2D5635 
 236      2E300D0A 
 236      00
 237 001d 000000   		.space	3
 238              	.LC2:
 239 0020 536F6674 		.ascii	"Software--V.C.1.0\015\012\000"
 239      77617265 
 239      2D2D562E 
ARM GAS  C:\Users\pxc\AppData\Local\Temp\cckNWg9K.s 			page 7


 239      432E312E 
 239      300D0A00 
 240              	.LC3:
 241 0034 4341525F 		.ascii	"CAR_X:%d | CAR_Y:%d | PTZ_X:%d |PTZ_Y:%d | LED1:%d "
 241      583A2564 
 241      207C2043 
 241      41525F59 
 241      3A256420 
 242 0067 7C204C45 		.ascii	"| LED2:%d | LED3:%d | SPEED:%d \015\012\000"
 242      44323A25 
 242      64207C20 
 242      4C454433 
 242      3A256420 
 243 0089 000000   		.text
 244              	.Letext0:
 245              		.file 2 "c:\\program files (x86)\\cypress\\psoc creator\\3.3\\psoc creator\\import\\gnu\\arm\\4.9.
 246              		.file 3 "c:\\program files (x86)\\cypress\\psoc creator\\3.3\\psoc creator\\import\\gnu\\arm\\4.9.
 247              		.file 4 "Generated_Source\\PSoC5/cytypes.h"
 248              		.file 5 ".\\car.h"
 249              		.file 6 "Generated_Source\\PSoC5/core_cm3.h"
 250              		.file 7 ".\\ADC_V.h"
 251              		.file 8 "<built-in>"
 252              		.file 9 ".\\key.h"
 253              		.file 10 "Generated_Source\\PSoC5/UART_net.h"
 254              		.file 11 "Generated_Source\\PSoC5/Timer_1.h"
 255              		.file 12 "Generated_Source\\PSoC5/isr_timer.h"
 256              		.file 13 "Generated_Source\\PSoC5/isr_rx_net.h"
 257              		.file 14 "Generated_Source\\PSoC5/CyLib.h"
 258              		.file 15 "Generated_Source\\PSoC5/WARNING_BLUE.h"
 259              		.file 16 "Generated_Source\\PSoC5/WARNING_GREEN.h"
 260              		.file 17 "Generated_Source\\PSoC5/WARNING_RED.h"