ARM GAS  C:\Users\pxc\AppData\Local\Temp\cc2GRTtY.s 			page 1


   1              		.syntax unified
   2              		.cpu cortex-m3
   3              		.fpu softvfp
   4              		.eabi_attribute 20, 1
   5              		.eabi_attribute 21, 1
   6              		.eabi_attribute 23, 3
   7              		.eabi_attribute 24, 1
   8              		.eabi_attribute 25, 1
   9              		.eabi_attribute 26, 1
  10              		.eabi_attribute 30, 1
  11              		.eabi_attribute 34, 1
  12              		.eabi_attribute 18, 4
  13              		.thumb
  14              		.file	"buzzer.c"
  15              		.text
  16              	.Ltext0:
  17              		.cfi_sections	.debug_frame
  18              		.section	.text.cb_bzr_Main,"ax",%progbits
  19              		.align	2
  20              		.global	cb_bzr_Main
  21              		.thumb
  22              		.thumb_func
  23              		.type	cb_bzr_Main, %function
  24              	cb_bzr_Main:
  25              	.LFB63:
  26              		.file 1 ".\\buzzer.c"
   1:.\buzzer.c    **** 
   2:.\buzzer.c    **** #include "buzzer.h"
   3:.\buzzer.c    **** #define DISABLE 0
   4:.\buzzer.c    **** #define ENABLE  1
   5:.\buzzer.c    **** #define ON      1
   6:.\buzzer.c    **** #define OFF     0
   7:.\buzzer.c    **** /*  -----    ---         -----    ---
   8:.\buzzer.c    ****     |   |   |  |         |   |   |  |
   9:.\buzzer.c    ****     |   |t2 |  | t2+t3   |   |t2 |  |
  10:.\buzzer.c    **** ---- t1 ----   ---------
  11:.\buzzer.c    **** */
  12:.\buzzer.c    **** typedef struct 
  13:.\buzzer.c    **** {
  14:.\buzzer.c    ****     uint32_t ton;
  15:.\buzzer.c    ****     uint32_t toff;
  16:.\buzzer.c    ****     uint32_t t3;
  17:.\buzzer.c    ****     uint32_t cont;
  18:.\buzzer.c    ****     uint32_t cyc;
  19:.\buzzer.c    **** } bzr_SPL;
  20:.\buzzer.c    **** 
  21:.\buzzer.c    **** bzr_SPL Msc_Spl;
  22:.\buzzer.c    **** 
  23:.\buzzer.c    **** static uint8 msc_en = DISABLE;
  24:.\buzzer.c    **** 
  25:.\buzzer.c    **** static uint32_t  t_          = 0;
  26:.\buzzer.c    **** static uint8_t   s           = 0;
  27:.\buzzer.c    **** static uint32_t  c           = 0;
  28:.\buzzer.c    **** static uint32_t  cont_inside = 0;
  29:.\buzzer.c    **** 
  30:.\buzzer.c    **** 
  31:.\buzzer.c    **** void cb_bzr_Main(void)
ARM GAS  C:\Users\pxc\AppData\Local\Temp\cc2GRTtY.s 			page 2


  32:.\buzzer.c    **** {
  27              		.loc 1 32 0
  28              		.cfi_startproc
  29              		@ args = 0, pretend = 0, frame = 0
  30              		@ frame_needed = 0, uses_anonymous_args = 0
  31 0000 08B5     		push	{r3, lr}
  32              		.cfi_def_cfa_offset 8
  33              		.cfi_offset 3, -8
  34              		.cfi_offset 14, -4
  33:.\buzzer.c    ****     if(msc_en == ENABLE)
  35              		.loc 1 33 0
  36 0002 3E4B     		ldr	r3, .L14
  37 0004 1B78     		ldrb	r3, [r3]	@ zero_extendqisi2
  38 0006 012B     		cmp	r3, #1
  39 0008 77D1     		bne	.L1
  34:.\buzzer.c    ****     {
  35:.\buzzer.c    ****         switch(s)
  40              		.loc 1 35 0
  41 000a 3C4B     		ldr	r3, .L14
  42 000c 5B78     		ldrb	r3, [r3, #1]	@ zero_extendqisi2
  43 000e 032B     		cmp	r3, #3
  44 0010 6FD8     		bhi	.L3
  45 0012 DFE803F0 		tbb	[pc, r3]
  46              	.L5:
  47 0016 02       		.byte	(.L4-.L5)/2
  48 0017 0F       		.byte	(.L6-.L5)/2
  49 0018 1E       		.byte	(.L7-.L5)/2
  50 0019 52       		.byte	(.L8-.L5)/2
  51              		.p2align 1
  52              	.L4:
  36:.\buzzer.c    ****         {
  37:.\buzzer.c    ****             case 0:
  38:.\buzzer.c    ****                     if(Msc_Spl.ton)
  53              		.loc 1 38 0
  54 001a 394B     		ldr	r3, .L14+4
  55 001c 1B68     		ldr	r3, [r3]
  56 001e 002B     		cmp	r3, #0
  57 0020 67D0     		beq	.L3
  58              	.LBB2:
  39:.\buzzer.c    ****                     {
  40:.\buzzer.c    ****                         BUZZER_SET(ON);
  59              		.loc 1 40 0
  60 0022 0120     		movs	r0, #1
  61 0024 FFF7FEFF 		bl	Beep_Write
  62              	.LVL0:
  41:.\buzzer.c    ****                         t_ = 0;
  63              		.loc 1 41 0
  64 0028 344B     		ldr	r3, .L14
  65 002a 0022     		movs	r2, #0
  66 002c 5A60     		str	r2, [r3, #4]
  42:.\buzzer.c    ****                         s  = 1;
  67              		.loc 1 42 0
  68 002e 0122     		movs	r2, #1
  69 0030 5A70     		strb	r2, [r3, #1]
  70 0032 5EE0     		b	.L3
  71              	.L6:
  72              	.LBE2:
ARM GAS  C:\Users\pxc\AppData\Local\Temp\cc2GRTtY.s 			page 3


  43:.\buzzer.c    ****                     }
  44:.\buzzer.c    ****                     break;
  45:.\buzzer.c    ****             case 1:
  46:.\buzzer.c    ****                     if(t_ >= Msc_Spl.ton)
  73              		.loc 1 46 0
  74 0034 324B     		ldr	r3, .L14+4
  75 0036 1A68     		ldr	r2, [r3]
  76 0038 304B     		ldr	r3, .L14
  77 003a 5B68     		ldr	r3, [r3, #4]
  78 003c 9A42     		cmp	r2, r3
  79 003e 58D8     		bhi	.L3
  80              	.LBB3:
  47:.\buzzer.c    ****                     {
  48:.\buzzer.c    ****                         BUZZER_SET(OFF);
  81              		.loc 1 48 0
  82 0040 0020     		movs	r0, #0
  83 0042 FFF7FEFF 		bl	Beep_Write
  84              	.LVL1:
  49:.\buzzer.c    ****                         t_ = 0;
  85              		.loc 1 49 0
  86 0046 2D4B     		ldr	r3, .L14
  87 0048 0022     		movs	r2, #0
  88 004a 5A60     		str	r2, [r3, #4]
  50:.\buzzer.c    ****                         s  = 2;
  89              		.loc 1 50 0
  90 004c 0222     		movs	r2, #2
  91 004e 5A70     		strb	r2, [r3, #1]
  92 0050 4FE0     		b	.L3
  93              	.L7:
  94              	.LBE3:
  51:.\buzzer.c    ****                     }
  52:.\buzzer.c    ****                     break;
  53:.\buzzer.c    ****             case 2:
  54:.\buzzer.c    ****                     if(t_ >= Msc_Spl.toff)
  95              		.loc 1 54 0
  96 0052 2B4B     		ldr	r3, .L14+4
  97 0054 5A68     		ldr	r2, [r3, #4]
  98 0056 294B     		ldr	r3, .L14
  99 0058 5B68     		ldr	r3, [r3, #4]
 100 005a 9A42     		cmp	r2, r3
 101 005c 49D8     		bhi	.L3
  55:.\buzzer.c    ****                     {
  56:.\buzzer.c    ****                         if(Msc_Spl.cont > (++cont_inside))
 102              		.loc 1 56 0
 103 005e 284B     		ldr	r3, .L14+4
 104 0060 D968     		ldr	r1, [r3, #12]
 105 0062 264A     		ldr	r2, .L14
 106 0064 9368     		ldr	r3, [r2, #8]
 107 0066 0133     		adds	r3, r3, #1
 108 0068 9360     		str	r3, [r2, #8]
 109 006a 9942     		cmp	r1, r3
 110 006c 04D9     		bls	.L9
  57:.\buzzer.c    ****                         {
  58:.\buzzer.c    ****                             t_ = 0;
 111              		.loc 1 58 0
 112 006e 1346     		mov	r3, r2
 113 0070 0022     		movs	r2, #0
ARM GAS  C:\Users\pxc\AppData\Local\Temp\cc2GRTtY.s 			page 4


 114 0072 5A60     		str	r2, [r3, #4]
  59:.\buzzer.c    ****                             s  = 0;
 115              		.loc 1 59 0
 116 0074 5A70     		strb	r2, [r3, #1]
 117 0076 3CE0     		b	.L3
 118              	.L9:
  60:.\buzzer.c    ****                         }
  61:.\buzzer.c    ****                         else//
  62:.\buzzer.c    ****                         {
  63:.\buzzer.c    ****                             if((Msc_Spl.cont>1)&&(Msc_Spl.t3 > 0))//进入t3
 119              		.loc 1 63 0
 120 0078 0129     		cmp	r1, #1
 121 007a 08D9     		bls	.L10
 122              		.loc 1 63 0 is_stmt 0 discriminator 1
 123 007c 204B     		ldr	r3, .L14+4
 124 007e 9B68     		ldr	r3, [r3, #8]
 125 0080 2BB1     		cbz	r3, .L10
  64:.\buzzer.c    ****                             {
  65:.\buzzer.c    ****                                 t_ = 0;
 126              		.loc 1 65 0 is_stmt 1
 127 0082 1E4B     		ldr	r3, .L14
 128 0084 0022     		movs	r2, #0
 129 0086 5A60     		str	r2, [r3, #4]
  66:.\buzzer.c    ****                                 s  = 3;
 130              		.loc 1 66 0
 131 0088 0322     		movs	r2, #3
 132 008a 5A70     		strb	r2, [r3, #1]
 133 008c 31E0     		b	.L3
 134              	.L10:
  67:.\buzzer.c    ****                             }
  68:.\buzzer.c    ****                             else//进入下一个周期
  69:.\buzzer.c    ****                             {
  70:.\buzzer.c    ****                                 if((Msc_Spl.cyc) && ((++c) >= Msc_Spl.cyc))
 135              		.loc 1 70 0
 136 008e 1C4B     		ldr	r3, .L14+4
 137 0090 1A69     		ldr	r2, [r3, #16]
 138 0092 4AB1     		cbz	r2, .L11
 139              		.loc 1 70 0 is_stmt 0 discriminator 1
 140 0094 1949     		ldr	r1, .L14
 141 0096 CB68     		ldr	r3, [r1, #12]
 142 0098 0133     		adds	r3, r3, #1
 143 009a CB60     		str	r3, [r1, #12]
 144 009c 9A42     		cmp	r2, r3
 145 009e 03D8     		bhi	.L11
  71:.\buzzer.c    ****                                 {
  72:.\buzzer.c    ****                                     s = 0;
 146              		.loc 1 72 0 is_stmt 1
 147 00a0 0022     		movs	r2, #0
 148 00a2 4A70     		strb	r2, [r1, #1]
  73:.\buzzer.c    ****                                     msc_en = DISABLE;
 149              		.loc 1 73 0
 150 00a4 0A70     		strb	r2, [r1]
 151 00a6 24E0     		b	.L3
 152              	.L11:
 153              	.LBB4:
  74:.\buzzer.c    ****                                 }
  75:.\buzzer.c    ****                                 else
ARM GAS  C:\Users\pxc\AppData\Local\Temp\cc2GRTtY.s 			page 5


  76:.\buzzer.c    ****                                 {
  77:.\buzzer.c    ****                                     BUZZER_SET(ON);
 154              		.loc 1 77 0
 155 00a8 0120     		movs	r0, #1
 156 00aa FFF7FEFF 		bl	Beep_Write
 157              	.LVL2:
  78:.\buzzer.c    ****                                     s  = 1;
 158              		.loc 1 78 0
 159 00ae 134B     		ldr	r3, .L14
 160 00b0 0122     		movs	r2, #1
 161 00b2 5A70     		strb	r2, [r3, #1]
  79:.\buzzer.c    ****                                     t_ = 0;
 162              		.loc 1 79 0
 163 00b4 0022     		movs	r2, #0
 164 00b6 5A60     		str	r2, [r3, #4]
 165 00b8 1BE0     		b	.L3
 166              	.L8:
 167              	.LBE4:
  80:.\buzzer.c    ****                                 }
  81:.\buzzer.c    ****                             }		
  82:.\buzzer.c    ****                         }
  83:.\buzzer.c    ****                     }
  84:.\buzzer.c    ****                     break;
  85:.\buzzer.c    ****             case 3:
  86:.\buzzer.c    ****                     if(t_ >= Msc_Spl.t3)
 168              		.loc 1 86 0
 169 00ba 114B     		ldr	r3, .L14+4
 170 00bc 9A68     		ldr	r2, [r3, #8]
 171 00be 0F4B     		ldr	r3, .L14
 172 00c0 5B68     		ldr	r3, [r3, #4]
 173 00c2 9A42     		cmp	r2, r3
 174 00c4 15D8     		bhi	.L3
  87:.\buzzer.c    ****                     {
  88:.\buzzer.c    ****                         if((Msc_Spl.cyc) && ((++c) >= Msc_Spl.cyc))
 175              		.loc 1 88 0
 176 00c6 0E4B     		ldr	r3, .L14+4
 177 00c8 1A69     		ldr	r2, [r3, #16]
 178 00ca 4AB1     		cbz	r2, .L12
 179              		.loc 1 88 0 is_stmt 0 discriminator 1
 180 00cc 0B49     		ldr	r1, .L14
 181 00ce CB68     		ldr	r3, [r1, #12]
 182 00d0 0133     		adds	r3, r3, #1
 183 00d2 CB60     		str	r3, [r1, #12]
 184 00d4 9A42     		cmp	r2, r3
 185 00d6 03D8     		bhi	.L12
  89:.\buzzer.c    ****                         {
  90:.\buzzer.c    ****                             s = 0;
 186              		.loc 1 90 0 is_stmt 1
 187 00d8 0022     		movs	r2, #0
 188 00da 4A70     		strb	r2, [r1, #1]
  91:.\buzzer.c    ****                             msc_en = DISABLE;
 189              		.loc 1 91 0
 190 00dc 0A70     		strb	r2, [r1]
 191 00de 08E0     		b	.L3
 192              	.L12:
 193              	.LBB5:
  92:.\buzzer.c    ****                         }
ARM GAS  C:\Users\pxc\AppData\Local\Temp\cc2GRTtY.s 			page 6


  93:.\buzzer.c    ****                         else
  94:.\buzzer.c    ****                         {
  95:.\buzzer.c    ****                             BUZZER_SET(ON);
 194              		.loc 1 95 0
 195 00e0 0120     		movs	r0, #1
 196 00e2 FFF7FEFF 		bl	Beep_Write
 197              	.LVL3:
  96:.\buzzer.c    ****                             s  = 1;
 198              		.loc 1 96 0
 199 00e6 054B     		ldr	r3, .L14
 200 00e8 0122     		movs	r2, #1
 201 00ea 5A70     		strb	r2, [r3, #1]
  97:.\buzzer.c    ****                             t_ = 0;
 202              		.loc 1 97 0
 203 00ec 0022     		movs	r2, #0
 204 00ee 5A60     		str	r2, [r3, #4]
  98:.\buzzer.c    ****                             cont_inside = 0;
 205              		.loc 1 98 0
 206 00f0 9A60     		str	r2, [r3, #8]
 207              	.L3:
 208              	.LBE5:
  99:.\buzzer.c    ****                         }
 100:.\buzzer.c    ****                     }
 101:.\buzzer.c    ****                     break;
 102:.\buzzer.c    **** 
 103:.\buzzer.c    ****             default:
 104:.\buzzer.c    ****                     break;
 105:.\buzzer.c    ****         }
 106:.\buzzer.c    ****         t_ += BZR_TIME_STEP;
 209              		.loc 1 106 0
 210 00f2 024A     		ldr	r2, .L14
 211 00f4 5368     		ldr	r3, [r2, #4]
 212 00f6 3333     		adds	r3, r3, #51
 213 00f8 5360     		str	r3, [r2, #4]
 214              	.L1:
 215 00fa 08BD     		pop	{r3, pc}
 216              	.L15:
 217              		.align	2
 218              	.L14:
 219 00fc 00000000 		.word	.LANCHOR0
 220 0100 00000000 		.word	Msc_Spl
 221              		.cfi_endproc
 222              	.LFE63:
 223              		.size	cb_bzr_Main, .-cb_bzr_Main
 224              		.section	.text.bzr_Init,"ax",%progbits
 225              		.align	2
 226              		.global	bzr_Init
 227              		.thumb
 228              		.thumb_func
 229              		.type	bzr_Init, %function
 230              	bzr_Init:
 231              	.LFB64:
 107:.\buzzer.c    ****     }
 108:.\buzzer.c    **** }
 109:.\buzzer.c    **** 
 110:.\buzzer.c    **** void bzr_Init(void)
 111:.\buzzer.c    **** {
ARM GAS  C:\Users\pxc\AppData\Local\Temp\cc2GRTtY.s 			page 7


 232              		.loc 1 111 0
 233              		.cfi_startproc
 234              		@ args = 0, pretend = 0, frame = 0
 235              		@ frame_needed = 0, uses_anonymous_args = 0
 236 0000 08B5     		push	{r3, lr}
 237              		.cfi_def_cfa_offset 8
 238              		.cfi_offset 3, -8
 239              		.cfi_offset 14, -4
 112:.\buzzer.c    ****     Msc_Spl.ton  = 0;
 240              		.loc 1 112 0
 241 0002 084B     		ldr	r3, .L18
 242 0004 0020     		movs	r0, #0
 243 0006 1860     		str	r0, [r3]
 113:.\buzzer.c    ****     Msc_Spl.toff = 0;
 244              		.loc 1 113 0
 245 0008 5860     		str	r0, [r3, #4]
 114:.\buzzer.c    ****     Msc_Spl.t3   = 0;
 246              		.loc 1 114 0
 247 000a 9860     		str	r0, [r3, #8]
 115:.\buzzer.c    ****     Msc_Spl.cont = 0;
 248              		.loc 1 115 0
 249 000c D860     		str	r0, [r3, #12]
 116:.\buzzer.c    ****     Msc_Spl.cyc  = 0;
 250              		.loc 1 116 0
 251 000e 1861     		str	r0, [r3, #16]
 117:.\buzzer.c    ****     t_           = 0;
 252              		.loc 1 117 0
 253 0010 054B     		ldr	r3, .L18+4
 254 0012 5860     		str	r0, [r3, #4]
 118:.\buzzer.c    ****     s            = 0;
 255              		.loc 1 118 0
 256 0014 5870     		strb	r0, [r3, #1]
 119:.\buzzer.c    ****     c            = 0;
 257              		.loc 1 119 0
 258 0016 D860     		str	r0, [r3, #12]
 120:.\buzzer.c    ****     cont_inside  = 0;
 259              		.loc 1 120 0
 260 0018 9860     		str	r0, [r3, #8]
 121:.\buzzer.c    ****     msc_en       = DISABLE;
 261              		.loc 1 121 0
 262 001a 1870     		strb	r0, [r3]
 122:.\buzzer.c    ****     BUZZER_SET(OFF);
 263              		.loc 1 122 0
 264 001c FFF7FEFF 		bl	Beep_Write
 265              	.LVL4:
 266 0020 08BD     		pop	{r3, pc}
 267              	.L19:
 268 0022 00BF     		.align	2
 269              	.L18:
 270 0024 00000000 		.word	Msc_Spl
 271 0028 00000000 		.word	.LANCHOR0
 272              		.cfi_endproc
 273              	.LFE64:
 274              		.size	bzr_Init, .-bzr_Init
 275              		.section	.text.bzr_SetBell,"ax",%progbits
 276              		.align	2
 277              		.global	bzr_SetBell
ARM GAS  C:\Users\pxc\AppData\Local\Temp\cc2GRTtY.s 			page 8


 278              		.thumb
 279              		.thumb_func
 280              		.type	bzr_SetBell, %function
 281              	bzr_SetBell:
 282              	.LFB65:
 123:.\buzzer.c    **** }
 124:.\buzzer.c    **** 
 125:.\buzzer.c    **** void bzr_SetBell(uint32_t ton, uint32_t toff,uint32_t cont,uint32_t t3, uint32_t cyc)
 126:.\buzzer.c    **** {	
 283              		.loc 1 126 0
 284              		.cfi_startproc
 285              		@ args = 4, pretend = 0, frame = 0
 286              		@ frame_needed = 0, uses_anonymous_args = 0
 287              	.LVL5:
 288 0000 70B5     		push	{r4, r5, r6, lr}
 289              		.cfi_def_cfa_offset 16
 290              		.cfi_offset 4, -16
 291              		.cfi_offset 5, -12
 292              		.cfi_offset 6, -8
 293              		.cfi_offset 14, -4
 294 0002 049D     		ldr	r5, [sp, #16]
 127:.\buzzer.c    ****     if((Msc_Spl.ton == ton)&&
 295              		.loc 1 127 0
 296 0004 1C4C     		ldr	r4, .L26
 297 0006 2468     		ldr	r4, [r4]
 298 0008 8442     		cmp	r4, r0
 299 000a 13D1     		bne	.L21
 128:.\buzzer.c    ****       (Msc_Spl.toff == toff)&&
 300              		.loc 1 128 0 discriminator 1
 301 000c 1A4C     		ldr	r4, .L26
 302 000e 6468     		ldr	r4, [r4, #4]
 127:.\buzzer.c    ****     if((Msc_Spl.ton == ton)&&
 303              		.loc 1 127 0 discriminator 1
 304 0010 8C42     		cmp	r4, r1
 305 0012 0FD1     		bne	.L21
 129:.\buzzer.c    ****       (Msc_Spl.cyc == cyc)&&
 306              		.loc 1 129 0
 307 0014 184C     		ldr	r4, .L26
 308 0016 2469     		ldr	r4, [r4, #16]
 128:.\buzzer.c    ****       (Msc_Spl.toff == toff)&&
 309              		.loc 1 128 0
 310 0018 AC42     		cmp	r4, r5
 311 001a 0BD1     		bne	.L21
 130:.\buzzer.c    ****       (Msc_Spl.cont == cont)&&
 312              		.loc 1 130 0
 313 001c 164C     		ldr	r4, .L26
 314 001e E468     		ldr	r4, [r4, #12]
 129:.\buzzer.c    ****       (Msc_Spl.cyc == cyc)&&
 315              		.loc 1 129 0
 316 0020 9442     		cmp	r4, r2
 317 0022 07D1     		bne	.L21
 131:.\buzzer.c    ****       (Msc_Spl.t3 == t3)&&( msc_en == ENABLE))
 318              		.loc 1 131 0
 319 0024 144C     		ldr	r4, .L26
 320 0026 A468     		ldr	r4, [r4, #8]
 130:.\buzzer.c    ****       (Msc_Spl.cont == cont)&&
 321              		.loc 1 130 0
ARM GAS  C:\Users\pxc\AppData\Local\Temp\cc2GRTtY.s 			page 9


 322 0028 9C42     		cmp	r4, r3
 323 002a 03D1     		bne	.L21
 324              		.loc 1 131 0
 325 002c 134C     		ldr	r4, .L26+4
 326 002e 2478     		ldrb	r4, [r4]	@ zero_extendqisi2
 327 0030 012C     		cmp	r4, #1
 328 0032 20D0     		beq	.L20
 329              	.L21:
 132:.\buzzer.c    ****     {
 133:.\buzzer.c    ****         
 134:.\buzzer.c    ****     }
 135:.\buzzer.c    ****     else//参数发生改变
 136:.\buzzer.c    ****     {
 137:.\buzzer.c    ****         msc_en = DISABLE;
 330              		.loc 1 137 0
 331 0034 0026     		movs	r6, #0
 332 0036 114C     		ldr	r4, .L26+4
 333 0038 2670     		strb	r6, [r4]
 138:.\buzzer.c    ****         
 139:.\buzzer.c    ****         if( (!toff) && (ton) && (!cyc))
 334              		.loc 1 139 0
 335 003a 39B9     		cbnz	r1, .L23
 336              		.loc 1 139 0 is_stmt 0 discriminator 1
 337 003c 30B1     		cbz	r0, .L23
 338              		.loc 1 139 0 discriminator 2
 339 003e 2DB9     		cbnz	r5, .L23
 340              	.LBB6:
 140:.\buzzer.c    ****         {
 141:.\buzzer.c    ****             bzr_Init();
 341              		.loc 1 141 0 is_stmt 1
 342 0040 FFF7FEFF 		bl	bzr_Init
 343              	.LVL6:
 142:.\buzzer.c    ****             BUZZER_SET(ON);  //蜂鸣器保持鸣叫
 344              		.loc 1 142 0
 345 0044 0120     		movs	r0, #1
 346 0046 FFF7FEFF 		bl	Beep_Write
 347              	.LVL7:
 348              	.LBE6:
 140:.\buzzer.c    ****         {
 349              		.loc 1 140 0
 350 004a 70BD     		pop	{r4, r5, r6, pc}
 351              	.LVL8:
 352              	.L23:
 143:.\buzzer.c    ****         }
 144:.\buzzer.c    ****         else if(!ton)
 353              		.loc 1 144 0
 354 004c 28B9     		cbnz	r0, .L24
 355              	.LBB7:
 145:.\buzzer.c    ****         {
 146:.\buzzer.c    ****             bzr_Init();
 356              		.loc 1 146 0
 357 004e FFF7FEFF 		bl	bzr_Init
 358              	.LVL9:
 147:.\buzzer.c    ****             BUZZER_SET(OFF); //蜂鸣器保持关闭
 359              		.loc 1 147 0
 360 0052 0020     		movs	r0, #0
 361 0054 FFF7FEFF 		bl	Beep_Write
ARM GAS  C:\Users\pxc\AppData\Local\Temp\cc2GRTtY.s 			page 10


 362              	.LVL10:
 363              	.LBE7:
 364 0058 70BD     		pop	{r4, r5, r6, pc}
 365              	.LVL11:
 366              	.L24:
 148:.\buzzer.c    ****         }
 149:.\buzzer.c    ****         else
 150:.\buzzer.c    ****         {
 151:.\buzzer.c    ****             Msc_Spl.ton  = ton;
 367              		.loc 1 151 0
 368 005a 074C     		ldr	r4, .L26
 369 005c 2060     		str	r0, [r4]
 152:.\buzzer.c    ****             Msc_Spl.toff = toff;
 370              		.loc 1 152 0
 371 005e 6160     		str	r1, [r4, #4]
 153:.\buzzer.c    ****             Msc_Spl.cyc  = cyc;
 372              		.loc 1 153 0
 373 0060 2561     		str	r5, [r4, #16]
 154:.\buzzer.c    ****             Msc_Spl.cont = cont;
 374              		.loc 1 154 0
 375 0062 E260     		str	r2, [r4, #12]
 155:.\buzzer.c    ****             Msc_Spl.t3   = t3;
 376              		.loc 1 155 0
 377 0064 A360     		str	r3, [r4, #8]
 156:.\buzzer.c    ****             
 157:.\buzzer.c    ****             t_ = 0;
 378              		.loc 1 157 0
 379 0066 054B     		ldr	r3, .L26+4
 380              	.LVL12:
 381 0068 0022     		movs	r2, #0
 382              	.LVL13:
 383 006a 5A60     		str	r2, [r3, #4]
 158:.\buzzer.c    ****             s  = 0;
 384              		.loc 1 158 0
 385 006c 5A70     		strb	r2, [r3, #1]
 159:.\buzzer.c    ****             c  = 0;
 386              		.loc 1 159 0
 387 006e DA60     		str	r2, [r3, #12]
 160:.\buzzer.c    ****             cont_inside = 0;        
 388              		.loc 1 160 0
 389 0070 9A60     		str	r2, [r3, #8]
 161:.\buzzer.c    ****             msc_en = ENABLE;
 390              		.loc 1 161 0
 391 0072 0122     		movs	r2, #1
 392 0074 1A70     		strb	r2, [r3]
 393              	.LVL14:
 394              	.L20:
 395 0076 70BD     		pop	{r4, r5, r6, pc}
 396              	.LVL15:
 397              	.L27:
 398              		.align	2
 399              	.L26:
 400 0078 00000000 		.word	Msc_Spl
 401 007c 00000000 		.word	.LANCHOR0
 402              		.cfi_endproc
 403              	.LFE65:
 404              		.size	bzr_SetBell, .-bzr_SetBell
ARM GAS  C:\Users\pxc\AppData\Local\Temp\cc2GRTtY.s 			page 11


 405              		.section	.text.bzr_ifBusy,"ax",%progbits
 406              		.align	2
 407              		.global	bzr_ifBusy
 408              		.thumb
 409              		.thumb_func
 410              		.type	bzr_ifBusy, %function
 411              	bzr_ifBusy:
 412              	.LFB66:
 162:.\buzzer.c    ****         }       
 163:.\buzzer.c    ****     }	
 164:.\buzzer.c    **** }
 165:.\buzzer.c    **** 
 166:.\buzzer.c    **** uint8 bzr_ifBusy(void)
 167:.\buzzer.c    **** {
 413              		.loc 1 167 0
 414              		.cfi_startproc
 415              		@ args = 0, pretend = 0, frame = 0
 416              		@ frame_needed = 0, uses_anonymous_args = 0
 417              		@ link register save eliminated.
 168:.\buzzer.c    ****     if(msc_en != DISABLE)
 418              		.loc 1 168 0
 419 0000 024B     		ldr	r3, .L30
 420 0002 1878     		ldrb	r0, [r3]	@ zero_extendqisi2
 421 0004 00B1     		cbz	r0, .L29
 169:.\buzzer.c    ****     {
 170:.\buzzer.c    ****         return 1;
 422              		.loc 1 170 0
 423 0006 0120     		movs	r0, #1
 424              	.L29:
 171:.\buzzer.c    ****     }          
 172:.\buzzer.c    ****     else
 173:.\buzzer.c    ****     {
 174:.\buzzer.c    ****         return 0;
 175:.\buzzer.c    ****     }            
 176:.\buzzer.c    **** }...
 425              		.loc 1 176 0
 426 0008 7047     		bx	lr
 427              	.L31:
 428 000a 00BF     		.align	2
 429              	.L30:
 430 000c 00000000 		.word	.LANCHOR0
 431              		.cfi_endproc
 432              	.LFE66:
 433              		.size	bzr_ifBusy, .-bzr_ifBusy
 434              		.comm	Msc_Spl,20,4
 435              		.bss
 436              		.align	2
 437              		.set	.LANCHOR0,. + 0
 438              		.type	msc_en, %object
 439              		.size	msc_en, 1
 440              	msc_en:
 441 0000 00       		.space	1
 442              		.type	s, %object
 443              		.size	s, 1
 444              	s:
 445 0001 00       		.space	1
 446 0002 0000     		.space	2
ARM GAS  C:\Users\pxc\AppData\Local\Temp\cc2GRTtY.s 			page 12


 447              		.type	t_, %object
 448              		.size	t_, 4
 449              	t_:
 450 0004 00000000 		.space	4
 451              		.type	cont_inside, %object
 452              		.size	cont_inside, 4
 453              	cont_inside:
 454 0008 00000000 		.space	4
 455              		.type	c, %object
 456              		.size	c, 4
 457              	c:
 458 000c 00000000 		.space	4
 459              		.text
 460              	.Letext0:
 461              		.file 2 "c:\\program files (x86)\\cypress\\psoc creator\\3.3\\psoc creator\\import\\gnu\\arm\\4.9.
 462              		.file 3 "c:\\program files (x86)\\cypress\\psoc creator\\3.3\\psoc creator\\import\\gnu\\arm\\4.9.
 463              		.file 4 "Generated_Source\\PSoC5/cytypes.h"
 464              		.file 5 "Generated_Source\\PSoC5/core_cm3.h"