ARM GAS  C:\Users\pxc\AppData\Local\Temp\ccMQAUy8.s 			page 1


   1              		.syntax unified
   2              		.cpu cortex-m3
   3              		.fpu softvfp
   4              		.eabi_attribute 20, 1
   5              		.eabi_attribute 21, 1
   6              		.eabi_attribute 23, 3
   7              		.eabi_attribute 24, 1
   8              		.eabi_attribute 25, 1
   9              		.eabi_attribute 26, 1
  10              		.eabi_attribute 30, 1
  11              		.eabi_attribute 34, 1
  12              		.eabi_attribute 18, 4
  13              		.thumb
  14              		.file	"control.c"
  15              		.text
  16              	.Ltext0:
  17              		.cfi_sections	.debug_frame
  18              		.section	.text.Cal_car_dir,"ax",%progbits
  19              		.align	2
  20              		.global	Cal_car_dir
  21              		.thumb
  22              		.thumb_func
  23              		.type	Cal_car_dir, %function
  24              	Cal_car_dir:
  25              	.LFB63:
  26              		.file 1 ".\\control.c"
   1:.\control.c   **** /* ========================================
   2:.\control.c   ****  *
   3:.\control.c   ****  * Copyright YOUR COMPANY, THE YEAR
   4:.\control.c   ****  * All Rights Reserved
   5:.\control.c   ****  * UNPUBLISHED, LICENSED SOFTWARE.
   6:.\control.c   ****  *
   7:.\control.c   ****  * CONFIDENTIAL AND PROPRIETARY INFORMATION
   8:.\control.c   ****  * WHICH IS THE PROPERTY OF your company.
   9:.\control.c   ****  *
  10:.\control.c   ****  * ========================================
  11:.\control.c   **** */
  12:.\control.c   **** #include "control.h"
  13:.\control.c   **** #include "ADC_V.h"
  14:.\control.c   **** #include "Transfer.h"
  15:.\control.c   **** #include "key.h"
  16:.\control.c   **** void Cal_car_dir()
  17:.\control.c   **** {
  27              		.loc 1 17 0
  28              		.cfi_startproc
  29              		@ args = 0, pretend = 0, frame = 0
  30              		@ frame_needed = 0, uses_anonymous_args = 0
  31 0000 08B5     		push	{r3, lr}
  32              		.cfi_def_cfa_offset 8
  33              		.cfi_offset 3, -8
  34              		.cfi_offset 14, -4
  18:.\control.c   ****     static uint8 send_dir = STOP;
  19:.\control.c   ****     static uint8 pre_dir  = 0;
  20:.\control.c   ****    
  21:.\control.c   ****      
  22:.\control.c   ****         if(CAR_X_V < 500 &&CAR_Y_V <500)
  35              		.loc 1 22 0
ARM GAS  C:\Users\pxc\AppData\Local\Temp\ccMQAUy8.s 			page 2


  36 0002 4B4B     		ldr	r3, .L13
  37 0004 1B88     		ldrh	r3, [r3]
  38 0006 B3F5FA7F 		cmp	r3, #500
  39 000a 0ED2     		bcs	.L2
  40              		.loc 1 22 0 is_stmt 0 discriminator 1
  41 000c 494A     		ldr	r2, .L13+4
  42 000e 1288     		ldrh	r2, [r2]
  43 0010 B2F5FA7F 		cmp	r2, #500
  44 0014 09D2     		bcs	.L2
  23:.\control.c   ****         {
  24:.\control.c   ****             send_dir = DOWN_LEFT;
  45              		.loc 1 24 0 is_stmt 1
  46 0016 0622     		movs	r2, #6
  47 0018 474B     		ldr	r3, .L13+8
  48 001a 1A70     		strb	r2, [r3]
  25:.\control.c   ****             
  26:.\control.c   ****             debug("CAR_DOWN_LEFT");
  49              		.loc 1 26 0
  50 001c 4748     		ldr	r0, .L13+12
  51 001e FFF7FEFF 		bl	UART_net_PutString
  52              	.LVL0:
  53 0022 4748     		ldr	r0, .L13+16
  54 0024 FFF7FEFF 		bl	UART_net_PutString
  55              	.LVL1:
  56 0028 74E0     		b	.L3
  57              	.L2:
  27:.\control.c   ****             
  28:.\control.c   ****         }
  29:.\control.c   ****         else if(CAR_X_V < 500 && CAR_Y_V >3500)
  58              		.loc 1 29 0
  59 002a B3F5FA7F 		cmp	r3, #500
  60 002e 0FD2     		bcs	.L4
  61              		.loc 1 29 0 is_stmt 0 discriminator 1
  62 0030 404A     		ldr	r2, .L13+4
  63 0032 1188     		ldrh	r1, [r2]
  64 0034 40F6AC52 		movw	r2, #3500
  65 0038 9142     		cmp	r1, r2
  66 003a 09D9     		bls	.L4
  30:.\control.c   ****         {
  31:.\control.c   ****             send_dir = UP_LEFT;
  67              		.loc 1 31 0 is_stmt 1
  68 003c 0422     		movs	r2, #4
  69 003e 3E4B     		ldr	r3, .L13+8
  70 0040 1A70     		strb	r2, [r3]
  32:.\control.c   ****      
  33:.\control.c   ****             debug("CAR_UP_LEFT");
  71              		.loc 1 33 0
  72 0042 4048     		ldr	r0, .L13+20
  73 0044 FFF7FEFF 		bl	UART_net_PutString
  74              	.LVL2:
  75 0048 3D48     		ldr	r0, .L13+16
  76 004a FFF7FEFF 		bl	UART_net_PutString
  77              	.LVL3:
  78 004e 61E0     		b	.L3
  79              	.L4:
  34:.\control.c   ****         }
  35:.\control.c   ****         else if(CAR_X_V > 3500 && CAR_Y_V >3500)
ARM GAS  C:\Users\pxc\AppData\Local\Temp\ccMQAUy8.s 			page 3


  80              		.loc 1 35 0
  81 0050 40F6AC52 		movw	r2, #3500
  82 0054 9342     		cmp	r3, r2
  83 0056 0FD9     		bls	.L5
  84              		.loc 1 35 0 is_stmt 0 discriminator 1
  85 0058 364A     		ldr	r2, .L13+4
  86 005a 1188     		ldrh	r1, [r2]
  87 005c 40F6AC52 		movw	r2, #3500
  88 0060 9142     		cmp	r1, r2
  89 0062 09D9     		bls	.L5
  36:.\control.c   ****         {
  37:.\control.c   ****             send_dir = UP_RIGHT;
  90              		.loc 1 37 0 is_stmt 1
  91 0064 0522     		movs	r2, #5
  92 0066 344B     		ldr	r3, .L13+8
  93 0068 1A70     		strb	r2, [r3]
  38:.\control.c   ****         
  39:.\control.c   ****             debug("CAR_UP_RIGHT");
  94              		.loc 1 39 0
  95 006a 3748     		ldr	r0, .L13+24
  96 006c FFF7FEFF 		bl	UART_net_PutString
  97              	.LVL4:
  98 0070 3348     		ldr	r0, .L13+16
  99 0072 FFF7FEFF 		bl	UART_net_PutString
 100              	.LVL5:
 101 0076 4DE0     		b	.L3
 102              	.L5:
  40:.\control.c   ****         }
  41:.\control.c   ****         else if(CAR_X_V > 3500 && CAR_Y_V < 500)
 103              		.loc 1 41 0
 104 0078 40F6AC52 		movw	r2, #3500
 105 007c 9342     		cmp	r3, r2
 106 007e 0ED9     		bls	.L6
 107              		.loc 1 41 0 is_stmt 0 discriminator 1
 108 0080 2C4A     		ldr	r2, .L13+4
 109 0082 1288     		ldrh	r2, [r2]
 110 0084 B2F5FA7F 		cmp	r2, #500
 111 0088 09D2     		bcs	.L6
  42:.\control.c   ****         {
  43:.\control.c   ****             send_dir = DOWN_RIGHT;
 112              		.loc 1 43 0 is_stmt 1
 113 008a 0722     		movs	r2, #7
 114 008c 2A4B     		ldr	r3, .L13+8
 115 008e 1A70     		strb	r2, [r3]
  44:.\control.c   ****          
  45:.\control.c   ****             debug("CAR_DOWN_RIGHT");
 116              		.loc 1 45 0
 117 0090 2E48     		ldr	r0, .L13+28
 118 0092 FFF7FEFF 		bl	UART_net_PutString
 119              	.LVL6:
 120 0096 2A48     		ldr	r0, .L13+16
 121 0098 FFF7FEFF 		bl	UART_net_PutString
 122              	.LVL7:
 123 009c 3AE0     		b	.L3
 124              	.L6:
  46:.\control.c   ****         }
  47:.\control.c   ****         else if(CAR_X_V < 500)
ARM GAS  C:\Users\pxc\AppData\Local\Temp\ccMQAUy8.s 			page 4


 125              		.loc 1 47 0
 126 009e B3F5FA7F 		cmp	r3, #500
 127 00a2 09D2     		bcs	.L7
  48:.\control.c   ****         {
  49:.\control.c   ****             send_dir = LEFT;
 128              		.loc 1 49 0
 129 00a4 0222     		movs	r2, #2
 130 00a6 244B     		ldr	r3, .L13+8
 131 00a8 1A70     		strb	r2, [r3]
  50:.\control.c   ****    
  51:.\control.c   ****             debug("CAR_LEFT");
 132              		.loc 1 51 0
 133 00aa 2948     		ldr	r0, .L13+32
 134 00ac FFF7FEFF 		bl	UART_net_PutString
 135              	.LVL8:
 136 00b0 2348     		ldr	r0, .L13+16
 137 00b2 FFF7FEFF 		bl	UART_net_PutString
 138              	.LVL9:
 139 00b6 2DE0     		b	.L3
 140              	.L7:
  52:.\control.c   ****         }
  53:.\control.c   ****         else if (CAR_Y_V <500)
 141              		.loc 1 53 0
 142 00b8 1E4A     		ldr	r2, .L13+4
 143 00ba 1288     		ldrh	r2, [r2]
 144 00bc B2F5FA7F 		cmp	r2, #500
 145 00c0 09D2     		bcs	.L8
  54:.\control.c   ****         {
  55:.\control.c   ****             send_dir = DOWN;
 146              		.loc 1 55 0
 147 00c2 0122     		movs	r2, #1
 148 00c4 1C4B     		ldr	r3, .L13+8
 149 00c6 1A70     		strb	r2, [r3]
  56:.\control.c   ****     
  57:.\control.c   ****             debug("CAR_DOWN");
 150              		.loc 1 57 0
 151 00c8 2248     		ldr	r0, .L13+36
 152 00ca FFF7FEFF 		bl	UART_net_PutString
 153              	.LVL10:
 154 00ce 1C48     		ldr	r0, .L13+16
 155 00d0 FFF7FEFF 		bl	UART_net_PutString
 156              	.LVL11:
 157 00d4 1EE0     		b	.L3
 158              	.L8:
  58:.\control.c   ****         }
  59:.\control.c   ****         else if(CAR_Y_V >3500)
 159              		.loc 1 59 0
 160 00d6 40F6AC51 		movw	r1, #3500
 161 00da 8A42     		cmp	r2, r1
 162 00dc 09D9     		bls	.L9
  60:.\control.c   ****         {
  61:.\control.c   ****             send_dir = UP;
 163              		.loc 1 61 0
 164 00de 0022     		movs	r2, #0
 165 00e0 154B     		ldr	r3, .L13+8
 166 00e2 1A70     		strb	r2, [r3]
  62:.\control.c   ****      
ARM GAS  C:\Users\pxc\AppData\Local\Temp\ccMQAUy8.s 			page 5


  63:.\control.c   ****             debug("CAR_UP");
 167              		.loc 1 63 0
 168 00e4 1C48     		ldr	r0, .L13+40
 169 00e6 FFF7FEFF 		bl	UART_net_PutString
 170              	.LVL12:
 171 00ea 1548     		ldr	r0, .L13+16
 172 00ec FFF7FEFF 		bl	UART_net_PutString
 173              	.LVL13:
 174 00f0 10E0     		b	.L3
 175              	.L9:
  64:.\control.c   ****         }
  65:.\control.c   ****         else if(CAR_X_V > 3500)
 176              		.loc 1 65 0
 177 00f2 40F6AC52 		movw	r2, #3500
 178 00f6 9342     		cmp	r3, r2
 179 00f8 09D9     		bls	.L10
  66:.\control.c   ****         {
  67:.\control.c   ****             send_dir = RIGHT;
 180              		.loc 1 67 0
 181 00fa 0322     		movs	r2, #3
 182 00fc 0E4B     		ldr	r3, .L13+8
 183 00fe 1A70     		strb	r2, [r3]
  68:.\control.c   ****    
  69:.\control.c   ****             debug("CAR_RIGHT");
 184              		.loc 1 69 0
 185 0100 1648     		ldr	r0, .L13+44
 186 0102 FFF7FEFF 		bl	UART_net_PutString
 187              	.LVL14:
 188 0106 0E48     		ldr	r0, .L13+16
 189 0108 FFF7FEFF 		bl	UART_net_PutString
 190              	.LVL15:
 191 010c 02E0     		b	.L3
 192              	.L10:
  70:.\control.c   ****         }
  71:.\control.c   ****         else
  72:.\control.c   ****         {
  73:.\control.c   ****             send_dir = STOP;
 193              		.loc 1 73 0
 194 010e 0822     		movs	r2, #8
 195 0110 094B     		ldr	r3, .L13+8
 196 0112 1A70     		strb	r2, [r3]
 197              	.L3:
  74:.\control.c   ****             
  75:.\control.c   ****         }
  76:.\control.c   ****     if(pre_dir != send_dir)
 198              		.loc 1 76 0
 199 0114 124B     		ldr	r3, .L13+48
 200 0116 1B78     		ldrb	r3, [r3]	@ zero_extendqisi2
 201 0118 074A     		ldr	r2, .L13+8
 202 011a 1078     		ldrb	r0, [r2]	@ zero_extendqisi2
 203 011c 8342     		cmp	r3, r0
 204 011e 05D0     		beq	.L1
  77:.\control.c   ****     { 
  78:.\control.c   ****         
  79:.\control.c   ****        DT_Send_Command_Car(send_dir);
 205              		.loc 1 79 0
 206 0120 FFF7FEFF 		bl	DT_Send_Command_Car
ARM GAS  C:\Users\pxc\AppData\Local\Temp\ccMQAUy8.s 			page 6


 207              	.LVL16:
  80:.\control.c   ****        pre_dir = send_dir;
 208              		.loc 1 80 0
 209 0124 044B     		ldr	r3, .L13+8
 210 0126 1A78     		ldrb	r2, [r3]	@ zero_extendqisi2
 211 0128 0D4B     		ldr	r3, .L13+48
 212 012a 1A70     		strb	r2, [r3]
 213              	.L1:
 214 012c 08BD     		pop	{r3, pc}
 215              	.L14:
 216 012e 00BF     		.align	2
 217              	.L13:
 218 0130 00000000 		.word	CAR_X_V
 219 0134 00000000 		.word	CAR_Y_V
 220 0138 00000000 		.word	.LANCHOR0
 221 013c 00000000 		.word	.LC0
 222 0140 10000000 		.word	.LC1
 223 0144 14000000 		.word	.LC2
 224 0148 20000000 		.word	.LC3
 225 014c 30000000 		.word	.LC4
 226 0150 40000000 		.word	.LC5
 227 0154 4C000000 		.word	.LC6
 228 0158 58000000 		.word	.LC7
 229 015c 60000000 		.word	.LC8
 230 0160 00000000 		.word	.LANCHOR1
 231              		.cfi_endproc
 232              	.LFE63:
 233              		.size	Cal_car_dir, .-Cal_car_dir
 234              		.section	.text.Cal_ptz_dir,"ax",%progbits
 235              		.align	2
 236              		.global	Cal_ptz_dir
 237              		.thumb
 238              		.thumb_func
 239              		.type	Cal_ptz_dir, %function
 240              	Cal_ptz_dir:
 241              	.LFB64:
  81:.\control.c   ****     }
  82:.\control.c   **** }
  83:.\control.c   **** 
  84:.\control.c   **** void Cal_ptz_dir()
  85:.\control.c   **** {
 242              		.loc 1 85 0
 243              		.cfi_startproc
 244              		@ args = 0, pretend = 0, frame = 0
 245              		@ frame_needed = 0, uses_anonymous_args = 0
 246 0000 08B5     		push	{r3, lr}
 247              		.cfi_def_cfa_offset 8
 248              		.cfi_offset 3, -8
 249              		.cfi_offset 14, -4
  86:.\control.c   ****     static uint8 send_dir = STOP;
  87:.\control.c   ****     static uint8 pre_dir  = 0;
  88:.\control.c   ****    
  89:.\control.c   ****      
  90:.\control.c   ****     if(PTZ_X_V < 500 && PTZ_Y_V <500)
 250              		.loc 1 90 0
 251 0002 4B4B     		ldr	r3, .L27
 252 0004 1B88     		ldrh	r3, [r3]
ARM GAS  C:\Users\pxc\AppData\Local\Temp\ccMQAUy8.s 			page 7


 253 0006 B3F5FA7F 		cmp	r3, #500
 254 000a 0ED2     		bcs	.L16
 255              		.loc 1 90 0 is_stmt 0 discriminator 1
 256 000c 494A     		ldr	r2, .L27+4
 257 000e 1288     		ldrh	r2, [r2]
 258 0010 B2F5FA7F 		cmp	r2, #500
 259 0014 09D2     		bcs	.L16
  91:.\control.c   ****     {
  92:.\control.c   ****         send_dir = DOWN_LEFT;
 260              		.loc 1 92 0 is_stmt 1
 261 0016 0622     		movs	r2, #6
 262 0018 474B     		ldr	r3, .L27+8
 263 001a 5A70     		strb	r2, [r3, #1]
  93:.\control.c   **** 
  94:.\control.c   ****         debug("PTZ_DOWN_LEFT");
 264              		.loc 1 94 0
 265 001c 4748     		ldr	r0, .L27+12
 266 001e FFF7FEFF 		bl	UART_net_PutString
 267              	.LVL17:
 268 0022 4748     		ldr	r0, .L27+16
 269 0024 FFF7FEFF 		bl	UART_net_PutString
 270              	.LVL18:
 271 0028 74E0     		b	.L17
 272              	.L16:
  95:.\control.c   ****         
  96:.\control.c   ****     }
  97:.\control.c   ****     else if(PTZ_X_V < 500 && PTZ_Y_V >3500)
 273              		.loc 1 97 0
 274 002a B3F5FA7F 		cmp	r3, #500
 275 002e 0FD2     		bcs	.L18
 276              		.loc 1 97 0 is_stmt 0 discriminator 1
 277 0030 404A     		ldr	r2, .L27+4
 278 0032 1188     		ldrh	r1, [r2]
 279 0034 40F6AC52 		movw	r2, #3500
 280 0038 9142     		cmp	r1, r2
 281 003a 09D9     		bls	.L18
  98:.\control.c   ****     {
  99:.\control.c   ****         send_dir = UP_LEFT;
 282              		.loc 1 99 0 is_stmt 1
 283 003c 0422     		movs	r2, #4
 284 003e 3E4B     		ldr	r3, .L27+8
 285 0040 5A70     		strb	r2, [r3, #1]
 100:.\control.c   ****  
 101:.\control.c   ****       debug("PTZ_UP_LEFT");
 286              		.loc 1 101 0
 287 0042 4048     		ldr	r0, .L27+20
 288 0044 FFF7FEFF 		bl	UART_net_PutString
 289              	.LVL19:
 290 0048 3D48     		ldr	r0, .L27+16
 291 004a FFF7FEFF 		bl	UART_net_PutString
 292              	.LVL20:
 293 004e 61E0     		b	.L17
 294              	.L18:
 102:.\control.c   ****     }
 103:.\control.c   ****     else if(PTZ_X_V > 3500 && PTZ_Y_V >3500)
 295              		.loc 1 103 0
 296 0050 40F6AC52 		movw	r2, #3500
ARM GAS  C:\Users\pxc\AppData\Local\Temp\ccMQAUy8.s 			page 8


 297 0054 9342     		cmp	r3, r2
 298 0056 0FD9     		bls	.L19
 299              		.loc 1 103 0 is_stmt 0 discriminator 1
 300 0058 364A     		ldr	r2, .L27+4
 301 005a 1188     		ldrh	r1, [r2]
 302 005c 40F6AC52 		movw	r2, #3500
 303 0060 9142     		cmp	r1, r2
 304 0062 09D9     		bls	.L19
 104:.\control.c   ****     {
 105:.\control.c   ****         send_dir = UP_RIGHT;
 305              		.loc 1 105 0 is_stmt 1
 306 0064 0522     		movs	r2, #5
 307 0066 344B     		ldr	r3, .L27+8
 308 0068 5A70     		strb	r2, [r3, #1]
 106:.\control.c   ****     
 107:.\control.c   ****       debug("PTZ_UP_RIGHT");
 309              		.loc 1 107 0
 310 006a 3748     		ldr	r0, .L27+24
 311 006c FFF7FEFF 		bl	UART_net_PutString
 312              	.LVL21:
 313 0070 3348     		ldr	r0, .L27+16
 314 0072 FFF7FEFF 		bl	UART_net_PutString
 315              	.LVL22:
 316 0076 4DE0     		b	.L17
 317              	.L19:
 108:.\control.c   ****     }
 109:.\control.c   ****     else if(PTZ_X_V > 3500 && PTZ_Y_V < 500)
 318              		.loc 1 109 0
 319 0078 40F6AC52 		movw	r2, #3500
 320 007c 9342     		cmp	r3, r2
 321 007e 0ED9     		bls	.L20
 322              		.loc 1 109 0 is_stmt 0 discriminator 1
 323 0080 2C4A     		ldr	r2, .L27+4
 324 0082 1288     		ldrh	r2, [r2]
 325 0084 B2F5FA7F 		cmp	r2, #500
 326 0088 09D2     		bcs	.L20
 110:.\control.c   ****     {
 111:.\control.c   ****         send_dir = DOWN_RIGHT;
 327              		.loc 1 111 0 is_stmt 1
 328 008a 0722     		movs	r2, #7
 329 008c 2A4B     		ldr	r3, .L27+8
 330 008e 5A70     		strb	r2, [r3, #1]
 112:.\control.c   ****      
 113:.\control.c   ****          debug("PTZ_DOWN_RIGHT");
 331              		.loc 1 113 0
 332 0090 2E48     		ldr	r0, .L27+28
 333 0092 FFF7FEFF 		bl	UART_net_PutString
 334              	.LVL23:
 335 0096 2A48     		ldr	r0, .L27+16
 336 0098 FFF7FEFF 		bl	UART_net_PutString
 337              	.LVL24:
 338 009c 3AE0     		b	.L17
 339              	.L20:
 114:.\control.c   ****     }
 115:.\control.c   ****     else if(PTZ_X_V < 500)
 340              		.loc 1 115 0
 341 009e B3F5FA7F 		cmp	r3, #500
ARM GAS  C:\Users\pxc\AppData\Local\Temp\ccMQAUy8.s 			page 9


 342 00a2 09D2     		bcs	.L21
 116:.\control.c   ****     {
 117:.\control.c   ****       send_dir = LEFT;
 343              		.loc 1 117 0
 344 00a4 0222     		movs	r2, #2
 345 00a6 244B     		ldr	r3, .L27+8
 346 00a8 5A70     		strb	r2, [r3, #1]
 118:.\control.c   **** 
 119:.\control.c   ****       debug("PTZ_LEFT");
 347              		.loc 1 119 0
 348 00aa 2948     		ldr	r0, .L27+32
 349 00ac FFF7FEFF 		bl	UART_net_PutString
 350              	.LVL25:
 351 00b0 2348     		ldr	r0, .L27+16
 352 00b2 FFF7FEFF 		bl	UART_net_PutString
 353              	.LVL26:
 354 00b6 2DE0     		b	.L17
 355              	.L21:
 120:.\control.c   ****     }
 121:.\control.c   ****     else if (PTZ_Y_V <500)
 356              		.loc 1 121 0
 357 00b8 1E4A     		ldr	r2, .L27+4
 358 00ba 1288     		ldrh	r2, [r2]
 359 00bc B2F5FA7F 		cmp	r2, #500
 360 00c0 09D2     		bcs	.L22
 122:.\control.c   ****     {
 123:.\control.c   ****         send_dir = DOWN;
 361              		.loc 1 123 0
 362 00c2 0122     		movs	r2, #1
 363 00c4 1C4B     		ldr	r3, .L27+8
 364 00c6 5A70     		strb	r2, [r3, #1]
 124:.\control.c   **** 
 125:.\control.c   ****       debug("PTZ_DOWN");
 365              		.loc 1 125 0
 366 00c8 2248     		ldr	r0, .L27+36
 367 00ca FFF7FEFF 		bl	UART_net_PutString
 368              	.LVL27:
 369 00ce 1C48     		ldr	r0, .L27+16
 370 00d0 FFF7FEFF 		bl	UART_net_PutString
 371              	.LVL28:
 372 00d4 1EE0     		b	.L17
 373              	.L22:
 126:.\control.c   ****     }
 127:.\control.c   ****     else if(PTZ_Y_V >3500)
 374              		.loc 1 127 0
 375 00d6 40F6AC51 		movw	r1, #3500
 376 00da 8A42     		cmp	r2, r1
 377 00dc 09D9     		bls	.L23
 128:.\control.c   ****     {
 129:.\control.c   ****         send_dir = UP;
 378              		.loc 1 129 0
 379 00de 0022     		movs	r2, #0
 380 00e0 154B     		ldr	r3, .L27+8
 381 00e2 5A70     		strb	r2, [r3, #1]
 130:.\control.c   ****  
 131:.\control.c   ****       debug("PTZ_UP");
 382              		.loc 1 131 0
ARM GAS  C:\Users\pxc\AppData\Local\Temp\ccMQAUy8.s 			page 10


 383 00e4 1C48     		ldr	r0, .L27+40
 384 00e6 FFF7FEFF 		bl	UART_net_PutString
 385              	.LVL29:
 386 00ea 1548     		ldr	r0, .L27+16
 387 00ec FFF7FEFF 		bl	UART_net_PutString
 388              	.LVL30:
 389 00f0 10E0     		b	.L17
 390              	.L23:
 132:.\control.c   ****     }
 133:.\control.c   ****     else if(PTZ_X_V > 3500)
 391              		.loc 1 133 0
 392 00f2 40F6AC52 		movw	r2, #3500
 393 00f6 9342     		cmp	r3, r2
 394 00f8 09D9     		bls	.L24
 134:.\control.c   ****     {
 135:.\control.c   ****         send_dir = RIGHT;
 395              		.loc 1 135 0
 396 00fa 0322     		movs	r2, #3
 397 00fc 0E4B     		ldr	r3, .L27+8
 398 00fe 5A70     		strb	r2, [r3, #1]
 136:.\control.c   **** 
 137:.\control.c   ****       debug("PTZ_RIGHT");
 399              		.loc 1 137 0
 400 0100 1648     		ldr	r0, .L27+44
 401 0102 FFF7FEFF 		bl	UART_net_PutString
 402              	.LVL31:
 403 0106 0E48     		ldr	r0, .L27+16
 404 0108 FFF7FEFF 		bl	UART_net_PutString
 405              	.LVL32:
 406 010c 02E0     		b	.L17
 407              	.L24:
 138:.\control.c   ****     }
 139:.\control.c   ****     else
 140:.\control.c   ****     {
 141:.\control.c   ****         send_dir = STOP;
 408              		.loc 1 141 0
 409 010e 0822     		movs	r2, #8
 410 0110 094B     		ldr	r3, .L27+8
 411 0112 5A70     		strb	r2, [r3, #1]
 412              	.L17:
 142:.\control.c   ****         
 143:.\control.c   ****     }
 144:.\control.c   ****     if(pre_dir != send_dir)
 413              		.loc 1 144 0
 414 0114 124B     		ldr	r3, .L27+48
 415 0116 5B78     		ldrb	r3, [r3, #1]	@ zero_extendqisi2
 416 0118 074A     		ldr	r2, .L27+8
 417 011a 5078     		ldrb	r0, [r2, #1]	@ zero_extendqisi2
 418 011c 8342     		cmp	r3, r0
 419 011e 05D0     		beq	.L15
 145:.\control.c   ****     { 
 146:.\control.c   ****        //  printf("--------------dir:%d-----------------",send_dir);
 147:.\control.c   ****        DT_Send_Command_Ptz(send_dir);
 420              		.loc 1 147 0
 421 0120 FFF7FEFF 		bl	DT_Send_Command_Ptz
 422              	.LVL33:
 148:.\control.c   ****        
ARM GAS  C:\Users\pxc\AppData\Local\Temp\ccMQAUy8.s 			page 11


 149:.\control.c   ****        pre_dir = send_dir;
 423              		.loc 1 149 0
 424 0124 044B     		ldr	r3, .L27+8
 425 0126 5A78     		ldrb	r2, [r3, #1]	@ zero_extendqisi2
 426 0128 0D4B     		ldr	r3, .L27+48
 427 012a 5A70     		strb	r2, [r3, #1]
 428              	.L15:
 429 012c 08BD     		pop	{r3, pc}
 430              	.L28:
 431 012e 00BF     		.align	2
 432              	.L27:
 433 0130 00000000 		.word	PTZ_X_V
 434 0134 00000000 		.word	PTZ_Y_V
 435 0138 00000000 		.word	.LANCHOR0
 436 013c 6C000000 		.word	.LC9
 437 0140 10000000 		.word	.LC1
 438 0144 7C000000 		.word	.LC10
 439 0148 88000000 		.word	.LC11
 440 014c 98000000 		.word	.LC12
 441 0150 A8000000 		.word	.LC13
 442 0154 B4000000 		.word	.LC14
 443 0158 C0000000 		.word	.LC15
 444 015c C8000000 		.word	.LC16
 445 0160 00000000 		.word	.LANCHOR1
 446              		.cfi_endproc
 447              	.LFE64:
 448              		.size	Cal_ptz_dir, .-Cal_ptz_dir
 449              		.section	.text.Get_LED_Value,"ax",%progbits
 450              		.align	2
 451              		.global	Get_LED_Value
 452              		.thumb
 453              		.thumb_func
 454              		.type	Get_LED_Value, %function
 455              	Get_LED_Value:
 456              	.LFB65:
 150:.\control.c   ****     }
 151:.\control.c   **** }
 152:.\control.c   **** 
 153:.\control.c   **** uint8 Get_LED_Value(uint16 LED_VALUE)
 154:.\control.c   **** {
 457              		.loc 1 154 0
 458              		.cfi_startproc
 459              		@ args = 0, pretend = 0, frame = 0
 460              		@ frame_needed = 0, uses_anonymous_args = 0
 461              		@ link register save eliminated.
 462              	.LVL34:
 155:.\control.c   ****     if(0<= LED_VALUE && LED_VALUE<= 100)
 463              		.loc 1 155 0
 464 0000 6428     		cmp	r0, #100
 465 0002 37D9     		bls	.L31
 156:.\control.c   ****     {
 157:.\control.c   ****         return 0;
 158:.\control.c   ****     }
 159:.\control.c   ****     else if(100< LED_VALUE && LED_VALUE<= 500 )
 466              		.loc 1 159 0
 467 0004 A0F16503 		sub	r3, r0, #101
 468 0008 9BB2     		uxth	r3, r3
ARM GAS  C:\Users\pxc\AppData\Local\Temp\ccMQAUy8.s 			page 12


 469 000a B3F5C87F 		cmp	r3, #400
 470 000e 33D3     		bcc	.L32
 160:.\control.c   ****     {
 161:.\control.c   ****         return 20;
 162:.\control.c   ****     }
 163:.\control.c   ****     else if (500< LED_VALUE && LED_VALUE <= 1000)
 471              		.loc 1 163 0
 472 0010 A0F2F513 		subw	r3, r0, #501
 473 0014 9BB2     		uxth	r3, r3
 474 0016 B3F5FA7F 		cmp	r3, #500
 475 001a 2FD3     		bcc	.L33
 164:.\control.c   ****     {
 165:.\control.c   ****         return 30; 
 166:.\control.c   ****     }
 167:.\control.c   ****     else if (1000< LED_VALUE && LED_VALUE<= 1500)
 476              		.loc 1 167 0
 477 001c A0F2E933 		subw	r3, r0, #1001
 478 0020 9BB2     		uxth	r3, r3
 479 0022 B3F5FA7F 		cmp	r3, #500
 480 0026 2BD3     		bcc	.L34
 168:.\control.c   ****     {
 169:.\control.c   ****         return 40; 
 170:.\control.c   ****     }
 171:.\control.c   ****     else if (1500< LED_VALUE && LED_VALUE<= 2000)
 481              		.loc 1 171 0
 482 0028 A0F2DD53 		subw	r3, r0, #1501
 483 002c 9BB2     		uxth	r3, r3
 484 002e B3F5FA7F 		cmp	r3, #500
 485 0032 27D3     		bcc	.L35
 172:.\control.c   ****     {
 173:.\control.c   ****          return 50; 
 174:.\control.c   ****     }
 175:.\control.c   ****     else if (2000< LED_VALUE && LED_VALUE<= 2500)
 486              		.loc 1 175 0
 487 0034 A0F2D173 		subw	r3, r0, #2001
 488 0038 9BB2     		uxth	r3, r3
 489 003a B3F5FA7F 		cmp	r3, #500
 490 003e 23D3     		bcc	.L36
 176:.\control.c   ****     {
 177:.\control.c   ****         return 60; 
 178:.\control.c   ****     }
 179:.\control.c   ****     else if (2500< LED_VALUE && LED_VALUE<= 3000)
 491              		.loc 1 179 0
 492 0040 A0F6C513 		subw	r3, r0, #2501
 493 0044 9BB2     		uxth	r3, r3
 494 0046 B3F5FA7F 		cmp	r3, #500
 495 004a 1FD3     		bcc	.L37
 180:.\control.c   ****     {
 181:.\control.c   ****         return 70;
 182:.\control.c   ****     }
 183:.\control.c   ****     else if (3000< LED_VALUE && LED_VALUE<= 3500)
 496              		.loc 1 183 0
 497 004c A0F6B933 		subw	r3, r0, #3001
 498 0050 9BB2     		uxth	r3, r3
 499 0052 B3F5FA7F 		cmp	r3, #500
 500 0056 1BD3     		bcc	.L38
 184:.\control.c   ****     {
ARM GAS  C:\Users\pxc\AppData\Local\Temp\ccMQAUy8.s 			page 13


 185:.\control.c   ****         return 80;
 186:.\control.c   ****     }
 187:.\control.c   ****     else if (3500< LED_VALUE && LED_VALUE<= 4000)
 501              		.loc 1 187 0
 502 0058 A0F6AD53 		subw	r3, r0, #3501
 503 005c 9BB2     		uxth	r3, r3
 504 005e B3F5FA7F 		cmp	r3, #500
 505 0062 17D3     		bcc	.L39
 188:.\control.c   ****     {
 189:.\control.c   ****         return 90;
 190:.\control.c   ****     }
 191:.\control.c   ****     else if (4000< LED_VALUE && LED_VALUE<= 4500)
 506              		.loc 1 191 0
 507 0064 A0F6A173 		subw	r3, r0, #4001
 508 0068 9BB2     		uxth	r3, r3
 509 006a B3F5FA7F 		cmp	r3, #500
 510 006e 13D2     		bcs	.L40
 192:.\control.c   ****     {
 193:.\control.c   ****         return 100;
 511              		.loc 1 193 0
 512 0070 6420     		movs	r0, #100
 513              	.LVL35:
 514 0072 7047     		bx	lr
 515              	.LVL36:
 516              	.L31:
 157:.\control.c   ****     }
 517              		.loc 1 157 0
 518 0074 0020     		movs	r0, #0
 519              	.LVL37:
 520 0076 7047     		bx	lr
 521              	.LVL38:
 522              	.L32:
 161:.\control.c   ****     }
 523              		.loc 1 161 0
 524 0078 1420     		movs	r0, #20
 525              	.LVL39:
 526 007a 7047     		bx	lr
 527              	.LVL40:
 528              	.L33:
 165:.\control.c   ****     }
 529              		.loc 1 165 0
 530 007c 1E20     		movs	r0, #30
 531              	.LVL41:
 532 007e 7047     		bx	lr
 533              	.LVL42:
 534              	.L34:
 169:.\control.c   ****     }
 535              		.loc 1 169 0
 536 0080 2820     		movs	r0, #40
 537              	.LVL43:
 538 0082 7047     		bx	lr
 539              	.LVL44:
 540              	.L35:
 173:.\control.c   ****     }
 541              		.loc 1 173 0
 542 0084 3220     		movs	r0, #50
 543              	.LVL45:
ARM GAS  C:\Users\pxc\AppData\Local\Temp\ccMQAUy8.s 			page 14


 544 0086 7047     		bx	lr
 545              	.LVL46:
 546              	.L36:
 177:.\control.c   ****     }
 547              		.loc 1 177 0
 548 0088 3C20     		movs	r0, #60
 549              	.LVL47:
 550 008a 7047     		bx	lr
 551              	.LVL48:
 552              	.L37:
 181:.\control.c   ****     }
 553              		.loc 1 181 0
 554 008c 4620     		movs	r0, #70
 555              	.LVL49:
 556 008e 7047     		bx	lr
 557              	.LVL50:
 558              	.L38:
 185:.\control.c   ****     }
 559              		.loc 1 185 0
 560 0090 5020     		movs	r0, #80
 561              	.LVL51:
 562 0092 7047     		bx	lr
 563              	.LVL52:
 564              	.L39:
 189:.\control.c   ****     }
 565              		.loc 1 189 0
 566 0094 5A20     		movs	r0, #90
 567              	.LVL53:
 568 0096 7047     		bx	lr
 569              	.LVL54:
 570              	.L40:
 194:.\control.c   ****     }
 195:.\control.c   ****     else
 196:.\control.c   ****         return 0;
 571              		.loc 1 196 0
 572 0098 0020     		movs	r0, #0
 573              	.LVL55:
 197:.\control.c   ****     
 198:.\control.c   **** }
 574              		.loc 1 198 0
 575 009a 7047     		bx	lr
 576              		.cfi_endproc
 577              	.LFE65:
 578              		.size	Get_LED_Value, .-Get_LED_Value
 579              		.section	.text.Cal_LED_value,"ax",%progbits
 580              		.align	2
 581              		.global	Cal_LED_value
 582              		.thumb
 583              		.thumb_func
 584              		.type	Cal_LED_value, %function
 585              	Cal_LED_value:
 586              	.LFB66:
 199:.\control.c   **** void Cal_LED_value()
 200:.\control.c   **** {
 587              		.loc 1 200 0
 588              		.cfi_startproc
 589              		@ args = 0, pretend = 0, frame = 0
ARM GAS  C:\Users\pxc\AppData\Local\Temp\ccMQAUy8.s 			page 15


 590              		@ frame_needed = 0, uses_anonymous_args = 0
 591 0000 38B5     		push	{r3, r4, r5, lr}
 592              		.cfi_def_cfa_offset 16
 593              		.cfi_offset 3, -16
 594              		.cfi_offset 4, -12
 595              		.cfi_offset 5, -8
 596              		.cfi_offset 14, -4
 201:.\control.c   ****     static uint8 cur_value[4];
 202:.\control.c   ****     static uint8 pre_value[4];
 203:.\control.c   ****     uint8 i;
 204:.\control.c   ****     cur_value[0] = Get_LED_Value(LED_1_V);
 597              		.loc 1 204 0
 598 0002 124B     		ldr	r3, .L46
 599 0004 1888     		ldrh	r0, [r3]
 600 0006 FFF7FEFF 		bl	Get_LED_Value
 601              	.LVL56:
 602 000a 114C     		ldr	r4, .L46+4
 603 000c 2071     		strb	r0, [r4, #4]
 205:.\control.c   ****     cur_value[1] = Get_LED_Value(LED_2_V);
 604              		.loc 1 205 0
 605 000e 114B     		ldr	r3, .L46+8
 606 0010 1888     		ldrh	r0, [r3]
 607 0012 FFF7FEFF 		bl	Get_LED_Value
 608              	.LVL57:
 609 0016 6071     		strb	r0, [r4, #5]
 206:.\control.c   ****     cur_value[2] = Get_LED_Value(LED_3_V);
 610              		.loc 1 206 0
 611 0018 0F4B     		ldr	r3, .L46+12
 612 001a 1888     		ldrh	r0, [r3]
 613 001c FFF7FEFF 		bl	Get_LED_Value
 614              	.LVL58:
 615 0020 A071     		strb	r0, [r4, #6]
 616              	.LVL59:
 207:.\control.c   ****     
 208:.\control.c   ****     for(i =0 ;i <4 ; i++)
 617              		.loc 1 208 0
 618 0022 0024     		movs	r4, #0
 619 0024 0EE0     		b	.L42
 620              	.LVL60:
 621              	.L44:
 209:.\control.c   ****     {
 210:.\control.c   ****         if(pre_value[i] != cur_value [i])
 622              		.loc 1 210 0
 623 0026 0A4B     		ldr	r3, .L46+4
 624 0028 2344     		add	r3, r3, r4
 625 002a 1A7A     		ldrb	r2, [r3, #8]	@ zero_extendqisi2
 626 002c 1B79     		ldrb	r3, [r3, #4]	@ zero_extendqisi2
 627 002e 9A42     		cmp	r2, r3
 628 0030 06D0     		beq	.L43
 211:.\control.c   ****         {
 212:.\control.c   ****            DT_Send_Command_Led(cur_value); 
 629              		.loc 1 212 0
 630 0032 074D     		ldr	r5, .L46+4
 631 0034 281D     		adds	r0, r5, #4
 632 0036 FFF7FEFF 		bl	DT_Send_Command_Led
 633              	.LVL61:
 213:.\control.c   ****            
ARM GAS  C:\Users\pxc\AppData\Local\Temp\ccMQAUy8.s 			page 16


 214:.\control.c   ****            pre_value[i] = cur_value[i];
 634              		.loc 1 214 0
 635 003a 2544     		add	r5, r5, r4
 636 003c 2B79     		ldrb	r3, [r5, #4]	@ zero_extendqisi2
 637 003e 2B72     		strb	r3, [r5, #8]
 638              	.L43:
 208:.\control.c   ****     {
 639              		.loc 1 208 0 discriminator 2
 640 0040 0134     		adds	r4, r4, #1
 641              	.LVL62:
 642 0042 E4B2     		uxtb	r4, r4
 643              	.LVL63:
 644              	.L42:
 208:.\control.c   ****     {
 645              		.loc 1 208 0 is_stmt 0 discriminator 1
 646 0044 032C     		cmp	r4, #3
 647 0046 EED9     		bls	.L44
 215:.\control.c   ****          
 216:.\control.c   ****         }
 217:.\control.c   ****     }
 218:.\control.c   ****     
 219:.\control.c   **** }
 648              		.loc 1 219 0 is_stmt 1
 649 0048 38BD     		pop	{r3, r4, r5, pc}
 650              	.LVL64:
 651              	.L47:
 652 004a 00BF     		.align	2
 653              	.L46:
 654 004c 00000000 		.word	LED_1_V
 655 0050 00000000 		.word	.LANCHOR1
 656 0054 00000000 		.word	LED_2_V
 657 0058 00000000 		.word	LED_3_V
 658              		.cfi_endproc
 659              	.LFE66:
 660              		.size	Cal_LED_value, .-Cal_LED_value
 661              		.section	.text.Get_Speed_Value,"ax",%progbits
 662              		.align	2
 663              		.global	Get_Speed_Value
 664              		.thumb
 665              		.thumb_func
 666              		.type	Get_Speed_Value, %function
 667              	Get_Speed_Value:
 668              	.LFB67:
 220:.\control.c   **** 
 221:.\control.c   **** uint16 Get_Speed_Value(uint16 speed_value)
 222:.\control.c   **** {
 669              		.loc 1 222 0
 670              		.cfi_startproc
 671              		@ args = 0, pretend = 0, frame = 0
 672              		@ frame_needed = 0, uses_anonymous_args = 0
 673              		@ link register save eliminated.
 674              	.LVL65:
 223:.\control.c   ****     if(0<= speed_value && speed_value<= 100)
 675              		.loc 1 223 0
 676 0000 6428     		cmp	r0, #100
 677 0002 38D9     		bls	.L50
 224:.\control.c   ****     {
ARM GAS  C:\Users\pxc\AppData\Local\Temp\ccMQAUy8.s 			page 17


 225:.\control.c   ****         return 6000;
 226:.\control.c   ****     }
 227:.\control.c   ****     else if(100< speed_value && speed_value<= 500 )
 678              		.loc 1 227 0
 679 0004 A0F16503 		sub	r3, r0, #101
 680 0008 9BB2     		uxth	r3, r3
 681 000a B3F5C87F 		cmp	r3, #400
 682 000e 35D3     		bcc	.L51
 228:.\control.c   ****     {
 229:.\control.c   ****         return 8000;
 230:.\control.c   ****     }
 231:.\control.c   ****     else if (500< speed_value && speed_value <= 1000)
 683              		.loc 1 231 0
 684 0010 A0F2F513 		subw	r3, r0, #501
 685 0014 9BB2     		uxth	r3, r3
 686 0016 B3F5FA7F 		cmp	r3, #500
 687 001a 32D3     		bcc	.L52
 232:.\control.c   ****     {
 233:.\control.c   ****         return 10000; 
 234:.\control.c   ****     }
 235:.\control.c   ****     else if (1000< speed_value && speed_value<= 1500)
 688              		.loc 1 235 0
 689 001c A0F2E933 		subw	r3, r0, #1001
 690 0020 9BB2     		uxth	r3, r3
 691 0022 B3F5FA7F 		cmp	r3, #500
 692 0026 2FD3     		bcc	.L53
 236:.\control.c   ****     {
 237:.\control.c   ****         return 13000; 
 238:.\control.c   ****     }
 239:.\control.c   ****     else if (1500< speed_value && speed_value<= 2000)
 693              		.loc 1 239 0
 694 0028 A0F2DD53 		subw	r3, r0, #1501
 695 002c 9BB2     		uxth	r3, r3
 696 002e B3F5FA7F 		cmp	r3, #500
 697 0032 2CD3     		bcc	.L54
 240:.\control.c   ****     {
 241:.\control.c   ****          return 15000; 
 242:.\control.c   ****     }
 243:.\control.c   ****     else if (2000< speed_value && speed_value<= 2500)
 698              		.loc 1 243 0
 699 0034 A0F2D173 		subw	r3, r0, #2001
 700 0038 9BB2     		uxth	r3, r3
 701 003a B3F5FA7F 		cmp	r3, #500
 702 003e 29D3     		bcc	.L55
 244:.\control.c   ****     {
 245:.\control.c   ****         return 16000; 
 246:.\control.c   ****     }
 247:.\control.c   ****     else if (2500< speed_value && speed_value<= 3000)
 703              		.loc 1 247 0
 704 0040 A0F6C513 		subw	r3, r0, #2501
 705 0044 9BB2     		uxth	r3, r3
 706 0046 B3F5FA7F 		cmp	r3, #500
 707 004a 26D3     		bcc	.L56
 248:.\control.c   ****     {
 249:.\control.c   ****         return 17000;
 250:.\control.c   ****     }
 251:.\control.c   ****     else if (3000< speed_value && speed_value<= 3500)
ARM GAS  C:\Users\pxc\AppData\Local\Temp\ccMQAUy8.s 			page 18


 708              		.loc 1 251 0
 709 004c A0F6B933 		subw	r3, r0, #3001
 710 0050 9BB2     		uxth	r3, r3
 711 0052 B3F5FA7F 		cmp	r3, #500
 712 0056 23D3     		bcc	.L57
 252:.\control.c   ****     {
 253:.\control.c   ****         return 18000;
 254:.\control.c   ****     }
 255:.\control.c   ****     else if (3500< speed_value && speed_value<= 4000)
 713              		.loc 1 255 0
 714 0058 A0F6AD53 		subw	r3, r0, #3501
 715 005c 9BB2     		uxth	r3, r3
 716 005e B3F5FA7F 		cmp	r3, #500
 717 0062 20D3     		bcc	.L58
 256:.\control.c   ****     {
 257:.\control.c   ****         return 19000;
 258:.\control.c   ****     }
 259:.\control.c   ****     else if (4000< speed_value && speed_value<= 4500)
 718              		.loc 1 259 0
 719 0064 A0F6A173 		subw	r3, r0, #4001
 720 0068 9BB2     		uxth	r3, r3
 721 006a B3F5FA7F 		cmp	r3, #500
 722 006e 1DD2     		bcs	.L59
 260:.\control.c   ****     {
 261:.\control.c   ****         return 20000;
 723              		.loc 1 261 0
 724 0070 44F62060 		movw	r0, #20000
 725              	.LVL66:
 726 0074 7047     		bx	lr
 727              	.LVL67:
 728              	.L50:
 225:.\control.c   ****     }
 729              		.loc 1 225 0
 730 0076 41F27070 		movw	r0, #6000
 731              	.LVL68:
 732 007a 7047     		bx	lr
 733              	.LVL69:
 734              	.L51:
 229:.\control.c   ****     }
 735              		.loc 1 229 0
 736 007c 4FF4FA50 		mov	r0, #8000
 737              	.LVL70:
 738 0080 7047     		bx	lr
 739              	.LVL71:
 740              	.L52:
 233:.\control.c   ****     }
 741              		.loc 1 233 0
 742 0082 42F21070 		movw	r0, #10000
 743              	.LVL72:
 744 0086 7047     		bx	lr
 745              	.LVL73:
 746              	.L53:
 237:.\control.c   ****     }
 747              		.loc 1 237 0
 748 0088 43F2C820 		movw	r0, #13000
 749              	.LVL74:
 750 008c 7047     		bx	lr
ARM GAS  C:\Users\pxc\AppData\Local\Temp\ccMQAUy8.s 			page 19


 751              	.LVL75:
 752              	.L54:
 241:.\control.c   ****     }
 753              		.loc 1 241 0
 754 008e 43F69820 		movw	r0, #15000
 755              	.LVL76:
 756 0092 7047     		bx	lr
 757              	.LVL77:
 758              	.L55:
 245:.\control.c   ****     }
 759              		.loc 1 245 0
 760 0094 4FF47A50 		mov	r0, #16000
 761              	.LVL78:
 762 0098 7047     		bx	lr
 763              	.LVL79:
 764              	.L56:
 249:.\control.c   ****     }
 765              		.loc 1 249 0
 766 009a 44F26820 		movw	r0, #17000
 767              	.LVL80:
 768 009e 7047     		bx	lr
 769              	.LVL81:
 770              	.L57:
 253:.\control.c   ****     }
 771              		.loc 1 253 0
 772 00a0 44F25060 		movw	r0, #18000
 773              	.LVL82:
 774 00a4 7047     		bx	lr
 775              	.LVL83:
 776              	.L58:
 257:.\control.c   ****     }
 777              		.loc 1 257 0
 778 00a6 44F63820 		movw	r0, #19000
 779              	.LVL84:
 780 00aa 7047     		bx	lr
 781              	.LVL85:
 782              	.L59:
 262:.\control.c   ****     }
 263:.\control.c   ****     else
 264:.\control.c   ****         return 14000;
 783              		.loc 1 264 0
 784 00ac 43F2B060 		movw	r0, #14000
 785              	.LVL86:
 265:.\control.c   **** }
 786              		.loc 1 265 0
 787 00b0 7047     		bx	lr
 788              		.cfi_endproc
 789              	.LFE67:
 790              		.size	Get_Speed_Value, .-Get_Speed_Value
 791 00b2 00BF     		.section	.text.Cal_Speed_value,"ax",%progbits
 792              		.align	2
 793              		.global	Cal_Speed_value
 794              		.thumb
 795              		.thumb_func
 796              		.type	Cal_Speed_value, %function
 797              	Cal_Speed_value:
 798              	.LFB68:
ARM GAS  C:\Users\pxc\AppData\Local\Temp\ccMQAUy8.s 			page 20


 266:.\control.c   **** void Cal_Speed_value()
 267:.\control.c   **** {
 799              		.loc 1 267 0
 800              		.cfi_startproc
 801              		@ args = 0, pretend = 0, frame = 0
 802              		@ frame_needed = 0, uses_anonymous_args = 0
 803 0000 08B5     		push	{r3, lr}
 804              		.cfi_def_cfa_offset 8
 805              		.cfi_offset 3, -8
 806              		.cfi_offset 14, -4
 268:.\control.c   ****      static uint8 cur_value;
 269:.\control.c   ****      static uint8 pre_value;
 270:.\control.c   ****      cur_value = Get_Speed_Value(CAR_SPEED_V);
 807              		.loc 1 270 0
 808 0002 054B     		ldr	r3, .L63
 809 0004 1888     		ldrh	r0, [r3]
 810 0006 FFF7FEFF 		bl	Get_Speed_Value
 811              	.LVL87:
 812 000a C0B2     		uxtb	r0, r0
 813 000c 034B     		ldr	r3, .L63+4
 814 000e 1873     		strb	r0, [r3, #12]
 271:.\control.c   ****      if(pre_value != cur_value )
 815              		.loc 1 271 0
 816 0010 08B1     		cbz	r0, .L60
 272:.\control.c   ****     {
 273:.\control.c   ****         DT_Send_Command_Speed(cur_value);
 817              		.loc 1 273 0
 818 0012 FFF7FEFF 		bl	DT_Send_Command_Speed
 819              	.LVL88:
 820              	.L60:
 821 0016 08BD     		pop	{r3, pc}
 822              	.L64:
 823              		.align	2
 824              	.L63:
 825 0018 00000000 		.word	CAR_SPEED_V
 826 001c 00000000 		.word	.LANCHOR1
 827              		.cfi_endproc
 828              	.LFE68:
 829              		.size	Cal_Speed_value, .-Cal_Speed_value
 830              		.comm	CAR_SPEED_V,2,2
 831              		.comm	LED_3_V,2,2
 832              		.comm	LED_2_V,2,2
 833              		.comm	LED_1_V,2,2
 834              		.comm	PTZ_Y_V,2,2
 835              		.comm	PTZ_X_V,2,2
 836              		.comm	CAR_Y_V,2,2
 837              		.comm	CAR_X_V,2,2
 838              		.comm	B_V,2,2
 839              		.comm	g_Control,4,4
 840              		.comm	g_Car,20,4
 841              		.data
 842              		.set	.LANCHOR0,. + 0
 843              		.type	send_dir.6071, %object
 844              		.size	send_dir.6071, 1
 845              	send_dir.6071:
 846 0000 08       		.byte	8
 847              		.type	send_dir.6075, %object
ARM GAS  C:\Users\pxc\AppData\Local\Temp\ccMQAUy8.s 			page 21


 848              		.size	send_dir.6075, 1
 849              	send_dir.6075:
 850 0001 08       		.byte	8
 851              		.section	.rodata.str1.4,"aMS",%progbits,1
 852              		.align	2
 853              	.LC0:
 854 0000 4341525F 		.ascii	"CAR_DOWN_LEFT\000"
 854      444F574E 
 854      5F4C4546 
 854      5400
 855 000e 0000     		.space	2
 856              	.LC1:
 857 0010 0D0A00   		.ascii	"\015\012\000"
 858 0013 00       		.space	1
 859              	.LC2:
 860 0014 4341525F 		.ascii	"CAR_UP_LEFT\000"
 860      55505F4C 
 860      45465400 
 861              	.LC3:
 862 0020 4341525F 		.ascii	"CAR_UP_RIGHT\000"
 862      55505F52 
 862      49474854 
 862      00
 863 002d 000000   		.space	3
 864              	.LC4:
 865 0030 4341525F 		.ascii	"CAR_DOWN_RIGHT\000"
 865      444F574E 
 865      5F524947 
 865      485400
 866 003f 00       		.space	1
 867              	.LC5:
 868 0040 4341525F 		.ascii	"CAR_LEFT\000"
 868      4C454654 
 868      00
 869 0049 000000   		.space	3
 870              	.LC6:
 871 004c 4341525F 		.ascii	"CAR_DOWN\000"
 871      444F574E 
 871      00
 872 0055 000000   		.space	3
 873              	.LC7:
 874 0058 4341525F 		.ascii	"CAR_UP\000"
 874      555000
 875 005f 00       		.space	1
 876              	.LC8:
 877 0060 4341525F 		.ascii	"CAR_RIGHT\000"
 877      52494748 
 877      5400
 878 006a 0000     		.space	2
 879              	.LC9:
 880 006c 50545A5F 		.ascii	"PTZ_DOWN_LEFT\000"
 880      444F574E 
 880      5F4C4546 
 880      5400
 881 007a 0000     		.space	2
 882              	.LC10:
 883 007c 50545A5F 		.ascii	"PTZ_UP_LEFT\000"
ARM GAS  C:\Users\pxc\AppData\Local\Temp\ccMQAUy8.s 			page 22


 883      55505F4C 
 883      45465400 
 884              	.LC11:
 885 0088 50545A5F 		.ascii	"PTZ_UP_RIGHT\000"
 885      55505F52 
 885      49474854 
 885      00
 886 0095 000000   		.space	3
 887              	.LC12:
 888 0098 50545A5F 		.ascii	"PTZ_DOWN_RIGHT\000"
 888      444F574E 
 888      5F524947 
 888      485400
 889 00a7 00       		.space	1
 890              	.LC13:
 891 00a8 50545A5F 		.ascii	"PTZ_LEFT\000"
 891      4C454654 
 891      00
 892 00b1 000000   		.space	3
 893              	.LC14:
 894 00b4 50545A5F 		.ascii	"PTZ_DOWN\000"
 894      444F574E 
 894      00
 895 00bd 000000   		.space	3
 896              	.LC15:
 897 00c0 50545A5F 		.ascii	"PTZ_UP\000"
 897      555000
 898 00c7 00       		.space	1
 899              	.LC16:
 900 00c8 50545A5F 		.ascii	"PTZ_RIGHT\000"
 900      52494748 
 900      5400
 901 00d2 0000     		.bss
 902              		.align	2
 903              		.set	.LANCHOR1,. + 0
 904              		.type	pre_dir.6072, %object
 905              		.size	pre_dir.6072, 1
 906              	pre_dir.6072:
 907 0000 00       		.space	1
 908              		.type	pre_dir.6076, %object
 909              		.size	pre_dir.6076, 1
 910              	pre_dir.6076:
 911 0001 00       		.space	1
 912 0002 0000     		.space	2
 913              		.type	cur_value.6082, %object
 914              		.size	cur_value.6082, 4
 915              	cur_value.6082:
 916 0004 00000000 		.space	4
 917              		.type	pre_value.6083, %object
 918              		.size	pre_value.6083, 4
 919              	pre_value.6083:
 920 0008 00000000 		.space	4
 921              		.type	cur_value.6093, %object
 922              		.size	cur_value.6093, 1
 923              	cur_value.6093:
 924 000c 00       		.space	1
 925 000d 000000   		.text
ARM GAS  C:\Users\pxc\AppData\Local\Temp\ccMQAUy8.s 			page 23


 926              	.Letext0:
 927              		.file 2 "c:\\program files (x86)\\cypress\\psoc creator\\3.3\\psoc creator\\import\\gnu\\arm\\4.9.
 928              		.file 3 "c:\\program files (x86)\\cypress\\psoc creator\\3.3\\psoc creator\\import\\gnu\\arm\\4.9.
 929              		.file 4 "Generated_Source\\PSoC5/cytypes.h"
 930              		.file 5 ".\\control.h"
 931              		.file 6 "Generated_Source\\PSoC5/core_cm3.h"
 932              		.file 7 ".\\ADC_V.h"
 933              		.file 8 "Generated_Source\\PSoC5/UART_net.h"
 934              		.file 9 ".\\Transfer.h"