ARM GAS  C:\Users\PANXIA~1\AppData\Local\Temp\ccdzifhO.s 			page 1


   1              		.syntax unified
   2              		.cpu cortex-m3
   3              		.fpu softvfp
   4              		.eabi_attribute 20, 1
   5              		.eabi_attribute 21, 1
   6              		.eabi_attribute 23, 3
   7              		.eabi_attribute 24, 1
   8              		.eabi_attribute 25, 1
   9              		.eabi_attribute 26, 1
  10              		.eabi_attribute 30, 1
  11              		.eabi_attribute 34, 1
  12              		.eabi_attribute 18, 4
  13              		.thumb
  14              		.file	"isr_timer.c"
  15              		.text
  16              	.Ltext0:
  17              		.cfi_sections	.debug_frame
  18              		.section	.text.isr_timer_Interrupt,"ax",%progbits
  19              		.align	2
  20              		.global	isr_timer_Interrupt
  21              		.thumb
  22              		.thumb_func
  23              		.type	isr_timer_Interrupt, %function
  24              	isr_timer_Interrupt:
  25              	.LFB3:
  26              		.file 1 ".\\Generated_Source\\PSoC5\\isr_timer.c"
   1:.\Generated_Source\PSoC5/isr_timer.c **** /*******************************************************************************
   2:.\Generated_Source\PSoC5/isr_timer.c **** * File Name: isr_timer.c  
   3:.\Generated_Source\PSoC5/isr_timer.c **** * Version 1.70
   4:.\Generated_Source\PSoC5/isr_timer.c **** *
   5:.\Generated_Source\PSoC5/isr_timer.c **** *  Description:
   6:.\Generated_Source\PSoC5/isr_timer.c **** *   API for controlling the state of an interrupt.
   7:.\Generated_Source\PSoC5/isr_timer.c **** *
   8:.\Generated_Source\PSoC5/isr_timer.c **** *
   9:.\Generated_Source\PSoC5/isr_timer.c **** *  Note:
  10:.\Generated_Source\PSoC5/isr_timer.c **** *
  11:.\Generated_Source\PSoC5/isr_timer.c **** ********************************************************************************
  12:.\Generated_Source\PSoC5/isr_timer.c **** * Copyright 2008-2015, Cypress Semiconductor Corporation.  All rights reserved.
  13:.\Generated_Source\PSoC5/isr_timer.c **** * You may use this file only in accordance with the license, terms, conditions, 
  14:.\Generated_Source\PSoC5/isr_timer.c **** * disclaimers, and limitations in the end user license agreement accompanying 
  15:.\Generated_Source\PSoC5/isr_timer.c **** * the software package with which this file was provided.
  16:.\Generated_Source\PSoC5/isr_timer.c **** *******************************************************************************/
  17:.\Generated_Source\PSoC5/isr_timer.c **** 
  18:.\Generated_Source\PSoC5/isr_timer.c **** 
  19:.\Generated_Source\PSoC5/isr_timer.c **** #include <cydevice_trm.h>
  20:.\Generated_Source\PSoC5/isr_timer.c **** #include <CyLib.h>
  21:.\Generated_Source\PSoC5/isr_timer.c **** #include <isr_timer.h>
  22:.\Generated_Source\PSoC5/isr_timer.c **** #include "cyapicallbacks.h"
  23:.\Generated_Source\PSoC5/isr_timer.c **** 
  24:.\Generated_Source\PSoC5/isr_timer.c **** #if !defined(isr_timer__REMOVED) /* Check for removal by optimization */
  25:.\Generated_Source\PSoC5/isr_timer.c **** 
  26:.\Generated_Source\PSoC5/isr_timer.c **** /*******************************************************************************
  27:.\Generated_Source\PSoC5/isr_timer.c **** *  Place your includes, defines and code here 
  28:.\Generated_Source\PSoC5/isr_timer.c **** ********************************************************************************/
  29:.\Generated_Source\PSoC5/isr_timer.c **** /* `#START isr_timer_intc` */
  30:.\Generated_Source\PSoC5/isr_timer.c **** #include "buzzer.h"
  31:.\Generated_Source\PSoC5/isr_timer.c **** uint16 time_1ms;
ARM GAS  C:\Users\PANXIA~1\AppData\Local\Temp\ccdzifhO.s 			page 2


  32:.\Generated_Source\PSoC5/isr_timer.c **** uint16 time_5ms;   
  33:.\Generated_Source\PSoC5/isr_timer.c **** uint16 time_100ms;
  34:.\Generated_Source\PSoC5/isr_timer.c **** uint8  time_100ms_state;
  35:.\Generated_Source\PSoC5/isr_timer.c **** uint8  time_5ms_state;
  36:.\Generated_Source\PSoC5/isr_timer.c **** uint16 time_1s;  
  37:.\Generated_Source\PSoC5/isr_timer.c ****  uint16 time_1s_state;    
  38:.\Generated_Source\PSoC5/isr_timer.c **** /* `#END` */
  39:.\Generated_Source\PSoC5/isr_timer.c **** 
  40:.\Generated_Source\PSoC5/isr_timer.c **** #ifndef CYINT_IRQ_BASE
  41:.\Generated_Source\PSoC5/isr_timer.c **** #define CYINT_IRQ_BASE      16
  42:.\Generated_Source\PSoC5/isr_timer.c **** #endif /* CYINT_IRQ_BASE */
  43:.\Generated_Source\PSoC5/isr_timer.c **** #ifndef CYINT_VECT_TABLE
  44:.\Generated_Source\PSoC5/isr_timer.c **** #define CYINT_VECT_TABLE    ((cyisraddress **) CYREG_NVIC_VECT_OFFSET)
  45:.\Generated_Source\PSoC5/isr_timer.c **** #endif /* CYINT_VECT_TABLE */
  46:.\Generated_Source\PSoC5/isr_timer.c **** 
  47:.\Generated_Source\PSoC5/isr_timer.c **** /* Declared in startup, used to set unused interrupts to. */
  48:.\Generated_Source\PSoC5/isr_timer.c **** CY_ISR_PROTO(IntDefaultHandler);
  49:.\Generated_Source\PSoC5/isr_timer.c **** 
  50:.\Generated_Source\PSoC5/isr_timer.c **** 
  51:.\Generated_Source\PSoC5/isr_timer.c **** /*******************************************************************************
  52:.\Generated_Source\PSoC5/isr_timer.c **** * Function Name: isr_timer_Start
  53:.\Generated_Source\PSoC5/isr_timer.c **** ********************************************************************************
  54:.\Generated_Source\PSoC5/isr_timer.c **** *
  55:.\Generated_Source\PSoC5/isr_timer.c **** * Summary:
  56:.\Generated_Source\PSoC5/isr_timer.c **** *  Set up the interrupt and enable it. This function disables the interrupt, 
  57:.\Generated_Source\PSoC5/isr_timer.c **** *  sets the default interrupt vector, sets the priority from the value in the
  58:.\Generated_Source\PSoC5/isr_timer.c **** *  Design Wide Resources Interrupt Editor, then enables the interrupt to the 
  59:.\Generated_Source\PSoC5/isr_timer.c **** *  interrupt controller.
  60:.\Generated_Source\PSoC5/isr_timer.c **** *
  61:.\Generated_Source\PSoC5/isr_timer.c **** * Parameters:  
  62:.\Generated_Source\PSoC5/isr_timer.c **** *   None
  63:.\Generated_Source\PSoC5/isr_timer.c **** *
  64:.\Generated_Source\PSoC5/isr_timer.c **** * Return:
  65:.\Generated_Source\PSoC5/isr_timer.c **** *   None
  66:.\Generated_Source\PSoC5/isr_timer.c **** *
  67:.\Generated_Source\PSoC5/isr_timer.c **** *******************************************************************************/
  68:.\Generated_Source\PSoC5/isr_timer.c **** void isr_timer_Start(void)
  69:.\Generated_Source\PSoC5/isr_timer.c **** {
  70:.\Generated_Source\PSoC5/isr_timer.c ****     /* For all we know the interrupt is active. */
  71:.\Generated_Source\PSoC5/isr_timer.c ****     isr_timer_Disable();
  72:.\Generated_Source\PSoC5/isr_timer.c **** 
  73:.\Generated_Source\PSoC5/isr_timer.c ****     /* Set the ISR to point to the isr_timer Interrupt. */
  74:.\Generated_Source\PSoC5/isr_timer.c ****     isr_timer_SetVector(&isr_timer_Interrupt);
  75:.\Generated_Source\PSoC5/isr_timer.c **** 
  76:.\Generated_Source\PSoC5/isr_timer.c ****     /* Set the priority. */
  77:.\Generated_Source\PSoC5/isr_timer.c ****     isr_timer_SetPriority((uint8)isr_timer_INTC_PRIOR_NUMBER);
  78:.\Generated_Source\PSoC5/isr_timer.c **** 
  79:.\Generated_Source\PSoC5/isr_timer.c ****     /* Enable it. */
  80:.\Generated_Source\PSoC5/isr_timer.c ****     isr_timer_Enable();
  81:.\Generated_Source\PSoC5/isr_timer.c **** }
  82:.\Generated_Source\PSoC5/isr_timer.c **** 
  83:.\Generated_Source\PSoC5/isr_timer.c **** 
  84:.\Generated_Source\PSoC5/isr_timer.c **** /*******************************************************************************
  85:.\Generated_Source\PSoC5/isr_timer.c **** * Function Name: isr_timer_StartEx
  86:.\Generated_Source\PSoC5/isr_timer.c **** ********************************************************************************
  87:.\Generated_Source\PSoC5/isr_timer.c **** *
  88:.\Generated_Source\PSoC5/isr_timer.c **** * Summary:
ARM GAS  C:\Users\PANXIA~1\AppData\Local\Temp\ccdzifhO.s 			page 3


  89:.\Generated_Source\PSoC5/isr_timer.c **** *  Sets up the interrupt and enables it. This function disables the interrupt,
  90:.\Generated_Source\PSoC5/isr_timer.c **** *  sets the interrupt vector based on the address passed in, sets the priority 
  91:.\Generated_Source\PSoC5/isr_timer.c **** *  from the value in the Design Wide Resources Interrupt Editor, then enables 
  92:.\Generated_Source\PSoC5/isr_timer.c **** *  the interrupt to the interrupt controller.
  93:.\Generated_Source\PSoC5/isr_timer.c **** *  
  94:.\Generated_Source\PSoC5/isr_timer.c **** *  When defining ISR functions, the CY_ISR and CY_ISR_PROTO macros should be 
  95:.\Generated_Source\PSoC5/isr_timer.c **** *  used to provide consistent definition across compilers:
  96:.\Generated_Source\PSoC5/isr_timer.c **** *  
  97:.\Generated_Source\PSoC5/isr_timer.c **** *  Function definition example:
  98:.\Generated_Source\PSoC5/isr_timer.c **** *   CY_ISR(MyISR)
  99:.\Generated_Source\PSoC5/isr_timer.c **** *   {
 100:.\Generated_Source\PSoC5/isr_timer.c **** *   }
 101:.\Generated_Source\PSoC5/isr_timer.c **** *   Function prototype example:
 102:.\Generated_Source\PSoC5/isr_timer.c **** *   CY_ISR_PROTO(MyISR);
 103:.\Generated_Source\PSoC5/isr_timer.c **** *
 104:.\Generated_Source\PSoC5/isr_timer.c **** * Parameters:  
 105:.\Generated_Source\PSoC5/isr_timer.c **** *   address: Address of the ISR to set in the interrupt vector table.
 106:.\Generated_Source\PSoC5/isr_timer.c **** *
 107:.\Generated_Source\PSoC5/isr_timer.c **** * Return:
 108:.\Generated_Source\PSoC5/isr_timer.c **** *   None
 109:.\Generated_Source\PSoC5/isr_timer.c **** *
 110:.\Generated_Source\PSoC5/isr_timer.c **** *******************************************************************************/
 111:.\Generated_Source\PSoC5/isr_timer.c **** void isr_timer_StartEx(cyisraddress address)
 112:.\Generated_Source\PSoC5/isr_timer.c **** {
 113:.\Generated_Source\PSoC5/isr_timer.c ****     /* For all we know the interrupt is active. */
 114:.\Generated_Source\PSoC5/isr_timer.c ****     isr_timer_Disable();
 115:.\Generated_Source\PSoC5/isr_timer.c **** 
 116:.\Generated_Source\PSoC5/isr_timer.c ****     /* Set the ISR to point to the isr_timer Interrupt. */
 117:.\Generated_Source\PSoC5/isr_timer.c ****     isr_timer_SetVector(address);
 118:.\Generated_Source\PSoC5/isr_timer.c **** 
 119:.\Generated_Source\PSoC5/isr_timer.c ****     /* Set the priority. */
 120:.\Generated_Source\PSoC5/isr_timer.c ****     isr_timer_SetPriority((uint8)isr_timer_INTC_PRIOR_NUMBER);
 121:.\Generated_Source\PSoC5/isr_timer.c **** 
 122:.\Generated_Source\PSoC5/isr_timer.c ****     /* Enable it. */
 123:.\Generated_Source\PSoC5/isr_timer.c ****     isr_timer_Enable();
 124:.\Generated_Source\PSoC5/isr_timer.c **** }
 125:.\Generated_Source\PSoC5/isr_timer.c **** 
 126:.\Generated_Source\PSoC5/isr_timer.c **** 
 127:.\Generated_Source\PSoC5/isr_timer.c **** /*******************************************************************************
 128:.\Generated_Source\PSoC5/isr_timer.c **** * Function Name: isr_timer_Stop
 129:.\Generated_Source\PSoC5/isr_timer.c **** ********************************************************************************
 130:.\Generated_Source\PSoC5/isr_timer.c **** *
 131:.\Generated_Source\PSoC5/isr_timer.c **** * Summary:
 132:.\Generated_Source\PSoC5/isr_timer.c **** *   Disables and removes the interrupt.
 133:.\Generated_Source\PSoC5/isr_timer.c **** *
 134:.\Generated_Source\PSoC5/isr_timer.c **** * Parameters:  
 135:.\Generated_Source\PSoC5/isr_timer.c **** *   None
 136:.\Generated_Source\PSoC5/isr_timer.c **** *
 137:.\Generated_Source\PSoC5/isr_timer.c **** * Return:
 138:.\Generated_Source\PSoC5/isr_timer.c **** *   None
 139:.\Generated_Source\PSoC5/isr_timer.c **** *
 140:.\Generated_Source\PSoC5/isr_timer.c **** *******************************************************************************/
 141:.\Generated_Source\PSoC5/isr_timer.c **** void isr_timer_Stop(void)
 142:.\Generated_Source\PSoC5/isr_timer.c **** {
 143:.\Generated_Source\PSoC5/isr_timer.c ****     /* Disable this interrupt. */
 144:.\Generated_Source\PSoC5/isr_timer.c ****     isr_timer_Disable();
 145:.\Generated_Source\PSoC5/isr_timer.c **** 
ARM GAS  C:\Users\PANXIA~1\AppData\Local\Temp\ccdzifhO.s 			page 4


 146:.\Generated_Source\PSoC5/isr_timer.c ****     /* Set the ISR to point to the passive one. */
 147:.\Generated_Source\PSoC5/isr_timer.c ****     isr_timer_SetVector(&IntDefaultHandler);
 148:.\Generated_Source\PSoC5/isr_timer.c **** }
 149:.\Generated_Source\PSoC5/isr_timer.c **** 
 150:.\Generated_Source\PSoC5/isr_timer.c **** 
 151:.\Generated_Source\PSoC5/isr_timer.c **** /*******************************************************************************
 152:.\Generated_Source\PSoC5/isr_timer.c **** * Function Name: isr_timer_Interrupt
 153:.\Generated_Source\PSoC5/isr_timer.c **** ********************************************************************************
 154:.\Generated_Source\PSoC5/isr_timer.c **** *
 155:.\Generated_Source\PSoC5/isr_timer.c **** * Summary:
 156:.\Generated_Source\PSoC5/isr_timer.c **** *   The default Interrupt Service Routine for isr_timer.
 157:.\Generated_Source\PSoC5/isr_timer.c **** *
 158:.\Generated_Source\PSoC5/isr_timer.c **** *   Add custom code between the coments to keep the next version of this file
 159:.\Generated_Source\PSoC5/isr_timer.c **** *   from over writting your code.
 160:.\Generated_Source\PSoC5/isr_timer.c **** *
 161:.\Generated_Source\PSoC5/isr_timer.c **** * Parameters:  
 162:.\Generated_Source\PSoC5/isr_timer.c **** *
 163:.\Generated_Source\PSoC5/isr_timer.c **** * Return:
 164:.\Generated_Source\PSoC5/isr_timer.c **** *   None
 165:.\Generated_Source\PSoC5/isr_timer.c **** *
 166:.\Generated_Source\PSoC5/isr_timer.c **** *******************************************************************************/
 167:.\Generated_Source\PSoC5/isr_timer.c **** CY_ISR(isr_timer_Interrupt)
 168:.\Generated_Source\PSoC5/isr_timer.c **** {
  27              		.loc 1 168 0
  28              		.cfi_startproc
  29              		@ args = 0, pretend = 0, frame = 0
  30              		@ frame_needed = 0, uses_anonymous_args = 0
  31              		@ link register save eliminated.
 169:.\Generated_Source\PSoC5/isr_timer.c ****     #ifdef isr_timer_INTERRUPT_INTERRUPT_CALLBACK
 170:.\Generated_Source\PSoC5/isr_timer.c ****         isr_timer_Interrupt_InterruptCallback();
 171:.\Generated_Source\PSoC5/isr_timer.c ****     #endif /* isr_timer_INTERRUPT_INTERRUPT_CALLBACK */ 
 172:.\Generated_Source\PSoC5/isr_timer.c **** 
 173:.\Generated_Source\PSoC5/isr_timer.c ****     /*  Place your Interrupt code here. */
 174:.\Generated_Source\PSoC5/isr_timer.c ****     /* `#START isr_timer_Interrupt` */
 175:.\Generated_Source\PSoC5/isr_timer.c ****          time_5ms++;
  32              		.loc 1 175 0
  33 0000 144A     		ldr	r2, .L5
  34 0002 1388     		ldrh	r3, [r2]
  35 0004 0133     		adds	r3, r3, #1
  36 0006 9BB2     		uxth	r3, r3
  37 0008 1380     		strh	r3, [r2]	@ movhi
 176:.\Generated_Source\PSoC5/isr_timer.c ****          time_1s++;
  38              		.loc 1 176 0
  39 000a 134A     		ldr	r2, .L5+4
  40 000c 1188     		ldrh	r1, [r2]
  41 000e 0131     		adds	r1, r1, #1
  42 0010 89B2     		uxth	r1, r1
  43 0012 1180     		strh	r1, [r2]	@ movhi
 177:.\Generated_Source\PSoC5/isr_timer.c ****     time_100ms++;
  44              		.loc 1 177 0
  45 0014 1148     		ldr	r0, .L5+8
  46 0016 0288     		ldrh	r2, [r0]
  47 0018 0132     		adds	r2, r2, #1
  48 001a 92B2     		uxth	r2, r2
  49 001c 0280     		strh	r2, [r0]	@ movhi
 178:.\Generated_Source\PSoC5/isr_timer.c ****     if(time_1s >1000)
  50              		.loc 1 178 0
ARM GAS  C:\Users\PANXIA~1\AppData\Local\Temp\ccdzifhO.s 			page 5


  51 001e B1F57A7F 		cmp	r1, #1000
  52 0022 05D9     		bls	.L2
 179:.\Generated_Source\PSoC5/isr_timer.c ****     {
 180:.\Generated_Source\PSoC5/isr_timer.c ****         time_1s_state = 1;
  53              		.loc 1 180 0
  54 0024 0120     		movs	r0, #1
  55 0026 0E49     		ldr	r1, .L5+12
  56 0028 0880     		strh	r0, [r1]	@ movhi
 181:.\Generated_Source\PSoC5/isr_timer.c ****         time_1s = 0;
  57              		.loc 1 181 0
  58 002a 0020     		movs	r0, #0
  59 002c 0A49     		ldr	r1, .L5+4
  60 002e 0880     		strh	r0, [r1]	@ movhi
  61              	.L2:
 182:.\Generated_Source\PSoC5/isr_timer.c ****     }
 183:.\Generated_Source\PSoC5/isr_timer.c ****     if(time_100ms >100)
  62              		.loc 1 183 0
  63 0030 642A     		cmp	r2, #100
  64 0032 05D9     		bls	.L3
 184:.\Generated_Source\PSoC5/isr_timer.c ****     {
 185:.\Generated_Source\PSoC5/isr_timer.c ****         time_100ms_state = 1;
  65              		.loc 1 185 0
  66 0034 0121     		movs	r1, #1
  67 0036 0B4A     		ldr	r2, .L5+16
  68 0038 1170     		strb	r1, [r2]
 186:.\Generated_Source\PSoC5/isr_timer.c ****         time_100ms = 0;
  69              		.loc 1 186 0
  70 003a 0021     		movs	r1, #0
  71 003c 074A     		ldr	r2, .L5+8
  72 003e 1180     		strh	r1, [r2]	@ movhi
  73              	.L3:
 187:.\Generated_Source\PSoC5/isr_timer.c ****     }
 188:.\Generated_Source\PSoC5/isr_timer.c ****       if(time_5ms > 5)
  74              		.loc 1 188 0
  75 0040 052B     		cmp	r3, #5
  76 0042 05D9     		bls	.L1
 189:.\Generated_Source\PSoC5/isr_timer.c ****       {
 190:.\Generated_Source\PSoC5/isr_timer.c ****        
 191:.\Generated_Source\PSoC5/isr_timer.c ****         time_5ms_state = 1;
  77              		.loc 1 191 0
  78 0044 0122     		movs	r2, #1
  79 0046 084B     		ldr	r3, .L5+20
  80 0048 1A70     		strb	r2, [r3]
 192:.\Generated_Source\PSoC5/isr_timer.c ****         time_5ms = 0;
  81              		.loc 1 192 0
  82 004a 0022     		movs	r2, #0
  83 004c 014B     		ldr	r3, .L5
  84 004e 1A80     		strh	r2, [r3]	@ movhi
  85              	.L1:
  86 0050 7047     		bx	lr
  87              	.L6:
  88 0052 00BF     		.align	2
  89              	.L5:
  90 0054 00000000 		.word	time_5ms
  91 0058 00000000 		.word	time_1s
  92 005c 00000000 		.word	time_100ms
  93 0060 00000000 		.word	time_1s_state
ARM GAS  C:\Users\PANXIA~1\AppData\Local\Temp\ccdzifhO.s 			page 6


  94 0064 00000000 		.word	time_100ms_state
  95 0068 00000000 		.word	time_5ms_state
  96              		.cfi_endproc
  97              	.LFE3:
  98              		.size	isr_timer_Interrupt, .-isr_timer_Interrupt
  99              		.section	.text.isr_timer_SetVector,"ax",%progbits
 100              		.align	2
 101              		.global	isr_timer_SetVector
 102              		.thumb
 103              		.thumb_func
 104              		.type	isr_timer_SetVector, %function
 105              	isr_timer_SetVector:
 106              	.LFB4:
 193:.\Generated_Source\PSoC5/isr_timer.c ****       }
 194:.\Generated_Source\PSoC5/isr_timer.c ****     /* `#END` */
 195:.\Generated_Source\PSoC5/isr_timer.c **** }
 196:.\Generated_Source\PSoC5/isr_timer.c **** 
 197:.\Generated_Source\PSoC5/isr_timer.c **** 
 198:.\Generated_Source\PSoC5/isr_timer.c **** /*******************************************************************************
 199:.\Generated_Source\PSoC5/isr_timer.c **** * Function Name: isr_timer_SetVector
 200:.\Generated_Source\PSoC5/isr_timer.c **** ********************************************************************************
 201:.\Generated_Source\PSoC5/isr_timer.c **** *
 202:.\Generated_Source\PSoC5/isr_timer.c **** * Summary:
 203:.\Generated_Source\PSoC5/isr_timer.c **** *   Change the ISR vector for the Interrupt. Note calling isr_timer_Start
 204:.\Generated_Source\PSoC5/isr_timer.c **** *   will override any effect this method would have had. To set the vector 
 205:.\Generated_Source\PSoC5/isr_timer.c **** *   before the component has been started use isr_timer_StartEx instead.
 206:.\Generated_Source\PSoC5/isr_timer.c **** * 
 207:.\Generated_Source\PSoC5/isr_timer.c **** *   When defining ISR functions, the CY_ISR and CY_ISR_PROTO macros should be 
 208:.\Generated_Source\PSoC5/isr_timer.c **** *   used to provide consistent definition across compilers:
 209:.\Generated_Source\PSoC5/isr_timer.c **** *
 210:.\Generated_Source\PSoC5/isr_timer.c **** *   Function definition example:
 211:.\Generated_Source\PSoC5/isr_timer.c **** *   CY_ISR(MyISR)
 212:.\Generated_Source\PSoC5/isr_timer.c **** *   {
 213:.\Generated_Source\PSoC5/isr_timer.c **** *   }
 214:.\Generated_Source\PSoC5/isr_timer.c **** *
 215:.\Generated_Source\PSoC5/isr_timer.c **** *   Function prototype example:
 216:.\Generated_Source\PSoC5/isr_timer.c **** *     CY_ISR_PROTO(MyISR);
 217:.\Generated_Source\PSoC5/isr_timer.c **** *
 218:.\Generated_Source\PSoC5/isr_timer.c **** * Parameters:
 219:.\Generated_Source\PSoC5/isr_timer.c **** *   address: Address of the ISR to set in the interrupt vector table.
 220:.\Generated_Source\PSoC5/isr_timer.c **** *
 221:.\Generated_Source\PSoC5/isr_timer.c **** * Return:
 222:.\Generated_Source\PSoC5/isr_timer.c **** *   None
 223:.\Generated_Source\PSoC5/isr_timer.c **** *
 224:.\Generated_Source\PSoC5/isr_timer.c **** *******************************************************************************/
 225:.\Generated_Source\PSoC5/isr_timer.c **** void isr_timer_SetVector(cyisraddress address)
 226:.\Generated_Source\PSoC5/isr_timer.c **** {
 107              		.loc 1 226 0
 108              		.cfi_startproc
 109              		@ args = 0, pretend = 0, frame = 0
 110              		@ frame_needed = 0, uses_anonymous_args = 0
 111              		@ link register save eliminated.
 112              	.LVL0:
 227:.\Generated_Source\PSoC5/isr_timer.c ****     cyisraddress * ramVectorTable;
 228:.\Generated_Source\PSoC5/isr_timer.c **** 
 229:.\Generated_Source\PSoC5/isr_timer.c ****     ramVectorTable = (cyisraddress *) *CYINT_VECT_TABLE;
 113              		.loc 1 229 0
ARM GAS  C:\Users\PANXIA~1\AppData\Local\Temp\ccdzifhO.s 			page 7


 114 0000 014B     		ldr	r3, .L8
 115 0002 1B68     		ldr	r3, [r3]
 116              	.LVL1:
 230:.\Generated_Source\PSoC5/isr_timer.c **** 
 231:.\Generated_Source\PSoC5/isr_timer.c ****     ramVectorTable[CYINT_IRQ_BASE + (uint32)isr_timer__INTC_NUMBER] = address;
 117              		.loc 1 231 0
 118 0004 9864     		str	r0, [r3, #72]
 119 0006 7047     		bx	lr
 120              	.L9:
 121              		.align	2
 122              	.L8:
 123 0008 08ED00E0 		.word	-536810232
 124              		.cfi_endproc
 125              	.LFE4:
 126              		.size	isr_timer_SetVector, .-isr_timer_SetVector
 127              		.section	.text.isr_timer_GetVector,"ax",%progbits
 128              		.align	2
 129              		.global	isr_timer_GetVector
 130              		.thumb
 131              		.thumb_func
 132              		.type	isr_timer_GetVector, %function
 133              	isr_timer_GetVector:
 134              	.LFB5:
 232:.\Generated_Source\PSoC5/isr_timer.c **** }
 233:.\Generated_Source\PSoC5/isr_timer.c **** 
 234:.\Generated_Source\PSoC5/isr_timer.c **** 
 235:.\Generated_Source\PSoC5/isr_timer.c **** /*******************************************************************************
 236:.\Generated_Source\PSoC5/isr_timer.c **** * Function Name: isr_timer_GetVector
 237:.\Generated_Source\PSoC5/isr_timer.c **** ********************************************************************************
 238:.\Generated_Source\PSoC5/isr_timer.c **** *
 239:.\Generated_Source\PSoC5/isr_timer.c **** * Summary:
 240:.\Generated_Source\PSoC5/isr_timer.c **** *   Gets the "address" of the current ISR vector for the Interrupt.
 241:.\Generated_Source\PSoC5/isr_timer.c **** *
 242:.\Generated_Source\PSoC5/isr_timer.c **** * Parameters:
 243:.\Generated_Source\PSoC5/isr_timer.c **** *   None
 244:.\Generated_Source\PSoC5/isr_timer.c **** *
 245:.\Generated_Source\PSoC5/isr_timer.c **** * Return:
 246:.\Generated_Source\PSoC5/isr_timer.c **** *   Address of the ISR in the interrupt vector table.
 247:.\Generated_Source\PSoC5/isr_timer.c **** *
 248:.\Generated_Source\PSoC5/isr_timer.c **** *******************************************************************************/
 249:.\Generated_Source\PSoC5/isr_timer.c **** cyisraddress isr_timer_GetVector(void)
 250:.\Generated_Source\PSoC5/isr_timer.c **** {
 135              		.loc 1 250 0
 136              		.cfi_startproc
 137              		@ args = 0, pretend = 0, frame = 0
 138              		@ frame_needed = 0, uses_anonymous_args = 0
 139              		@ link register save eliminated.
 251:.\Generated_Source\PSoC5/isr_timer.c ****     cyisraddress * ramVectorTable;
 252:.\Generated_Source\PSoC5/isr_timer.c **** 
 253:.\Generated_Source\PSoC5/isr_timer.c ****     ramVectorTable = (cyisraddress *) *CYINT_VECT_TABLE;
 140              		.loc 1 253 0
 141 0000 014B     		ldr	r3, .L11
 142 0002 1B68     		ldr	r3, [r3]
 143              	.LVL2:
 254:.\Generated_Source\PSoC5/isr_timer.c **** 
 255:.\Generated_Source\PSoC5/isr_timer.c ****     return ramVectorTable[CYINT_IRQ_BASE + (uint32)isr_timer__INTC_NUMBER];
 256:.\Generated_Source\PSoC5/isr_timer.c **** }
ARM GAS  C:\Users\PANXIA~1\AppData\Local\Temp\ccdzifhO.s 			page 8


 144              		.loc 1 256 0
 145 0004 986C     		ldr	r0, [r3, #72]
 146 0006 7047     		bx	lr
 147              	.L12:
 148              		.align	2
 149              	.L11:
 150 0008 08ED00E0 		.word	-536810232
 151              		.cfi_endproc
 152              	.LFE5:
 153              		.size	isr_timer_GetVector, .-isr_timer_GetVector
 154              		.section	.text.isr_timer_SetPriority,"ax",%progbits
 155              		.align	2
 156              		.global	isr_timer_SetPriority
 157              		.thumb
 158              		.thumb_func
 159              		.type	isr_timer_SetPriority, %function
 160              	isr_timer_SetPriority:
 161              	.LFB6:
 257:.\Generated_Source\PSoC5/isr_timer.c **** 
 258:.\Generated_Source\PSoC5/isr_timer.c **** 
 259:.\Generated_Source\PSoC5/isr_timer.c **** /*******************************************************************************
 260:.\Generated_Source\PSoC5/isr_timer.c **** * Function Name: isr_timer_SetPriority
 261:.\Generated_Source\PSoC5/isr_timer.c **** ********************************************************************************
 262:.\Generated_Source\PSoC5/isr_timer.c **** *
 263:.\Generated_Source\PSoC5/isr_timer.c **** * Summary:
 264:.\Generated_Source\PSoC5/isr_timer.c **** *   Sets the Priority of the Interrupt. 
 265:.\Generated_Source\PSoC5/isr_timer.c **** *
 266:.\Generated_Source\PSoC5/isr_timer.c **** *   Note calling isr_timer_Start or isr_timer_StartEx will 
 267:.\Generated_Source\PSoC5/isr_timer.c **** *   override any effect this API would have had. This API should only be called
 268:.\Generated_Source\PSoC5/isr_timer.c **** *   after isr_timer_Start or isr_timer_StartEx has been called. 
 269:.\Generated_Source\PSoC5/isr_timer.c **** *   To set the initial priority for the component, use the Design-Wide Resources
 270:.\Generated_Source\PSoC5/isr_timer.c **** *   Interrupt Editor.
 271:.\Generated_Source\PSoC5/isr_timer.c **** *
 272:.\Generated_Source\PSoC5/isr_timer.c **** *   Note This API has no effect on Non-maskable interrupt NMI).
 273:.\Generated_Source\PSoC5/isr_timer.c **** *
 274:.\Generated_Source\PSoC5/isr_timer.c **** * Parameters:
 275:.\Generated_Source\PSoC5/isr_timer.c **** *   priority: Priority of the interrupt, 0 being the highest priority
 276:.\Generated_Source\PSoC5/isr_timer.c **** *             PSoC 3 and PSoC 5LP: Priority is from 0 to 7.
 277:.\Generated_Source\PSoC5/isr_timer.c **** *             PSoC 4: Priority is from 0 to 3.
 278:.\Generated_Source\PSoC5/isr_timer.c **** *
 279:.\Generated_Source\PSoC5/isr_timer.c **** * Return:
 280:.\Generated_Source\PSoC5/isr_timer.c **** *   None
 281:.\Generated_Source\PSoC5/isr_timer.c **** *
 282:.\Generated_Source\PSoC5/isr_timer.c **** *******************************************************************************/
 283:.\Generated_Source\PSoC5/isr_timer.c **** void isr_timer_SetPriority(uint8 priority)
 284:.\Generated_Source\PSoC5/isr_timer.c **** {
 162              		.loc 1 284 0
 163              		.cfi_startproc
 164              		@ args = 0, pretend = 0, frame = 0
 165              		@ frame_needed = 0, uses_anonymous_args = 0
 166              		@ link register save eliminated.
 167              	.LVL3:
 285:.\Generated_Source\PSoC5/isr_timer.c ****     *isr_timer_INTC_PRIOR = priority << 5;
 168              		.loc 1 285 0
 169 0000 4001     		lsls	r0, r0, #5
 170              	.LVL4:
 171 0002 C0B2     		uxtb	r0, r0
ARM GAS  C:\Users\PANXIA~1\AppData\Local\Temp\ccdzifhO.s 			page 9


 172 0004 014B     		ldr	r3, .L14
 173 0006 1870     		strb	r0, [r3]
 174 0008 7047     		bx	lr
 175              	.L15:
 176 000a 00BF     		.align	2
 177              	.L14:
 178 000c 02E400E0 		.word	-536812542
 179              		.cfi_endproc
 180              	.LFE6:
 181              		.size	isr_timer_SetPriority, .-isr_timer_SetPriority
 182              		.section	.text.isr_timer_GetPriority,"ax",%progbits
 183              		.align	2
 184              		.global	isr_timer_GetPriority
 185              		.thumb
 186              		.thumb_func
 187              		.type	isr_timer_GetPriority, %function
 188              	isr_timer_GetPriority:
 189              	.LFB7:
 286:.\Generated_Source\PSoC5/isr_timer.c **** }
 287:.\Generated_Source\PSoC5/isr_timer.c **** 
 288:.\Generated_Source\PSoC5/isr_timer.c **** 
 289:.\Generated_Source\PSoC5/isr_timer.c **** /*******************************************************************************
 290:.\Generated_Source\PSoC5/isr_timer.c **** * Function Name: isr_timer_GetPriority
 291:.\Generated_Source\PSoC5/isr_timer.c **** ********************************************************************************
 292:.\Generated_Source\PSoC5/isr_timer.c **** *
 293:.\Generated_Source\PSoC5/isr_timer.c **** * Summary:
 294:.\Generated_Source\PSoC5/isr_timer.c **** *   Gets the Priority of the Interrupt.
 295:.\Generated_Source\PSoC5/isr_timer.c **** *
 296:.\Generated_Source\PSoC5/isr_timer.c **** * Parameters:
 297:.\Generated_Source\PSoC5/isr_timer.c **** *   None
 298:.\Generated_Source\PSoC5/isr_timer.c **** *
 299:.\Generated_Source\PSoC5/isr_timer.c **** * Return:
 300:.\Generated_Source\PSoC5/isr_timer.c **** *   Priority of the interrupt, 0 being the highest priority
 301:.\Generated_Source\PSoC5/isr_timer.c **** *    PSoC 3 and PSoC 5LP: Priority is from 0 to 7.
 302:.\Generated_Source\PSoC5/isr_timer.c **** *    PSoC 4: Priority is from 0 to 3.
 303:.\Generated_Source\PSoC5/isr_timer.c **** *
 304:.\Generated_Source\PSoC5/isr_timer.c **** *******************************************************************************/
 305:.\Generated_Source\PSoC5/isr_timer.c **** uint8 isr_timer_GetPriority(void)
 306:.\Generated_Source\PSoC5/isr_timer.c **** {
 190              		.loc 1 306 0
 191              		.cfi_startproc
 192              		@ args = 0, pretend = 0, frame = 0
 193              		@ frame_needed = 0, uses_anonymous_args = 0
 194              		@ link register save eliminated.
 307:.\Generated_Source\PSoC5/isr_timer.c ****     uint8 priority;
 308:.\Generated_Source\PSoC5/isr_timer.c **** 
 309:.\Generated_Source\PSoC5/isr_timer.c **** 
 310:.\Generated_Source\PSoC5/isr_timer.c ****     priority = *isr_timer_INTC_PRIOR >> 5;
 195              		.loc 1 310 0
 196 0000 014B     		ldr	r3, .L17
 197 0002 1878     		ldrb	r0, [r3]	@ zero_extendqisi2
 198              	.LVL5:
 311:.\Generated_Source\PSoC5/isr_timer.c **** 
 312:.\Generated_Source\PSoC5/isr_timer.c ****     return priority;
 313:.\Generated_Source\PSoC5/isr_timer.c **** }
 199              		.loc 1 313 0
 200 0004 4009     		lsrs	r0, r0, #5
ARM GAS  C:\Users\PANXIA~1\AppData\Local\Temp\ccdzifhO.s 			page 10


 201              	.LVL6:
 202 0006 7047     		bx	lr
 203              	.L18:
 204              		.align	2
 205              	.L17:
 206 0008 02E400E0 		.word	-536812542
 207              		.cfi_endproc
 208              	.LFE7:
 209              		.size	isr_timer_GetPriority, .-isr_timer_GetPriority
 210              		.section	.text.isr_timer_Enable,"ax",%progbits
 211              		.align	2
 212              		.global	isr_timer_Enable
 213              		.thumb
 214              		.thumb_func
 215              		.type	isr_timer_Enable, %function
 216              	isr_timer_Enable:
 217              	.LFB8:
 314:.\Generated_Source\PSoC5/isr_timer.c **** 
 315:.\Generated_Source\PSoC5/isr_timer.c **** 
 316:.\Generated_Source\PSoC5/isr_timer.c **** /*******************************************************************************
 317:.\Generated_Source\PSoC5/isr_timer.c **** * Function Name: isr_timer_Enable
 318:.\Generated_Source\PSoC5/isr_timer.c **** ********************************************************************************
 319:.\Generated_Source\PSoC5/isr_timer.c **** *
 320:.\Generated_Source\PSoC5/isr_timer.c **** * Summary:
 321:.\Generated_Source\PSoC5/isr_timer.c **** *   Enables the interrupt to the interrupt controller. Do not call this function
 322:.\Generated_Source\PSoC5/isr_timer.c **** *   unless ISR_Start() has been called or the functionality of the ISR_Start() 
 323:.\Generated_Source\PSoC5/isr_timer.c **** *   function, which sets the vector and the priority, has been called.
 324:.\Generated_Source\PSoC5/isr_timer.c **** *
 325:.\Generated_Source\PSoC5/isr_timer.c **** * Parameters:
 326:.\Generated_Source\PSoC5/isr_timer.c **** *   None
 327:.\Generated_Source\PSoC5/isr_timer.c **** *
 328:.\Generated_Source\PSoC5/isr_timer.c **** * Return:
 329:.\Generated_Source\PSoC5/isr_timer.c **** *   None
 330:.\Generated_Source\PSoC5/isr_timer.c **** *
 331:.\Generated_Source\PSoC5/isr_timer.c **** *******************************************************************************/
 332:.\Generated_Source\PSoC5/isr_timer.c **** void isr_timer_Enable(void)
 333:.\Generated_Source\PSoC5/isr_timer.c **** {
 218              		.loc 1 333 0
 219              		.cfi_startproc
 220              		@ args = 0, pretend = 0, frame = 0
 221              		@ frame_needed = 0, uses_anonymous_args = 0
 222              		@ link register save eliminated.
 334:.\Generated_Source\PSoC5/isr_timer.c ****     /* Enable the general interrupt. */
 335:.\Generated_Source\PSoC5/isr_timer.c ****     *isr_timer_INTC_SET_EN = isr_timer__INTC_MASK;
 223              		.loc 1 335 0
 224 0000 0422     		movs	r2, #4
 225 0002 014B     		ldr	r3, .L20
 226 0004 1A60     		str	r2, [r3]
 227 0006 7047     		bx	lr
 228              	.L21:
 229              		.align	2
 230              	.L20:
 231 0008 00E100E0 		.word	-536813312
 232              		.cfi_endproc
 233              	.LFE8:
 234              		.size	isr_timer_Enable, .-isr_timer_Enable
 235              		.section	.text.isr_timer_GetState,"ax",%progbits
ARM GAS  C:\Users\PANXIA~1\AppData\Local\Temp\ccdzifhO.s 			page 11


 236              		.align	2
 237              		.global	isr_timer_GetState
 238              		.thumb
 239              		.thumb_func
 240              		.type	isr_timer_GetState, %function
 241              	isr_timer_GetState:
 242              	.LFB9:
 336:.\Generated_Source\PSoC5/isr_timer.c **** }
 337:.\Generated_Source\PSoC5/isr_timer.c **** 
 338:.\Generated_Source\PSoC5/isr_timer.c **** 
 339:.\Generated_Source\PSoC5/isr_timer.c **** /*******************************************************************************
 340:.\Generated_Source\PSoC5/isr_timer.c **** * Function Name: isr_timer_GetState
 341:.\Generated_Source\PSoC5/isr_timer.c **** ********************************************************************************
 342:.\Generated_Source\PSoC5/isr_timer.c **** *
 343:.\Generated_Source\PSoC5/isr_timer.c **** * Summary:
 344:.\Generated_Source\PSoC5/isr_timer.c **** *   Gets the state (enabled, disabled) of the Interrupt.
 345:.\Generated_Source\PSoC5/isr_timer.c **** *
 346:.\Generated_Source\PSoC5/isr_timer.c **** * Parameters:
 347:.\Generated_Source\PSoC5/isr_timer.c **** *   None
 348:.\Generated_Source\PSoC5/isr_timer.c **** *
 349:.\Generated_Source\PSoC5/isr_timer.c **** * Return:
 350:.\Generated_Source\PSoC5/isr_timer.c **** *   1 if enabled, 0 if disabled.
 351:.\Generated_Source\PSoC5/isr_timer.c **** *
 352:.\Generated_Source\PSoC5/isr_timer.c **** *******************************************************************************/
 353:.\Generated_Source\PSoC5/isr_timer.c **** uint8 isr_timer_GetState(void)
 354:.\Generated_Source\PSoC5/isr_timer.c **** {
 243              		.loc 1 354 0
 244              		.cfi_startproc
 245              		@ args = 0, pretend = 0, frame = 0
 246              		@ frame_needed = 0, uses_anonymous_args = 0
 247              		@ link register save eliminated.
 355:.\Generated_Source\PSoC5/isr_timer.c ****     /* Get the state of the general interrupt. */
 356:.\Generated_Source\PSoC5/isr_timer.c ****     return ((*isr_timer_INTC_SET_EN & (uint32)isr_timer__INTC_MASK) != 0u) ? 1u:0u;
 248              		.loc 1 356 0
 249 0000 044B     		ldr	r3, .L25
 250 0002 1B68     		ldr	r3, [r3]
 251 0004 13F0040F 		tst	r3, #4
 252 0008 01D0     		beq	.L24
 253 000a 0120     		movs	r0, #1
 254 000c 7047     		bx	lr
 255              	.L24:
 256 000e 0020     		movs	r0, #0
 357:.\Generated_Source\PSoC5/isr_timer.c **** }
 257              		.loc 1 357 0
 258 0010 7047     		bx	lr
 259              	.L26:
 260 0012 00BF     		.align	2
 261              	.L25:
 262 0014 00E100E0 		.word	-536813312
 263              		.cfi_endproc
 264              	.LFE9:
 265              		.size	isr_timer_GetState, .-isr_timer_GetState
 266              		.section	.text.isr_timer_Disable,"ax",%progbits
 267              		.align	2
 268              		.global	isr_timer_Disable
 269              		.thumb
 270              		.thumb_func
ARM GAS  C:\Users\PANXIA~1\AppData\Local\Temp\ccdzifhO.s 			page 12


 271              		.type	isr_timer_Disable, %function
 272              	isr_timer_Disable:
 273              	.LFB10:
 358:.\Generated_Source\PSoC5/isr_timer.c **** 
 359:.\Generated_Source\PSoC5/isr_timer.c **** 
 360:.\Generated_Source\PSoC5/isr_timer.c **** /*******************************************************************************
 361:.\Generated_Source\PSoC5/isr_timer.c **** * Function Name: isr_timer_Disable
 362:.\Generated_Source\PSoC5/isr_timer.c **** ********************************************************************************
 363:.\Generated_Source\PSoC5/isr_timer.c **** *
 364:.\Generated_Source\PSoC5/isr_timer.c **** * Summary:
 365:.\Generated_Source\PSoC5/isr_timer.c **** *   Disables the Interrupt in the interrupt controller.
 366:.\Generated_Source\PSoC5/isr_timer.c **** *
 367:.\Generated_Source\PSoC5/isr_timer.c **** * Parameters:
 368:.\Generated_Source\PSoC5/isr_timer.c **** *   None
 369:.\Generated_Source\PSoC5/isr_timer.c **** *
 370:.\Generated_Source\PSoC5/isr_timer.c **** * Return:
 371:.\Generated_Source\PSoC5/isr_timer.c **** *   None
 372:.\Generated_Source\PSoC5/isr_timer.c **** *
 373:.\Generated_Source\PSoC5/isr_timer.c **** *******************************************************************************/
 374:.\Generated_Source\PSoC5/isr_timer.c **** void isr_timer_Disable(void)
 375:.\Generated_Source\PSoC5/isr_timer.c **** {
 274              		.loc 1 375 0
 275              		.cfi_startproc
 276              		@ args = 0, pretend = 0, frame = 0
 277              		@ frame_needed = 0, uses_anonymous_args = 0
 278              		@ link register save eliminated.
 376:.\Generated_Source\PSoC5/isr_timer.c ****     /* Disable the general interrupt. */
 377:.\Generated_Source\PSoC5/isr_timer.c ****     *isr_timer_INTC_CLR_EN = isr_timer__INTC_MASK;
 279              		.loc 1 377 0
 280 0000 0422     		movs	r2, #4
 281 0002 014B     		ldr	r3, .L28
 282 0004 1A60     		str	r2, [r3]
 283 0006 7047     		bx	lr
 284              	.L29:
 285              		.align	2
 286              	.L28:
 287 0008 80E100E0 		.word	-536813184
 288              		.cfi_endproc
 289              	.LFE10:
 290              		.size	isr_timer_Disable, .-isr_timer_Disable
 291              		.section	.text.isr_timer_Start,"ax",%progbits
 292              		.align	2
 293              		.global	isr_timer_Start
 294              		.thumb
 295              		.thumb_func
 296              		.type	isr_timer_Start, %function
 297              	isr_timer_Start:
 298              	.LFB0:
  69:.\Generated_Source\PSoC5/isr_timer.c ****     /* For all we know the interrupt is active. */
 299              		.loc 1 69 0
 300              		.cfi_startproc
 301              		@ args = 0, pretend = 0, frame = 0
 302              		@ frame_needed = 0, uses_anonymous_args = 0
 303 0000 08B5     		push	{r3, lr}
 304              		.cfi_def_cfa_offset 8
 305              		.cfi_offset 3, -8
 306              		.cfi_offset 14, -4
ARM GAS  C:\Users\PANXIA~1\AppData\Local\Temp\ccdzifhO.s 			page 13


  71:.\Generated_Source\PSoC5/isr_timer.c **** 
 307              		.loc 1 71 0
 308 0002 FFF7FEFF 		bl	isr_timer_Disable
 309              	.LVL7:
  74:.\Generated_Source\PSoC5/isr_timer.c **** 
 310              		.loc 1 74 0
 311 0006 0448     		ldr	r0, .L32
 312 0008 FFF7FEFF 		bl	isr_timer_SetVector
 313              	.LVL8:
  77:.\Generated_Source\PSoC5/isr_timer.c **** 
 314              		.loc 1 77 0
 315 000c 0720     		movs	r0, #7
 316 000e FFF7FEFF 		bl	isr_timer_SetPriority
 317              	.LVL9:
  80:.\Generated_Source\PSoC5/isr_timer.c **** }
 318              		.loc 1 80 0
 319 0012 FFF7FEFF 		bl	isr_timer_Enable
 320              	.LVL10:
 321 0016 08BD     		pop	{r3, pc}
 322              	.L33:
 323              		.align	2
 324              	.L32:
 325 0018 00000000 		.word	isr_timer_Interrupt
 326              		.cfi_endproc
 327              	.LFE0:
 328              		.size	isr_timer_Start, .-isr_timer_Start
 329              		.section	.text.isr_timer_StartEx,"ax",%progbits
 330              		.align	2
 331              		.global	isr_timer_StartEx
 332              		.thumb
 333              		.thumb_func
 334              		.type	isr_timer_StartEx, %function
 335              	isr_timer_StartEx:
 336              	.LFB1:
 112:.\Generated_Source\PSoC5/isr_timer.c ****     /* For all we know the interrupt is active. */
 337              		.loc 1 112 0
 338              		.cfi_startproc
 339              		@ args = 0, pretend = 0, frame = 0
 340              		@ frame_needed = 0, uses_anonymous_args = 0
 341              	.LVL11:
 342 0000 10B5     		push	{r4, lr}
 343              		.cfi_def_cfa_offset 8
 344              		.cfi_offset 4, -8
 345              		.cfi_offset 14, -4
 346 0002 0446     		mov	r4, r0
 114:.\Generated_Source\PSoC5/isr_timer.c **** 
 347              		.loc 1 114 0
 348 0004 FFF7FEFF 		bl	isr_timer_Disable
 349              	.LVL12:
 117:.\Generated_Source\PSoC5/isr_timer.c **** 
 350              		.loc 1 117 0
 351 0008 2046     		mov	r0, r4
 352 000a FFF7FEFF 		bl	isr_timer_SetVector
 353              	.LVL13:
 120:.\Generated_Source\PSoC5/isr_timer.c **** 
 354              		.loc 1 120 0
 355 000e 0720     		movs	r0, #7
ARM GAS  C:\Users\PANXIA~1\AppData\Local\Temp\ccdzifhO.s 			page 14


 356 0010 FFF7FEFF 		bl	isr_timer_SetPriority
 357              	.LVL14:
 123:.\Generated_Source\PSoC5/isr_timer.c **** }
 358              		.loc 1 123 0
 359 0014 FFF7FEFF 		bl	isr_timer_Enable
 360              	.LVL15:
 361 0018 10BD     		pop	{r4, pc}
 362              		.cfi_endproc
 363              	.LFE1:
 364              		.size	isr_timer_StartEx, .-isr_timer_StartEx
 365 001a 00BF     		.section	.text.isr_timer_Stop,"ax",%progbits
 366              		.align	2
 367              		.global	isr_timer_Stop
 368              		.thumb
 369              		.thumb_func
 370              		.type	isr_timer_Stop, %function
 371              	isr_timer_Stop:
 372              	.LFB2:
 142:.\Generated_Source\PSoC5/isr_timer.c ****     /* Disable this interrupt. */
 373              		.loc 1 142 0
 374              		.cfi_startproc
 375              		@ args = 0, pretend = 0, frame = 0
 376              		@ frame_needed = 0, uses_anonymous_args = 0
 377 0000 08B5     		push	{r3, lr}
 378              		.cfi_def_cfa_offset 8
 379              		.cfi_offset 3, -8
 380              		.cfi_offset 14, -4
 144:.\Generated_Source\PSoC5/isr_timer.c **** 
 381              		.loc 1 144 0
 382 0002 FFF7FEFF 		bl	isr_timer_Disable
 383              	.LVL16:
 147:.\Generated_Source\PSoC5/isr_timer.c **** }
 384              		.loc 1 147 0
 385 0006 0248     		ldr	r0, .L38
 386 0008 FFF7FEFF 		bl	isr_timer_SetVector
 387              	.LVL17:
 388 000c 08BD     		pop	{r3, pc}
 389              	.L39:
 390 000e 00BF     		.align	2
 391              	.L38:
 392 0010 00000000 		.word	IntDefaultHandler
 393              		.cfi_endproc
 394              	.LFE2:
 395              		.size	isr_timer_Stop, .-isr_timer_Stop
 396              		.section	.text.isr_timer_SetPending,"ax",%progbits
 397              		.align	2
 398              		.global	isr_timer_SetPending
 399              		.thumb
 400              		.thumb_func
 401              		.type	isr_timer_SetPending, %function
 402              	isr_timer_SetPending:
 403              	.LFB11:
 378:.\Generated_Source\PSoC5/isr_timer.c **** }
 379:.\Generated_Source\PSoC5/isr_timer.c **** 
 380:.\Generated_Source\PSoC5/isr_timer.c **** 
 381:.\Generated_Source\PSoC5/isr_timer.c **** /*******************************************************************************
 382:.\Generated_Source\PSoC5/isr_timer.c **** * Function Name: isr_timer_SetPending
ARM GAS  C:\Users\PANXIA~1\AppData\Local\Temp\ccdzifhO.s 			page 15


 383:.\Generated_Source\PSoC5/isr_timer.c **** ********************************************************************************
 384:.\Generated_Source\PSoC5/isr_timer.c **** *
 385:.\Generated_Source\PSoC5/isr_timer.c **** * Summary:
 386:.\Generated_Source\PSoC5/isr_timer.c **** *   Causes the Interrupt to enter the pending state, a software method of
 387:.\Generated_Source\PSoC5/isr_timer.c **** *   generating the interrupt.
 388:.\Generated_Source\PSoC5/isr_timer.c **** *
 389:.\Generated_Source\PSoC5/isr_timer.c **** * Parameters:
 390:.\Generated_Source\PSoC5/isr_timer.c **** *   None
 391:.\Generated_Source\PSoC5/isr_timer.c **** *
 392:.\Generated_Source\PSoC5/isr_timer.c **** * Return:
 393:.\Generated_Source\PSoC5/isr_timer.c **** *   None
 394:.\Generated_Source\PSoC5/isr_timer.c **** *
 395:.\Generated_Source\PSoC5/isr_timer.c **** * Side Effects:
 396:.\Generated_Source\PSoC5/isr_timer.c **** *   If interrupts are enabled and the interrupt is set up properly, the ISR is
 397:.\Generated_Source\PSoC5/isr_timer.c **** *   entered (depending on the priority of this interrupt and other pending 
 398:.\Generated_Source\PSoC5/isr_timer.c **** *   interrupts).
 399:.\Generated_Source\PSoC5/isr_timer.c **** *
 400:.\Generated_Source\PSoC5/isr_timer.c **** *******************************************************************************/
 401:.\Generated_Source\PSoC5/isr_timer.c **** void isr_timer_SetPending(void)
 402:.\Generated_Source\PSoC5/isr_timer.c **** {
 404              		.loc 1 402 0
 405              		.cfi_startproc
 406              		@ args = 0, pretend = 0, frame = 0
 407              		@ frame_needed = 0, uses_anonymous_args = 0
 408              		@ link register save eliminated.
 403:.\Generated_Source\PSoC5/isr_timer.c ****     *isr_timer_INTC_SET_PD = isr_timer__INTC_MASK;
 409              		.loc 1 403 0
 410 0000 0422     		movs	r2, #4
 411 0002 014B     		ldr	r3, .L41
 412 0004 1A60     		str	r2, [r3]
 413 0006 7047     		bx	lr
 414              	.L42:
 415              		.align	2
 416              	.L41:
 417 0008 00E200E0 		.word	-536813056
 418              		.cfi_endproc
 419              	.LFE11:
 420              		.size	isr_timer_SetPending, .-isr_timer_SetPending
 421              		.section	.text.isr_timer_ClearPending,"ax",%progbits
 422              		.align	2
 423              		.global	isr_timer_ClearPending
 424              		.thumb
 425              		.thumb_func
 426              		.type	isr_timer_ClearPending, %function
 427              	isr_timer_ClearPending:
 428              	.LFB12:
 404:.\Generated_Source\PSoC5/isr_timer.c **** }
 405:.\Generated_Source\PSoC5/isr_timer.c **** 
 406:.\Generated_Source\PSoC5/isr_timer.c **** 
 407:.\Generated_Source\PSoC5/isr_timer.c **** /*******************************************************************************
 408:.\Generated_Source\PSoC5/isr_timer.c **** * Function Name: isr_timer_ClearPending
 409:.\Generated_Source\PSoC5/isr_timer.c **** ********************************************************************************
 410:.\Generated_Source\PSoC5/isr_timer.c **** *
 411:.\Generated_Source\PSoC5/isr_timer.c **** * Summary:
 412:.\Generated_Source\PSoC5/isr_timer.c **** *   Clears a pending interrupt in the interrupt controller.
 413:.\Generated_Source\PSoC5/isr_timer.c **** *
 414:.\Generated_Source\PSoC5/isr_timer.c **** *   Note Some interrupt sources are clear-on-read and require the block 
ARM GAS  C:\Users\PANXIA~1\AppData\Local\Temp\ccdzifhO.s 			page 16


 415:.\Generated_Source\PSoC5/isr_timer.c **** *   interrupt/status register to be read/cleared with the appropriate block API 
 416:.\Generated_Source\PSoC5/isr_timer.c **** *   (GPIO, UART, and so on). Otherwise the ISR will continue to remain in 
 417:.\Generated_Source\PSoC5/isr_timer.c **** *   pending state even though the interrupt itself is cleared using this API.
 418:.\Generated_Source\PSoC5/isr_timer.c **** *
 419:.\Generated_Source\PSoC5/isr_timer.c **** * Parameters:
 420:.\Generated_Source\PSoC5/isr_timer.c **** *   None
 421:.\Generated_Source\PSoC5/isr_timer.c **** *
 422:.\Generated_Source\PSoC5/isr_timer.c **** * Return:
 423:.\Generated_Source\PSoC5/isr_timer.c **** *   None
 424:.\Generated_Source\PSoC5/isr_timer.c **** *
 425:.\Generated_Source\PSoC5/isr_timer.c **** *******************************************************************************/
 426:.\Generated_Source\PSoC5/isr_timer.c **** void isr_timer_ClearPending(void)
 427:.\Generated_Source\PSoC5/isr_timer.c **** {
 429              		.loc 1 427 0
 430              		.cfi_startproc
 431              		@ args = 0, pretend = 0, frame = 0
 432              		@ frame_needed = 0, uses_anonymous_args = 0
 433              		@ link register save eliminated.
 428:.\Generated_Source\PSoC5/isr_timer.c ****     *isr_timer_INTC_CLR_PD = isr_timer__INTC_MASK;
 434              		.loc 1 428 0
 435 0000 0422     		movs	r2, #4
 436 0002 014B     		ldr	r3, .L44
 437 0004 1A60     		str	r2, [r3]
 438 0006 7047     		bx	lr
 439              	.L45:
 440              		.align	2
 441              	.L44:
 442 0008 80E200E0 		.word	-536812928
 443              		.cfi_endproc
 444              	.LFE12:
 445              		.size	isr_timer_ClearPending, .-isr_timer_ClearPending
 446              		.comm	time_1s_state,2,2
 447              		.comm	time_1s,2,2
 448              		.comm	time_5ms_state,1,1
 449              		.comm	time_100ms_state,1,1
 450              		.comm	time_100ms,2,2
 451              		.comm	time_5ms,2,2
 452              		.comm	time_1ms,2,2
 453              		.text
 454              	.Letext0:
 455              		.file 2 "Generated_Source\\PSoC5/cytypes.h"