ARM GAS  C:\Users\PANXIA~1\AppData\Local\Temp\ccp0BCPD.s 			page 1


   1              		.syntax unified
   2              		.cpu cortex-m3
   3              		.fpu softvfp
   4              		.eabi_attribute 20, 1
   5              		.eabi_attribute 21, 1
   6              		.eabi_attribute 23, 3
   7              		.eabi_attribute 24, 1
   8              		.eabi_attribute 25, 1
   9              		.eabi_attribute 26, 1
  10              		.eabi_attribute 30, 1
  11              		.eabi_attribute 34, 1
  12              		.eabi_attribute 18, 4
  13              		.thumb
  14              		.file	"key.c"
  15              		.text
  16              	.Ltext0:
  17              		.cfi_sections	.debug_frame
  18              		.section	.text.Callback_SWITCH_1_low_press_up,"ax",%progbits
  19              		.align	2
  20              		.global	Callback_SWITCH_1_low_press_up
  21              		.thumb
  22              		.thumb_func
  23              		.type	Callback_SWITCH_1_low_press_up, %function
  24              	Callback_SWITCH_1_low_press_up:
  25              	.LFB83:
  26              		.file 1 ".\\key.c"
   1:.\key.c       **** 
   2:.\key.c       **** #include "key.h"
   3:.\key.c       **** #include <project.h>
   4:.\key.c       **** #include "Transfer.h"
   5:.\key.c       **** #include "control.h"
   6:.\key.c       **** 
   7:.\key.c       **** 
   8:.\key.c       **** #define EVENT_CB(ev)   if(handle->cb[ev])handle->cb[ev]((Button*)handle)
   9:.\key.c       **** 
  10:.\key.c       **** 
  11:.\key.c       **** #define led_high 100
  12:.\key.c       **** #define led_medium 40
  13:.\key.c       **** #define led_low   0
  14:.\key.c       **** uint8 led_send[4] = {0,0,0,0};
  15:.\key.c       **** //button handle list head.
  16:.\key.c       **** static struct Button* head_handle = NULL;
  17:.\key.c       **** 
  18:.\key.c       **** struct Button key_up; 
  19:.\key.c       **** struct Button key_down; 
  20:.\key.c       **** struct Button key_left;  
  21:.\key.c       **** struct Button key_right;
  22:.\key.c       **** 
  23:.\key.c       **** struct Button PTZ_up; 
  24:.\key.c       **** struct Button PTZ_down; 
  25:.\key.c       **** struct Button PTZ_left;  
  26:.\key.c       **** struct Button PTZ_right;
  27:.\key.c       **** 
  28:.\key.c       **** struct Button key_speed_low;
  29:.\key.c       **** struct Button key_speed_high;
  30:.\key.c       **** 
  31:.\key.c       **** 
ARM GAS  C:\Users\PANXIA~1\AppData\Local\Temp\ccp0BCPD.s 			page 2


  32:.\key.c       **** struct Button led_start; 
  33:.\key.c       **** 
  34:.\key.c       **** struct Button STR1; 
  35:.\key.c       **** struct Button STR2; 
  36:.\key.c       **** struct Button MSR_high; 
  37:.\key.c       **** struct Button MSR_low; 
  38:.\key.c       **** struct Button SWITCH_1_high;
  39:.\key.c       **** struct Button SWITCH_1_low;
  40:.\key.c       **** struct Button SWITCH_2_high; 
  41:.\key.c       **** struct Button SWITCH_2_low; 
  42:.\key.c       **** 
  43:.\key.c       **** uint8 temp;
  44:.\key.c       **** uint8 temp1;
  45:.\key.c       **** 
  46:.\key.c       **** uint16 Car_speed_base = 1000;
  47:.\key.c       **** 
  48:.\key.c       **** 
  49:.\key.c       **** 
  50:.\key.c       **** //PTZ
  51:.\key.c       **** void Callback_PTZ_up_press_up()
  52:.\key.c       **** {
  53:.\key.c       ****    DT_Send_Command_Ptz(g_Car.Ptz_dir[STOP]);
  54:.\key.c       **** }
  55:.\key.c       **** void Callback_PTZ_up_press_down()
  56:.\key.c       **** {
  57:.\key.c       ****    DT_Send_Command_Ptz(g_Car.Ptz_dir[RIGHT]);
  58:.\key.c       **** }
  59:.\key.c       **** 
  60:.\key.c       **** void Callback_PTZ_down_press_up()
  61:.\key.c       **** {
  62:.\key.c       ****   DT_Send_Command_Ptz(g_Car.Ptz_dir[STOP]);
  63:.\key.c       **** }
  64:.\key.c       **** void Callback_PTZ_down_press_down()
  65:.\key.c       **** {
  66:.\key.c       ****     DT_Send_Command_Ptz(g_Car.Ptz_dir[DOWN]);
  67:.\key.c       **** }
  68:.\key.c       **** 
  69:.\key.c       **** 
  70:.\key.c       **** void Callback_PTZ_left_press_up()
  71:.\key.c       **** {
  72:.\key.c       ****    DT_Send_Command_Ptz(g_Car.Ptz_dir[STOP]);
  73:.\key.c       **** }
  74:.\key.c       **** void Callback_PTZ_left_press_down()
  75:.\key.c       **** {
  76:.\key.c       ****     DT_Send_Command_Ptz(g_Car.Ptz_dir[LEFT]); 
  77:.\key.c       **** }
  78:.\key.c       **** 
  79:.\key.c       **** void Callback_PTZ_right_press_up()
  80:.\key.c       **** {
  81:.\key.c       ****    DT_Send_Command_Ptz(g_Car.Ptz_dir[STOP]);
  82:.\key.c       **** }
  83:.\key.c       **** void Callback_PTZ_right_press_down()
  84:.\key.c       **** {
  85:.\key.c       ****     DT_Send_Command_Ptz(g_Car.Ptz_dir[UP]); 
  86:.\key.c       **** }
  87:.\key.c       **** ///speed
  88:.\key.c       **** 
ARM GAS  C:\Users\PANXIA~1\AppData\Local\Temp\ccp0BCPD.s 			page 3


  89:.\key.c       **** void Callback_key_speed_low_press_up()
  90:.\key.c       **** {
  91:.\key.c       ****     DT_Send_Command_Speed(15000);
  92:.\key.c       **** }
  93:.\key.c       **** void Callback_key_speed_low_press_down()
  94:.\key.c       **** {
  95:.\key.c       ****     DT_Send_Command_Speed(20000);
  96:.\key.c       **** }
  97:.\key.c       **** void Callback_key_speed_high_press_up()
  98:.\key.c       **** {
  99:.\key.c       ****      DT_Send_Command_Speed(15000);
 100:.\key.c       **** }
 101:.\key.c       **** void Callback_key_speed_high_press_down()
 102:.\key.c       **** {
 103:.\key.c       ****      DT_Send_Command_Speed(10000);
 104:.\key.c       **** }
 105:.\key.c       **** 
 106:.\key.c       **** 
 107:.\key.c       **** ////2个预留开关
 108:.\key.c       **** void Callback_STR1_press_up()
 109:.\key.c       **** {
 110:.\key.c       ****     DT_Send_Command_WireWheel(0);
 111:.\key.c       ****     debug("str1_up");
 112:.\key.c       **** }
 113:.\key.c       **** void Callback_STR1_down()
 114:.\key.c       **** {
 115:.\key.c       ****     DT_Send_Command_WireWheel(1);
 116:.\key.c       ****     debug("str1_down");
 117:.\key.c       **** }
 118:.\key.c       **** void Callback_STR2_press_up()
 119:.\key.c       **** {
 120:.\key.c       ****     DT_Send_Command_mode(0);
 121:.\key.c       ****     debug("str2_up");
 122:.\key.c       **** }
 123:.\key.c       **** void Callback_STR2_press_down()
 124:.\key.c       **** {
 125:.\key.c       ****    DT_Send_Command_mode(1);
 126:.\key.c       ****    debug("str2_down");
 127:.\key.c       **** }    
 128:.\key.c       **** 
 129:.\key.c       **** void Callback_MSR_low_press_up()
 130:.\key.c       **** {
 131:.\key.c       ****      DT_Send_Command_MSR(WHEEL_STOP);
 132:.\key.c       ****      debug("MSR_low_up");
 133:.\key.c       **** }
 134:.\key.c       **** void Callback_MSR_low_press_down()
 135:.\key.c       **** {
 136:.\key.c       ****      DT_Send_Command_MSR(REVERSAL);
 137:.\key.c       ****      debug("MSR_low_down");
 138:.\key.c       **** }
 139:.\key.c       **** void Callback_MSR_high_press_up()
 140:.\key.c       **** {
 141:.\key.c       ****      DT_Send_Command_MSR(WHEEL_STOP);
 142:.\key.c       ****     debug("MSR_high_up");
 143:.\key.c       **** }
 144:.\key.c       **** void Callback_MSR_high_press_down()
 145:.\key.c       **** {
ARM GAS  C:\Users\PANXIA~1\AppData\Local\Temp\ccp0BCPD.s 			page 4


 146:.\key.c       ****     DT_Send_Command_MSR(FORWARD);
 147:.\key.c       ****     debug("MSR_high_down");
 148:.\key.c       **** }    
 149:.\key.c       **** //SWITCH_1
 150:.\key.c       **** void Callback_SWITCH_1_low_press_up()
 151:.\key.c       **** {
  27              		.loc 1 151 0
  28              		.cfi_startproc
  29              		@ args = 0, pretend = 0, frame = 0
  30              		@ frame_needed = 0, uses_anonymous_args = 0
  31              		@ link register save eliminated.
 152:.\key.c       ****       g_Control.bianbei = 0;
  32              		.loc 1 152 0
  33 0000 0022     		movs	r2, #0
  34 0002 014B     		ldr	r3, .L2
  35 0004 9A70     		strb	r2, [r3, #2]
  36 0006 7047     		bx	lr
  37              	.L3:
  38              		.align	2
  39              	.L2:
  40 0008 00000000 		.word	g_Control
  41              		.cfi_endproc
  42              	.LFE83:
  43              		.size	Callback_SWITCH_1_low_press_up, .-Callback_SWITCH_1_low_press_up
  44              		.section	.text.Callback_SWITCH_1_low_press_down,"ax",%progbits
  45              		.align	2
  46              		.global	Callback_SWITCH_1_low_press_down
  47              		.thumb
  48              		.thumb_func
  49              		.type	Callback_SWITCH_1_low_press_down, %function
  50              	Callback_SWITCH_1_low_press_down:
  51              	.LFB84:
 153:.\key.c       ****       debug("Callback_SWITCH_1_low_press_up");
 154:.\key.c       **** }
 155:.\key.c       **** void Callback_SWITCH_1_low_press_down()
 156:.\key.c       **** {
  52              		.loc 1 156 0
  53              		.cfi_startproc
  54              		@ args = 0, pretend = 0, frame = 0
  55              		@ frame_needed = 0, uses_anonymous_args = 0
  56              		@ link register save eliminated.
 157:.\key.c       ****        g_Control.bianbei = 1;
  57              		.loc 1 157 0
  58 0000 0122     		movs	r2, #1
  59 0002 014B     		ldr	r3, .L5
  60 0004 9A70     		strb	r2, [r3, #2]
  61 0006 7047     		bx	lr
  62              	.L6:
  63              		.align	2
  64              	.L5:
  65 0008 00000000 		.word	g_Control
  66              		.cfi_endproc
  67              	.LFE84:
  68              		.size	Callback_SWITCH_1_low_press_down, .-Callback_SWITCH_1_low_press_down
  69              		.section	.text.Callback_SWITCH_1_high_press_up,"ax",%progbits
  70              		.align	2
  71              		.global	Callback_SWITCH_1_high_press_up
ARM GAS  C:\Users\PANXIA~1\AppData\Local\Temp\ccp0BCPD.s 			page 5


  72              		.thumb
  73              		.thumb_func
  74              		.type	Callback_SWITCH_1_high_press_up, %function
  75              	Callback_SWITCH_1_high_press_up:
  76              	.LFB85:
 158:.\key.c       ****        debug("Callback_SWITCH_1_low_press_down");
 159:.\key.c       **** }
 160:.\key.c       **** void Callback_SWITCH_1_high_press_up()
 161:.\key.c       **** {
  77              		.loc 1 161 0
  78              		.cfi_startproc
  79              		@ args = 0, pretend = 0, frame = 0
  80              		@ frame_needed = 0, uses_anonymous_args = 0
  81              		@ link register save eliminated.
 162:.\key.c       ****       g_Control.bianbei = 0;
  82              		.loc 1 162 0
  83 0000 0022     		movs	r2, #0
  84 0002 014B     		ldr	r3, .L8
  85 0004 9A70     		strb	r2, [r3, #2]
  86 0006 7047     		bx	lr
  87              	.L9:
  88              		.align	2
  89              	.L8:
  90 0008 00000000 		.word	g_Control
  91              		.cfi_endproc
  92              	.LFE85:
  93              		.size	Callback_SWITCH_1_high_press_up, .-Callback_SWITCH_1_high_press_up
  94              		.section	.text.Callback_SWITCH_1_high_press_down,"ax",%progbits
  95              		.align	2
  96              		.global	Callback_SWITCH_1_high_press_down
  97              		.thumb
  98              		.thumb_func
  99              		.type	Callback_SWITCH_1_high_press_down, %function
 100              	Callback_SWITCH_1_high_press_down:
 101              	.LFB86:
 163:.\key.c       ****     debug("Callback_SWITCH_1_high_press_up");
 164:.\key.c       **** }
 165:.\key.c       **** void Callback_SWITCH_1_high_press_down()
 166:.\key.c       **** {
 102              		.loc 1 166 0
 103              		.cfi_startproc
 104              		@ args = 0, pretend = 0, frame = 0
 105              		@ frame_needed = 0, uses_anonymous_args = 0
 106              		@ link register save eliminated.
 167:.\key.c       ****        g_Control.bianbei = 2;
 107              		.loc 1 167 0
 108 0000 0222     		movs	r2, #2
 109 0002 014B     		ldr	r3, .L11
 110 0004 9A70     		strb	r2, [r3, #2]
 111 0006 7047     		bx	lr
 112              	.L12:
 113              		.align	2
 114              	.L11:
 115 0008 00000000 		.word	g_Control
 116              		.cfi_endproc
 117              	.LFE86:
 118              		.size	Callback_SWITCH_1_high_press_down, .-Callback_SWITCH_1_high_press_down
ARM GAS  C:\Users\PANXIA~1\AppData\Local\Temp\ccp0BCPD.s 			page 6


 119              		.section	.text.Callback_SWITCH_2_low_press_up,"ax",%progbits
 120              		.align	2
 121              		.global	Callback_SWITCH_2_low_press_up
 122              		.thumb
 123              		.thumb_func
 124              		.type	Callback_SWITCH_2_low_press_up, %function
 125              	Callback_SWITCH_2_low_press_up:
 126              	.LFB87:
 168:.\key.c       ****     debug("Callback_SWITCH_1_high_press_down");
 169:.\key.c       **** }    
 170:.\key.c       **** //SWITCH_2
 171:.\key.c       **** void Callback_SWITCH_2_low_press_up()
 172:.\key.c       **** {
 127              		.loc 1 172 0
 128              		.cfi_startproc
 129              		@ args = 0, pretend = 0, frame = 0
 130              		@ frame_needed = 0, uses_anonymous_args = 0
 131              		@ link register save eliminated.
 173:.\key.c       ****     g_Control.jiaoju = 0;
 132              		.loc 1 173 0
 133 0000 0022     		movs	r2, #0
 134 0002 014B     		ldr	r3, .L14
 135 0004 DA70     		strb	r2, [r3, #3]
 136 0006 7047     		bx	lr
 137              	.L15:
 138              		.align	2
 139              	.L14:
 140 0008 00000000 		.word	g_Control
 141              		.cfi_endproc
 142              	.LFE87:
 143              		.size	Callback_SWITCH_2_low_press_up, .-Callback_SWITCH_2_low_press_up
 144              		.section	.text.Callback_SWITCH_2_low_press_down,"ax",%progbits
 145              		.align	2
 146              		.global	Callback_SWITCH_2_low_press_down
 147              		.thumb
 148              		.thumb_func
 149              		.type	Callback_SWITCH_2_low_press_down, %function
 150              	Callback_SWITCH_2_low_press_down:
 151              	.LFB88:
 174:.\key.c       ****    debug("Callback_SWITCH_2_low_press_up");
 175:.\key.c       **** }
 176:.\key.c       **** void Callback_SWITCH_2_low_press_down()
 177:.\key.c       **** {
 152              		.loc 1 177 0
 153              		.cfi_startproc
 154              		@ args = 0, pretend = 0, frame = 0
 155              		@ frame_needed = 0, uses_anonymous_args = 0
 156              		@ link register save eliminated.
 178:.\key.c       ****     g_Control.jiaoju  = 1;
 157              		.loc 1 178 0
 158 0000 0122     		movs	r2, #1
 159 0002 014B     		ldr	r3, .L17
 160 0004 DA70     		strb	r2, [r3, #3]
 161 0006 7047     		bx	lr
 162              	.L18:
 163              		.align	2
 164              	.L17:
ARM GAS  C:\Users\PANXIA~1\AppData\Local\Temp\ccp0BCPD.s 			page 7


 165 0008 00000000 		.word	g_Control
 166              		.cfi_endproc
 167              	.LFE88:
 168              		.size	Callback_SWITCH_2_low_press_down, .-Callback_SWITCH_2_low_press_down
 169              		.section	.text.Callback_SWITCH_2_high_press_up,"ax",%progbits
 170              		.align	2
 171              		.global	Callback_SWITCH_2_high_press_up
 172              		.thumb
 173              		.thumb_func
 174              		.type	Callback_SWITCH_2_high_press_up, %function
 175              	Callback_SWITCH_2_high_press_up:
 176              	.LFB89:
 179:.\key.c       ****     debug("Callback_SWITCH_2_low_press_down");
 180:.\key.c       **** }
 181:.\key.c       **** void Callback_SWITCH_2_high_press_up()
 182:.\key.c       **** {
 177              		.loc 1 182 0
 178              		.cfi_startproc
 179              		@ args = 0, pretend = 0, frame = 0
 180              		@ frame_needed = 0, uses_anonymous_args = 0
 181              		@ link register save eliminated.
 183:.\key.c       ****     g_Control.jiaoju = 0;
 182              		.loc 1 183 0
 183 0000 0022     		movs	r2, #0
 184 0002 014B     		ldr	r3, .L20
 185 0004 DA70     		strb	r2, [r3, #3]
 186 0006 7047     		bx	lr
 187              	.L21:
 188              		.align	2
 189              	.L20:
 190 0008 00000000 		.word	g_Control
 191              		.cfi_endproc
 192              	.LFE89:
 193              		.size	Callback_SWITCH_2_high_press_up, .-Callback_SWITCH_2_high_press_up
 194              		.section	.text.Callback_SWITCH_2_high_press_down,"ax",%progbits
 195              		.align	2
 196              		.global	Callback_SWITCH_2_high_press_down
 197              		.thumb
 198              		.thumb_func
 199              		.type	Callback_SWITCH_2_high_press_down, %function
 200              	Callback_SWITCH_2_high_press_down:
 201              	.LFB90:
 184:.\key.c       ****     debug("Callback_SWITCH_2_high_press_up");
 185:.\key.c       **** }
 186:.\key.c       **** void Callback_SWITCH_2_high_press_down()
 187:.\key.c       **** {
 202              		.loc 1 187 0
 203              		.cfi_startproc
 204              		@ args = 0, pretend = 0, frame = 0
 205              		@ frame_needed = 0, uses_anonymous_args = 0
 206              		@ link register save eliminated.
 188:.\key.c       ****     g_Control.jiaoju = 2;
 207              		.loc 1 188 0
 208 0000 0222     		movs	r2, #2
 209 0002 014B     		ldr	r3, .L23
 210 0004 DA70     		strb	r2, [r3, #3]
 211 0006 7047     		bx	lr
ARM GAS  C:\Users\PANXIA~1\AppData\Local\Temp\ccp0BCPD.s 			page 8


 212              	.L24:
 213              		.align	2
 214              	.L23:
 215 0008 00000000 		.word	g_Control
 216              		.cfi_endproc
 217              	.LFE90:
 218              		.size	Callback_SWITCH_2_high_press_down, .-Callback_SWITCH_2_high_press_down
 219              		.section	.text.Callback_STR1_press_up,"ax",%progbits
 220              		.align	2
 221              		.global	Callback_STR1_press_up
 222              		.thumb
 223              		.thumb_func
 224              		.type	Callback_STR1_press_up, %function
 225              	Callback_STR1_press_up:
 226              	.LFB75:
 109:.\key.c       ****     DT_Send_Command_WireWheel(0);
 227              		.loc 1 109 0
 228              		.cfi_startproc
 229              		@ args = 0, pretend = 0, frame = 0
 230              		@ frame_needed = 0, uses_anonymous_args = 0
 231 0000 08B5     		push	{r3, lr}
 232              		.cfi_def_cfa_offset 8
 233              		.cfi_offset 3, -8
 234              		.cfi_offset 14, -4
 110:.\key.c       ****     debug("str1_up");
 235              		.loc 1 110 0
 236 0002 0020     		movs	r0, #0
 237 0004 FFF7FEFF 		bl	DT_Send_Command_WireWheel
 238              	.LVL0:
 239 0008 08BD     		pop	{r3, pc}
 240              		.cfi_endproc
 241              	.LFE75:
 242              		.size	Callback_STR1_press_up, .-Callback_STR1_press_up
 243 000a 00BF     		.section	.text.Callback_STR1_down,"ax",%progbits
 244              		.align	2
 245              		.global	Callback_STR1_down
 246              		.thumb
 247              		.thumb_func
 248              		.type	Callback_STR1_down, %function
 249              	Callback_STR1_down:
 250              	.LFB76:
 114:.\key.c       ****     DT_Send_Command_WireWheel(1);
 251              		.loc 1 114 0
 252              		.cfi_startproc
 253              		@ args = 0, pretend = 0, frame = 0
 254              		@ frame_needed = 0, uses_anonymous_args = 0
 255 0000 08B5     		push	{r3, lr}
 256              		.cfi_def_cfa_offset 8
 257              		.cfi_offset 3, -8
 258              		.cfi_offset 14, -4
 115:.\key.c       ****     debug("str1_down");
 259              		.loc 1 115 0
 260 0002 0120     		movs	r0, #1
 261 0004 FFF7FEFF 		bl	DT_Send_Command_WireWheel
 262              	.LVL1:
 263 0008 08BD     		pop	{r3, pc}
 264              		.cfi_endproc
ARM GAS  C:\Users\PANXIA~1\AppData\Local\Temp\ccp0BCPD.s 			page 9


 265              	.LFE76:
 266              		.size	Callback_STR1_down, .-Callback_STR1_down
 267 000a 00BF     		.section	.text.Callback_STR2_press_up,"ax",%progbits
 268              		.align	2
 269              		.global	Callback_STR2_press_up
 270              		.thumb
 271              		.thumb_func
 272              		.type	Callback_STR2_press_up, %function
 273              	Callback_STR2_press_up:
 274              	.LFB77:
 119:.\key.c       ****     DT_Send_Command_mode(0);
 275              		.loc 1 119 0
 276              		.cfi_startproc
 277              		@ args = 0, pretend = 0, frame = 0
 278              		@ frame_needed = 0, uses_anonymous_args = 0
 279 0000 08B5     		push	{r3, lr}
 280              		.cfi_def_cfa_offset 8
 281              		.cfi_offset 3, -8
 282              		.cfi_offset 14, -4
 120:.\key.c       ****     debug("str2_up");
 283              		.loc 1 120 0
 284 0002 0020     		movs	r0, #0
 285 0004 FFF7FEFF 		bl	DT_Send_Command_mode
 286              	.LVL2:
 287 0008 08BD     		pop	{r3, pc}
 288              		.cfi_endproc
 289              	.LFE77:
 290              		.size	Callback_STR2_press_up, .-Callback_STR2_press_up
 291 000a 00BF     		.section	.text.Callback_STR2_press_down,"ax",%progbits
 292              		.align	2
 293              		.global	Callback_STR2_press_down
 294              		.thumb
 295              		.thumb_func
 296              		.type	Callback_STR2_press_down, %function
 297              	Callback_STR2_press_down:
 298              	.LFB78:
 124:.\key.c       ****    DT_Send_Command_mode(1);
 299              		.loc 1 124 0
 300              		.cfi_startproc
 301              		@ args = 0, pretend = 0, frame = 0
 302              		@ frame_needed = 0, uses_anonymous_args = 0
 303 0000 08B5     		push	{r3, lr}
 304              		.cfi_def_cfa_offset 8
 305              		.cfi_offset 3, -8
 306              		.cfi_offset 14, -4
 125:.\key.c       ****    debug("str2_down");
 307              		.loc 1 125 0
 308 0002 0120     		movs	r0, #1
 309 0004 FFF7FEFF 		bl	DT_Send_Command_mode
 310              	.LVL3:
 311 0008 08BD     		pop	{r3, pc}
 312              		.cfi_endproc
 313              	.LFE78:
 314              		.size	Callback_STR2_press_down, .-Callback_STR2_press_down
 315 000a 00BF     		.section	.text.Callback_MSR_low_press_up,"ax",%progbits
 316              		.align	2
 317              		.global	Callback_MSR_low_press_up
ARM GAS  C:\Users\PANXIA~1\AppData\Local\Temp\ccp0BCPD.s 			page 10


 318              		.thumb
 319              		.thumb_func
 320              		.type	Callback_MSR_low_press_up, %function
 321              	Callback_MSR_low_press_up:
 322              	.LFB79:
 130:.\key.c       ****      DT_Send_Command_MSR(WHEEL_STOP);
 323              		.loc 1 130 0
 324              		.cfi_startproc
 325              		@ args = 0, pretend = 0, frame = 0
 326              		@ frame_needed = 0, uses_anonymous_args = 0
 327 0000 08B5     		push	{r3, lr}
 328              		.cfi_def_cfa_offset 8
 329              		.cfi_offset 3, -8
 330              		.cfi_offset 14, -4
 131:.\key.c       ****      debug("MSR_low_up");
 331              		.loc 1 131 0
 332 0002 0220     		movs	r0, #2
 333 0004 FFF7FEFF 		bl	DT_Send_Command_MSR
 334              	.LVL4:
 335 0008 08BD     		pop	{r3, pc}
 336              		.cfi_endproc
 337              	.LFE79:
 338              		.size	Callback_MSR_low_press_up, .-Callback_MSR_low_press_up
 339 000a 00BF     		.section	.text.Callback_MSR_low_press_down,"ax",%progbits
 340              		.align	2
 341              		.global	Callback_MSR_low_press_down
 342              		.thumb
 343              		.thumb_func
 344              		.type	Callback_MSR_low_press_down, %function
 345              	Callback_MSR_low_press_down:
 346              	.LFB80:
 135:.\key.c       ****      DT_Send_Command_MSR(REVERSAL);
 347              		.loc 1 135 0
 348              		.cfi_startproc
 349              		@ args = 0, pretend = 0, frame = 0
 350              		@ frame_needed = 0, uses_anonymous_args = 0
 351 0000 08B5     		push	{r3, lr}
 352              		.cfi_def_cfa_offset 8
 353              		.cfi_offset 3, -8
 354              		.cfi_offset 14, -4
 136:.\key.c       ****      debug("MSR_low_down");
 355              		.loc 1 136 0
 356 0002 0120     		movs	r0, #1
 357 0004 FFF7FEFF 		bl	DT_Send_Command_MSR
 358              	.LVL5:
 359 0008 08BD     		pop	{r3, pc}
 360              		.cfi_endproc
 361              	.LFE80:
 362              		.size	Callback_MSR_low_press_down, .-Callback_MSR_low_press_down
 363 000a 00BF     		.section	.text.Callback_MSR_high_press_up,"ax",%progbits
 364              		.align	2
 365              		.global	Callback_MSR_high_press_up
 366              		.thumb
 367              		.thumb_func
 368              		.type	Callback_MSR_high_press_up, %function
 369              	Callback_MSR_high_press_up:
 370              	.LFB81:
ARM GAS  C:\Users\PANXIA~1\AppData\Local\Temp\ccp0BCPD.s 			page 11


 140:.\key.c       ****      DT_Send_Command_MSR(WHEEL_STOP);
 371              		.loc 1 140 0
 372              		.cfi_startproc
 373              		@ args = 0, pretend = 0, frame = 0
 374              		@ frame_needed = 0, uses_anonymous_args = 0
 375 0000 08B5     		push	{r3, lr}
 376              		.cfi_def_cfa_offset 8
 377              		.cfi_offset 3, -8
 378              		.cfi_offset 14, -4
 141:.\key.c       ****     debug("MSR_high_up");
 379              		.loc 1 141 0
 380 0002 0220     		movs	r0, #2
 381 0004 FFF7FEFF 		bl	DT_Send_Command_MSR
 382              	.LVL6:
 383 0008 08BD     		pop	{r3, pc}
 384              		.cfi_endproc
 385              	.LFE81:
 386              		.size	Callback_MSR_high_press_up, .-Callback_MSR_high_press_up
 387 000a 00BF     		.section	.text.Callback_MSR_high_press_down,"ax",%progbits
 388              		.align	2
 389              		.global	Callback_MSR_high_press_down
 390              		.thumb
 391              		.thumb_func
 392              		.type	Callback_MSR_high_press_down, %function
 393              	Callback_MSR_high_press_down:
 394              	.LFB82:
 145:.\key.c       ****     DT_Send_Command_MSR(FORWARD);
 395              		.loc 1 145 0
 396              		.cfi_startproc
 397              		@ args = 0, pretend = 0, frame = 0
 398              		@ frame_needed = 0, uses_anonymous_args = 0
 399 0000 08B5     		push	{r3, lr}
 400              		.cfi_def_cfa_offset 8
 401              		.cfi_offset 3, -8
 402              		.cfi_offset 14, -4
 146:.\key.c       ****     debug("MSR_high_down");
 403              		.loc 1 146 0
 404 0002 0020     		movs	r0, #0
 405 0004 FFF7FEFF 		bl	DT_Send_Command_MSR
 406              	.LVL7:
 407 0008 08BD     		pop	{r3, pc}
 408              		.cfi_endproc
 409              	.LFE82:
 410              		.size	Callback_MSR_high_press_down, .-Callback_MSR_high_press_down
 411 000a 00BF     		.section	.text.Callback_PTZ_up_press_up,"ax",%progbits
 412              		.align	2
 413              		.global	Callback_PTZ_up_press_up
 414              		.thumb
 415              		.thumb_func
 416              		.type	Callback_PTZ_up_press_up, %function
 417              	Callback_PTZ_up_press_up:
 418              	.LFB63:
  52:.\key.c       ****    DT_Send_Command_Ptz(g_Car.Ptz_dir[STOP]);
 419              		.loc 1 52 0
 420              		.cfi_startproc
 421              		@ args = 0, pretend = 0, frame = 0
 422              		@ frame_needed = 0, uses_anonymous_args = 0
ARM GAS  C:\Users\PANXIA~1\AppData\Local\Temp\ccp0BCPD.s 			page 12


 423 0000 08B5     		push	{r3, lr}
 424              		.cfi_def_cfa_offset 8
 425              		.cfi_offset 3, -8
 426              		.cfi_offset 14, -4
  53:.\key.c       **** }
 427              		.loc 1 53 0
 428 0002 024B     		ldr	r3, .L43
 429 0004 587C     		ldrb	r0, [r3, #17]	@ zero_extendqisi2
 430 0006 FFF7FEFF 		bl	DT_Send_Command_Ptz
 431              	.LVL8:
 432 000a 08BD     		pop	{r3, pc}
 433              	.L44:
 434              		.align	2
 435              	.L43:
 436 000c 00000000 		.word	g_Car
 437              		.cfi_endproc
 438              	.LFE63:
 439              		.size	Callback_PTZ_up_press_up, .-Callback_PTZ_up_press_up
 440              		.section	.text.Callback_PTZ_up_press_down,"ax",%progbits
 441              		.align	2
 442              		.global	Callback_PTZ_up_press_down
 443              		.thumb
 444              		.thumb_func
 445              		.type	Callback_PTZ_up_press_down, %function
 446              	Callback_PTZ_up_press_down:
 447              	.LFB64:
  56:.\key.c       ****    DT_Send_Command_Ptz(g_Car.Ptz_dir[RIGHT]);
 448              		.loc 1 56 0
 449              		.cfi_startproc
 450              		@ args = 0, pretend = 0, frame = 0
 451              		@ frame_needed = 0, uses_anonymous_args = 0
 452 0000 08B5     		push	{r3, lr}
 453              		.cfi_def_cfa_offset 8
 454              		.cfi_offset 3, -8
 455              		.cfi_offset 14, -4
  57:.\key.c       **** }
 456              		.loc 1 57 0
 457 0002 024B     		ldr	r3, .L47
 458 0004 187B     		ldrb	r0, [r3, #12]	@ zero_extendqisi2
 459 0006 FFF7FEFF 		bl	DT_Send_Command_Ptz
 460              	.LVL9:
 461 000a 08BD     		pop	{r3, pc}
 462              	.L48:
 463              		.align	2
 464              	.L47:
 465 000c 00000000 		.word	g_Car
 466              		.cfi_endproc
 467              	.LFE64:
 468              		.size	Callback_PTZ_up_press_down, .-Callback_PTZ_up_press_down
 469              		.section	.text.Callback_PTZ_down_press_up,"ax",%progbits
 470              		.align	2
 471              		.global	Callback_PTZ_down_press_up
 472              		.thumb
 473              		.thumb_func
 474              		.type	Callback_PTZ_down_press_up, %function
 475              	Callback_PTZ_down_press_up:
 476              	.LFB65:
ARM GAS  C:\Users\PANXIA~1\AppData\Local\Temp\ccp0BCPD.s 			page 13


  61:.\key.c       ****   DT_Send_Command_Ptz(g_Car.Ptz_dir[STOP]);
 477              		.loc 1 61 0
 478              		.cfi_startproc
 479              		@ args = 0, pretend = 0, frame = 0
 480              		@ frame_needed = 0, uses_anonymous_args = 0
 481 0000 08B5     		push	{r3, lr}
 482              		.cfi_def_cfa_offset 8
 483              		.cfi_offset 3, -8
 484              		.cfi_offset 14, -4
  62:.\key.c       **** }
 485              		.loc 1 62 0
 486 0002 024B     		ldr	r3, .L51
 487 0004 587C     		ldrb	r0, [r3, #17]	@ zero_extendqisi2
 488 0006 FFF7FEFF 		bl	DT_Send_Command_Ptz
 489              	.LVL10:
 490 000a 08BD     		pop	{r3, pc}
 491              	.L52:
 492              		.align	2
 493              	.L51:
 494 000c 00000000 		.word	g_Car
 495              		.cfi_endproc
 496              	.LFE65:
 497              		.size	Callback_PTZ_down_press_up, .-Callback_PTZ_down_press_up
 498              		.section	.text.Callback_PTZ_down_press_down,"ax",%progbits
 499              		.align	2
 500              		.global	Callback_PTZ_down_press_down
 501              		.thumb
 502              		.thumb_func
 503              		.type	Callback_PTZ_down_press_down, %function
 504              	Callback_PTZ_down_press_down:
 505              	.LFB66:
  65:.\key.c       ****     DT_Send_Command_Ptz(g_Car.Ptz_dir[DOWN]);
 506              		.loc 1 65 0
 507              		.cfi_startproc
 508              		@ args = 0, pretend = 0, frame = 0
 509              		@ frame_needed = 0, uses_anonymous_args = 0
 510 0000 08B5     		push	{r3, lr}
 511              		.cfi_def_cfa_offset 8
 512              		.cfi_offset 3, -8
 513              		.cfi_offset 14, -4
  66:.\key.c       **** }
 514              		.loc 1 66 0
 515 0002 024B     		ldr	r3, .L55
 516 0004 987A     		ldrb	r0, [r3, #10]	@ zero_extendqisi2
 517 0006 FFF7FEFF 		bl	DT_Send_Command_Ptz
 518              	.LVL11:
 519 000a 08BD     		pop	{r3, pc}
 520              	.L56:
 521              		.align	2
 522              	.L55:
 523 000c 00000000 		.word	g_Car
 524              		.cfi_endproc
 525              	.LFE66:
 526              		.size	Callback_PTZ_down_press_down, .-Callback_PTZ_down_press_down
 527              		.section	.text.Callback_PTZ_left_press_up,"ax",%progbits
 528              		.align	2
 529              		.global	Callback_PTZ_left_press_up
ARM GAS  C:\Users\PANXIA~1\AppData\Local\Temp\ccp0BCPD.s 			page 14


 530              		.thumb
 531              		.thumb_func
 532              		.type	Callback_PTZ_left_press_up, %function
 533              	Callback_PTZ_left_press_up:
 534              	.LFB67:
  71:.\key.c       ****    DT_Send_Command_Ptz(g_Car.Ptz_dir[STOP]);
 535              		.loc 1 71 0
 536              		.cfi_startproc
 537              		@ args = 0, pretend = 0, frame = 0
 538              		@ frame_needed = 0, uses_anonymous_args = 0
 539 0000 08B5     		push	{r3, lr}
 540              		.cfi_def_cfa_offset 8
 541              		.cfi_offset 3, -8
 542              		.cfi_offset 14, -4
  72:.\key.c       **** }
 543              		.loc 1 72 0
 544 0002 024B     		ldr	r3, .L59
 545 0004 587C     		ldrb	r0, [r3, #17]	@ zero_extendqisi2
 546 0006 FFF7FEFF 		bl	DT_Send_Command_Ptz
 547              	.LVL12:
 548 000a 08BD     		pop	{r3, pc}
 549              	.L60:
 550              		.align	2
 551              	.L59:
 552 000c 00000000 		.word	g_Car
 553              		.cfi_endproc
 554              	.LFE67:
 555              		.size	Callback_PTZ_left_press_up, .-Callback_PTZ_left_press_up
 556              		.section	.text.Callback_PTZ_left_press_down,"ax",%progbits
 557              		.align	2
 558              		.global	Callback_PTZ_left_press_down
 559              		.thumb
 560              		.thumb_func
 561              		.type	Callback_PTZ_left_press_down, %function
 562              	Callback_PTZ_left_press_down:
 563              	.LFB68:
  75:.\key.c       ****     DT_Send_Command_Ptz(g_Car.Ptz_dir[LEFT]); 
 564              		.loc 1 75 0
 565              		.cfi_startproc
 566              		@ args = 0, pretend = 0, frame = 0
 567              		@ frame_needed = 0, uses_anonymous_args = 0
 568 0000 08B5     		push	{r3, lr}
 569              		.cfi_def_cfa_offset 8
 570              		.cfi_offset 3, -8
 571              		.cfi_offset 14, -4
  76:.\key.c       **** }
 572              		.loc 1 76 0
 573 0002 024B     		ldr	r3, .L63
 574 0004 D87A     		ldrb	r0, [r3, #11]	@ zero_extendqisi2
 575 0006 FFF7FEFF 		bl	DT_Send_Command_Ptz
 576              	.LVL13:
 577 000a 08BD     		pop	{r3, pc}
 578              	.L64:
 579              		.align	2
 580              	.L63:
 581 000c 00000000 		.word	g_Car
 582              		.cfi_endproc
ARM GAS  C:\Users\PANXIA~1\AppData\Local\Temp\ccp0BCPD.s 			page 15


 583              	.LFE68:
 584              		.size	Callback_PTZ_left_press_down, .-Callback_PTZ_left_press_down
 585              		.section	.text.Callback_PTZ_right_press_up,"ax",%progbits
 586              		.align	2
 587              		.global	Callback_PTZ_right_press_up
 588              		.thumb
 589              		.thumb_func
 590              		.type	Callback_PTZ_right_press_up, %function
 591              	Callback_PTZ_right_press_up:
 592              	.LFB69:
  80:.\key.c       ****    DT_Send_Command_Ptz(g_Car.Ptz_dir[STOP]);
 593              		.loc 1 80 0
 594              		.cfi_startproc
 595              		@ args = 0, pretend = 0, frame = 0
 596              		@ frame_needed = 0, uses_anonymous_args = 0
 597 0000 08B5     		push	{r3, lr}
 598              		.cfi_def_cfa_offset 8
 599              		.cfi_offset 3, -8
 600              		.cfi_offset 14, -4
  81:.\key.c       **** }
 601              		.loc 1 81 0
 602 0002 024B     		ldr	r3, .L67
 603 0004 587C     		ldrb	r0, [r3, #17]	@ zero_extendqisi2
 604 0006 FFF7FEFF 		bl	DT_Send_Command_Ptz
 605              	.LVL14:
 606 000a 08BD     		pop	{r3, pc}
 607              	.L68:
 608              		.align	2
 609              	.L67:
 610 000c 00000000 		.word	g_Car
 611              		.cfi_endproc
 612              	.LFE69:
 613              		.size	Callback_PTZ_right_press_up, .-Callback_PTZ_right_press_up
 614              		.section	.text.Callback_PTZ_right_press_down,"ax",%progbits
 615              		.align	2
 616              		.global	Callback_PTZ_right_press_down
 617              		.thumb
 618              		.thumb_func
 619              		.type	Callback_PTZ_right_press_down, %function
 620              	Callback_PTZ_right_press_down:
 621              	.LFB70:
  84:.\key.c       ****     DT_Send_Command_Ptz(g_Car.Ptz_dir[UP]); 
 622              		.loc 1 84 0
 623              		.cfi_startproc
 624              		@ args = 0, pretend = 0, frame = 0
 625              		@ frame_needed = 0, uses_anonymous_args = 0
 626 0000 08B5     		push	{r3, lr}
 627              		.cfi_def_cfa_offset 8
 628              		.cfi_offset 3, -8
 629              		.cfi_offset 14, -4
  85:.\key.c       **** }
 630              		.loc 1 85 0
 631 0002 024B     		ldr	r3, .L71
 632 0004 587A     		ldrb	r0, [r3, #9]	@ zero_extendqisi2
 633 0006 FFF7FEFF 		bl	DT_Send_Command_Ptz
 634              	.LVL15:
 635 000a 08BD     		pop	{r3, pc}
ARM GAS  C:\Users\PANXIA~1\AppData\Local\Temp\ccp0BCPD.s 			page 16


 636              	.L72:
 637              		.align	2
 638              	.L71:
 639 000c 00000000 		.word	g_Car
 640              		.cfi_endproc
 641              	.LFE70:
 642              		.size	Callback_PTZ_right_press_down, .-Callback_PTZ_right_press_down
 643              		.section	.text.Callback_key_speed_low_press_up,"ax",%progbits
 644              		.align	2
 645              		.global	Callback_key_speed_low_press_up
 646              		.thumb
 647              		.thumb_func
 648              		.type	Callback_key_speed_low_press_up, %function
 649              	Callback_key_speed_low_press_up:
 650              	.LFB71:
  90:.\key.c       ****     DT_Send_Command_Speed(15000);
 651              		.loc 1 90 0
 652              		.cfi_startproc
 653              		@ args = 0, pretend = 0, frame = 0
 654              		@ frame_needed = 0, uses_anonymous_args = 0
 655 0000 08B5     		push	{r3, lr}
 656              		.cfi_def_cfa_offset 8
 657              		.cfi_offset 3, -8
 658              		.cfi_offset 14, -4
  91:.\key.c       **** }
 659              		.loc 1 91 0
 660 0002 43F69820 		movw	r0, #15000
 661 0006 FFF7FEFF 		bl	DT_Send_Command_Speed
 662              	.LVL16:
 663 000a 08BD     		pop	{r3, pc}
 664              		.cfi_endproc
 665              	.LFE71:
 666              		.size	Callback_key_speed_low_press_up, .-Callback_key_speed_low_press_up
 667              		.section	.text.Callback_key_speed_low_press_down,"ax",%progbits
 668              		.align	2
 669              		.global	Callback_key_speed_low_press_down
 670              		.thumb
 671              		.thumb_func
 672              		.type	Callback_key_speed_low_press_down, %function
 673              	Callback_key_speed_low_press_down:
 674              	.LFB72:
  94:.\key.c       ****     DT_Send_Command_Speed(20000);
 675              		.loc 1 94 0
 676              		.cfi_startproc
 677              		@ args = 0, pretend = 0, frame = 0
 678              		@ frame_needed = 0, uses_anonymous_args = 0
 679 0000 08B5     		push	{r3, lr}
 680              		.cfi_def_cfa_offset 8
 681              		.cfi_offset 3, -8
 682              		.cfi_offset 14, -4
  95:.\key.c       **** }
 683              		.loc 1 95 0
 684 0002 44F62060 		movw	r0, #20000
 685 0006 FFF7FEFF 		bl	DT_Send_Command_Speed
 686              	.LVL17:
 687 000a 08BD     		pop	{r3, pc}
 688              		.cfi_endproc
ARM GAS  C:\Users\PANXIA~1\AppData\Local\Temp\ccp0BCPD.s 			page 17


 689              	.LFE72:
 690              		.size	Callback_key_speed_low_press_down, .-Callback_key_speed_low_press_down
 691              		.section	.text.Callback_key_speed_high_press_up,"ax",%progbits
 692              		.align	2
 693              		.global	Callback_key_speed_high_press_up
 694              		.thumb
 695              		.thumb_func
 696              		.type	Callback_key_speed_high_press_up, %function
 697              	Callback_key_speed_high_press_up:
 698              	.LFB73:
  98:.\key.c       ****      DT_Send_Command_Speed(15000);
 699              		.loc 1 98 0
 700              		.cfi_startproc
 701              		@ args = 0, pretend = 0, frame = 0
 702              		@ frame_needed = 0, uses_anonymous_args = 0
 703 0000 08B5     		push	{r3, lr}
 704              		.cfi_def_cfa_offset 8
 705              		.cfi_offset 3, -8
 706              		.cfi_offset 14, -4
  99:.\key.c       **** }
 707              		.loc 1 99 0
 708 0002 43F69820 		movw	r0, #15000
 709 0006 FFF7FEFF 		bl	DT_Send_Command_Speed
 710              	.LVL18:
 711 000a 08BD     		pop	{r3, pc}
 712              		.cfi_endproc
 713              	.LFE73:
 714              		.size	Callback_key_speed_high_press_up, .-Callback_key_speed_high_press_up
 715              		.section	.text.Callback_key_speed_high_press_down,"ax",%progbits
 716              		.align	2
 717              		.global	Callback_key_speed_high_press_down
 718              		.thumb
 719              		.thumb_func
 720              		.type	Callback_key_speed_high_press_down, %function
 721              	Callback_key_speed_high_press_down:
 722              	.LFB74:
 102:.\key.c       ****      DT_Send_Command_Speed(10000);
 723              		.loc 1 102 0
 724              		.cfi_startproc
 725              		@ args = 0, pretend = 0, frame = 0
 726              		@ frame_needed = 0, uses_anonymous_args = 0
 727 0000 08B5     		push	{r3, lr}
 728              		.cfi_def_cfa_offset 8
 729              		.cfi_offset 3, -8
 730              		.cfi_offset 14, -4
 103:.\key.c       **** }
 731              		.loc 1 103 0
 732 0002 42F21070 		movw	r0, #10000
 733 0006 FFF7FEFF 		bl	DT_Send_Command_Speed
 734              	.LVL19:
 735 000a 08BD     		pop	{r3, pc}
 736              		.cfi_endproc
 737              	.LFE74:
 738              		.size	Callback_key_speed_high_press_down, .-Callback_key_speed_high_press_down
 739              		.section	.text.button_init,"ax",%progbits
 740              		.align	2
 741              		.global	button_init
ARM GAS  C:\Users\PANXIA~1\AppData\Local\Temp\ccp0BCPD.s 			page 18


 742              		.thumb
 743              		.thumb_func
 744              		.type	button_init, %function
 745              	button_init:
 746              	.LFB92:
 189:.\key.c       ****     debug("Callback_SWITCH_2_high_press_down");
 190:.\key.c       **** }
 191:.\key.c       **** void init_button(void)
 192:.\key.c       **** {
 193:.\key.c       **** 
 194:.\key.c       ****   //2个预留开关
 195:.\key.c       ****     button_init   (&STR1, STR1_Read, 0);
 196:.\key.c       ****     button_attach (&STR1, PRESS_UP, Callback_STR1_press_up);
 197:.\key.c       ****     button_start  (&STR1);
 198:.\key.c       ****     button_init   (&STR1, STR1_Read, 0);
 199:.\key.c       ****     button_attach (&STR1, PRESS_DOWN, Callback_STR1_down);
 200:.\key.c       ****     button_start  (&STR1);
 201:.\key.c       ****     button_init   (&STR2, STR2_Read, 0);
 202:.\key.c       ****     button_attach (&STR2, PRESS_UP, Callback_STR2_press_up);
 203:.\key.c       ****     button_start  (&STR2);
 204:.\key.c       ****     button_init  (&STR2, STR2_Read, 0);
 205:.\key.c       ****     button_attach (&STR2, PRESS_DOWN, Callback_STR2_press_down);
 206:.\key.c       ****     button_start  (&STR2);
 207:.\key.c       ****  ///测厚仪3段式开关MSR
 208:.\key.c       ****     
 209:.\key.c       ****     button_init  (&MSR_low, MSR_LOW_Read, 0);
 210:.\key.c       ****     button_attach(&MSR_low, PRESS_UP, Callback_MSR_low_press_up);
 211:.\key.c       ****     button_start (&MSR_low);
 212:.\key.c       ****     button_init  (&MSR_low, MSR_LOW_Read, 0);
 213:.\key.c       ****     button_attach(&MSR_low, PRESS_DOWN, Callback_MSR_low_press_down);
 214:.\key.c       ****     button_start (&MSR_low);
 215:.\key.c       ****     button_init  (&MSR_high, MSR_HIGH_Read, 0);
 216:.\key.c       ****     button_attach(&MSR_high, PRESS_UP, Callback_MSR_high_press_up);
 217:.\key.c       ****     button_start (&MSR_high);
 218:.\key.c       ****      button_init  (&MSR_high, MSR_HIGH_Read, 0);
 219:.\key.c       ****     button_attach(&MSR_high, PRESS_DOWN, Callback_MSR_high_press_down);
 220:.\key.c       ****     button_start (&MSR_high);
 221:.\key.c       ****     
 222:.\key.c       ****     
 223:.\key.c       ****     
 224:.\key.c       **** //SWITCH_1
 225:.\key.c       ****     button_init  (&SWITCH_1_low, SWITCH_1_LOW_Read, 0);
 226:.\key.c       ****     button_attach(&SWITCH_1_low, PRESS_UP, Callback_SWITCH_1_low_press_up);
 227:.\key.c       ****     button_start (&SWITCH_1_low);
 228:.\key.c       ****     button_init  (&SWITCH_1_low, SWITCH_1_LOW_Read, 0);
 229:.\key.c       ****     button_attach(&SWITCH_1_low, PRESS_DOWN, Callback_SWITCH_1_low_press_down);
 230:.\key.c       ****     button_start (&SWITCH_1_low);
 231:.\key.c       ****     
 232:.\key.c       ****     button_init  (&SWITCH_1_high, SWITCH_1_HIGH_Read, 0);
 233:.\key.c       ****     button_attach(&SWITCH_1_high, PRESS_UP, Callback_SWITCH_1_high_press_up);
 234:.\key.c       ****     button_start (&SWITCH_1_high);
 235:.\key.c       ****     button_init  (&SWITCH_1_high, SWITCH_1_HIGH_Read, 0);
 236:.\key.c       ****     button_attach(&SWITCH_1_high, PRESS_DOWN, Callback_SWITCH_1_high_press_down);
 237:.\key.c       ****     button_start (&SWITCH_1_high);
 238:.\key.c       **** //SWITCH_2
 239:.\key.c       ****     button_init  (&SWITCH_2_low, SWITCH_2_LOW_Read, 0);
 240:.\key.c       ****     button_attach(&SWITCH_2_low, PRESS_UP, Callback_SWITCH_2_low_press_up);
ARM GAS  C:\Users\PANXIA~1\AppData\Local\Temp\ccp0BCPD.s 			page 19


 241:.\key.c       ****     button_start (&SWITCH_2_low);
 242:.\key.c       ****     button_init  (&SWITCH_2_low, SWITCH_2_LOW_Read, 0);
 243:.\key.c       ****     button_attach(&SWITCH_2_low, PRESS_DOWN, Callback_SWITCH_2_low_press_down);
 244:.\key.c       ****     button_start (&SWITCH_2_low);
 245:.\key.c       ****     
 246:.\key.c       ****     button_init  (&SWITCH_2_high, SWITCH_2_HIGH_Read, 0);
 247:.\key.c       ****     button_attach(&SWITCH_2_high, PRESS_UP, Callback_SWITCH_2_high_press_up);
 248:.\key.c       ****     button_start (&SWITCH_2_high);
 249:.\key.c       ****     button_init  (&SWITCH_2_high, SWITCH_2_HIGH_Read, 0);
 250:.\key.c       ****     button_attach(&SWITCH_2_high, PRESS_DOWN, Callback_SWITCH_2_high_press_down);
 251:.\key.c       ****     button_start (&SWITCH_2_high);    
 252:.\key.c       ****     ////1
 253:.\key.c       **** //    if(LED_UP_LOW_Read() == 0)
 254:.\key.c       **** //    {
 255:.\key.c       **** //     led_send[0] = led_low;
 256:.\key.c       **** // 
 257:.\key.c       **** //    }
 258:.\key.c       **** //    else if(LED_UP_HIGH_Read() == 0)
 259:.\key.c       **** //    {
 260:.\key.c       **** //     led_send[0] = led_high;
 261:.\key.c       **** //   
 262:.\key.c       **** //    }
 263:.\key.c       **** //   
 264:.\key.c       **** //    else 
 265:.\key.c       **** //    {
 266:.\key.c       **** //     led_send[0] = led_medium;
 267:.\key.c       **** //    
 268:.\key.c       **** //    } 
 269:.\key.c       **** //    
 270:.\key.c       **** //    CyDelay(2);
 271:.\key.c       ****     
 272:.\key.c       ****     ///2
 273:.\key.c       **** //    if(LED_DOWN_LOW_Read() == 0)
 274:.\key.c       **** //    {
 275:.\key.c       **** //     led_send[1] = led_low;
 276:.\key.c       **** //  
 277:.\key.c       **** //    }
 278:.\key.c       **** //    else if(LED_DOWN_HIGH_Read() == 0)
 279:.\key.c       **** //    {
 280:.\key.c       **** //     led_send[1] = led_high;
 281:.\key.c       **** //  
 282:.\key.c       **** //    }
 283:.\key.c       **** //    else 
 284:.\key.c       **** //    {
 285:.\key.c       **** //     led_send[1] = led_medium;
 286:.\key.c       **** //
 287:.\key.c       **** //    }
 288:.\key.c       **** //        CyDelay(2);
 289:.\key.c       **** //   if(LED_LEFT_LOW_Read() == 0)
 290:.\key.c       **** //    {
 291:.\key.c       **** //     led_send[2] = led_low;
 292:.\key.c       **** // 
 293:.\key.c       **** //    }
 294:.\key.c       **** //    else if(LED_LEFT_HIGH_Read() == 0)
 295:.\key.c       **** //    {
 296:.\key.c       **** //     led_send[2] = led_high;
 297:.\key.c       **** //  
ARM GAS  C:\Users\PANXIA~1\AppData\Local\Temp\ccp0BCPD.s 			page 20


 298:.\key.c       **** //    }
 299:.\key.c       **** //    else 
 300:.\key.c       **** //    {
 301:.\key.c       **** //     led_send[2] = led_medium;
 302:.\key.c       **** //   
 303:.\key.c       **** //    }
 304:.\key.c       **** //        CyDelay(2);
 305:.\key.c       **** //        if(LED_RIGHT_LOW_Read() == 0)
 306:.\key.c       **** //    {
 307:.\key.c       **** //     led_send[3] = led_low;
 308:.\key.c       **** //
 309:.\key.c       **** //    }
 310:.\key.c       **** //    else if(LED_RIGHT_HIGH_Read() == 0)
 311:.\key.c       **** //    {
 312:.\key.c       **** //     led_send[3] = led_high;
 313:.\key.c       **** //   
 314:.\key.c       **** //    }
 315:.\key.c       **** //    else 
 316:.\key.c       **** //    {
 317:.\key.c       **** //     led_send[3] = led_medium;
 318:.\key.c       **** //     
 319:.\key.c       **** //    }
 320:.\key.c       **** //    DT_Send_Command_Led(led_send);
 321:.\key.c       **** //        CyDelay(2);
 322:.\key.c       **** //    if(KEY_SPEED_LOW_Read() == 0)
 323:.\key.c       **** //    {
 324:.\key.c       **** //        DT_Send_Command_Speed(20000);
 325:.\key.c       **** //    }
 326:.\key.c       **** //    else if(KEY_SPEED_HIGH_Read() == 0)
 327:.\key.c       **** //    {
 328:.\key.c       **** //         DT_Send_Command_Speed(10000);
 329:.\key.c       **** //    }
 330:.\key.c       **** //    else
 331:.\key.c       **** //    {
 332:.\key.c       **** //         DT_Send_Command_Speed(15000);
 333:.\key.c       **** //    }
 334:.\key.c       ****    
 335:.\key.c       **** }
 336:.\key.c       **** 
 337:.\key.c       **** void button_init(struct Button* handle, uint8_t(*pin_level)(), uint8_t active_level)
 338:.\key.c       **** {
 747              		.loc 1 338 0
 748              		.cfi_startproc
 749              		@ args = 0, pretend = 0, frame = 0
 750              		@ frame_needed = 0, uses_anonymous_args = 0
 751              	.LVL20:
 752 0000 38B5     		push	{r3, r4, r5, lr}
 753              		.cfi_def_cfa_offset 16
 754              		.cfi_offset 3, -16
 755              		.cfi_offset 4, -12
 756              		.cfi_offset 5, -8
 757              		.cfi_offset 14, -4
 758 0002 0446     		mov	r4, r0
 759 0004 1546     		mov	r5, r2
 339:.\key.c       **** 	memset(handle, sizeof(struct Button), 0);
 340:.\key.c       **** 	handle->event = (uint8_t)NONE_PRESS;
 760              		.loc 1 340 0
ARM GAS  C:\Users\PANXIA~1\AppData\Local\Temp\ccp0BCPD.s 			page 21


 761 0006 8378     		ldrb	r3, [r0, #2]	@ zero_extendqisi2
 762 0008 0822     		movs	r2, #8
 763              	.LVL21:
 764 000a 62F30713 		bfi	r3, r2, #4, #4
 765 000e 8370     		strb	r3, [r0, #2]
 341:.\key.c       **** 	handle->hal_button_Level = pin_level;
 766              		.loc 1 341 0
 767 0010 4160     		str	r1, [r0, #4]
 342:.\key.c       **** 	handle->button_level = handle->hal_button_Level();
 768              		.loc 1 342 0
 769 0012 8847     		blx	r1
 770              	.LVL22:
 771 0014 E378     		ldrb	r3, [r4, #3]	@ zero_extendqisi2
 772 0016 60F3C713 		bfi	r3, r0, #7, #1
 343:.\key.c       **** 	handle->active_level = active_level;
 773              		.loc 1 343 0
 774 001a 65F38613 		bfi	r3, r5, #6, #1
 775 001e E370     		strb	r3, [r4, #3]
 776 0020 38BD     		pop	{r3, r4, r5, pc}
 777              		.cfi_endproc
 778              	.LFE92:
 779              		.size	button_init, .-button_init
 780 0022 00BF     		.section	.text.button_attach,"ax",%progbits
 781              		.align	2
 782              		.global	button_attach
 783              		.thumb
 784              		.thumb_func
 785              		.type	button_attach, %function
 786              	button_attach:
 787              	.LFB93:
 344:.\key.c       **** }
 345:.\key.c       **** 
 346:.\key.c       **** void button_attach(struct Button* handle, PressEvent event, BtnCallback cb)
 347:.\key.c       **** {
 788              		.loc 1 347 0
 789              		.cfi_startproc
 790              		@ args = 0, pretend = 0, frame = 0
 791              		@ frame_needed = 0, uses_anonymous_args = 0
 792              		@ link register save eliminated.
 793              	.LVL23:
 348:.\key.c       **** 	handle->cb[event] = cb;
 794              		.loc 1 348 0
 795 0000 0231     		adds	r1, r1, #2
 796              	.LVL24:
 797 0002 40F82120 		str	r2, [r0, r1, lsl #2]
 798 0006 7047     		bx	lr
 799              		.cfi_endproc
 800              	.LFE93:
 801              		.size	button_attach, .-button_attach
 802              		.section	.text.get_button_event,"ax",%progbits
 803              		.align	2
 804              		.global	get_button_event
 805              		.thumb
 806              		.thumb_func
 807              		.type	get_button_event, %function
 808              	get_button_event:
 809              	.LFB94:
ARM GAS  C:\Users\PANXIA~1\AppData\Local\Temp\ccp0BCPD.s 			page 22


 349:.\key.c       **** }
 350:.\key.c       **** 
 351:.\key.c       **** 
 352:.\key.c       **** PressEvent get_button_event(struct Button* handle)
 353:.\key.c       **** {
 810              		.loc 1 353 0
 811              		.cfi_startproc
 812              		@ args = 0, pretend = 0, frame = 0
 813              		@ frame_needed = 0, uses_anonymous_args = 0
 814              		@ link register save eliminated.
 815              	.LVL25:
 354:.\key.c       **** 	return (PressEvent)(handle->event);
 816              		.loc 1 354 0
 817 0000 8078     		ldrb	r0, [r0, #2]	@ zero_extendqisi2
 818              	.LVL26:
 355:.\key.c       **** }
 819              		.loc 1 355 0
 820 0002 0009     		lsrs	r0, r0, #4
 821 0004 7047     		bx	lr
 822              		.cfi_endproc
 823              	.LFE94:
 824              		.size	get_button_event, .-get_button_event
 825 0006 00BF     		.section	.text.button_handler,"ax",%progbits
 826              		.align	2
 827              		.global	button_handler
 828              		.thumb
 829              		.thumb_func
 830              		.type	button_handler, %function
 831              	button_handler:
 832              	.LFB95:
 356:.\key.c       **** 
 357:.\key.c       **** 
 358:.\key.c       **** void button_handler(struct Button* handle)
 359:.\key.c       **** {
 833              		.loc 1 359 0
 834              		.cfi_startproc
 835              		@ args = 0, pretend = 0, frame = 0
 836              		@ frame_needed = 0, uses_anonymous_args = 0
 837              	.LVL27:
 838 0000 10B5     		push	{r4, lr}
 839              		.cfi_def_cfa_offset 8
 840              		.cfi_offset 4, -8
 841              		.cfi_offset 14, -4
 842 0002 0446     		mov	r4, r0
 360:.\key.c       **** 	uint8_t read_gpio_level = handle->hal_button_Level();
 843              		.loc 1 360 0
 844 0004 4368     		ldr	r3, [r0, #4]
 845 0006 9847     		blx	r3
 846              	.LVL28:
 361:.\key.c       **** 
 362:.\key.c       **** 	//ticks counter working..
 363:.\key.c       **** 	if((handle->state) > 0) handle->ticks++;
 847              		.loc 1 363 0
 848 0008 E378     		ldrb	r3, [r4, #3]	@ zero_extendqisi2
 849 000a 13F00703 		ands	r3, r3, #7
 850 000e 02D0     		beq	.L86
 851              		.loc 1 363 0 is_stmt 0 discriminator 1
ARM GAS  C:\Users\PANXIA~1\AppData\Local\Temp\ccp0BCPD.s 			page 23


 852 0010 2288     		ldrh	r2, [r4]
 853 0012 0132     		adds	r2, r2, #1
 854 0014 2280     		strh	r2, [r4]	@ movhi
 855              	.L86:
 364:.\key.c       **** 
 365:.\key.c       **** 	/*------------button debounce handle---------------*/
 366:.\key.c       **** 	if(read_gpio_level != handle->button_level) { //not equal to prev one
 856              		.loc 1 366 0 is_stmt 1
 857 0016 E278     		ldrb	r2, [r4, #3]	@ zero_extendqisi2
 858 0018 B0EBD21F 		cmp	r0, r2, lsr #7
 859 001c 11D0     		beq	.L87
 367:.\key.c       **** 		//continue read 3 times same new level change
 368:.\key.c       **** 		if(++(handle->debounce_cnt) >= DEBOUNCE_TICKS) {
 860              		.loc 1 368 0
 861 001e 1146     		mov	r1, r2
 862 0020 C2F3C202 		ubfx	r2, r2, #3, #3
 863 0024 0132     		adds	r2, r2, #1
 864 0026 02F00702 		and	r2, r2, #7
 865 002a 62F3C501 		bfi	r1, r2, #3, #3
 866 002e E170     		strb	r1, [r4, #3]
 867 0030 022A     		cmp	r2, #2
 868 0032 0ADD     		ble	.L88
 369:.\key.c       **** 			handle->button_level = read_gpio_level;
 869              		.loc 1 369 0
 870 0034 CAB2     		uxtb	r2, r1
 871 0036 60F3C712 		bfi	r2, r0, #7, #1
 370:.\key.c       **** 			handle->debounce_cnt = 0;
 872              		.loc 1 370 0
 873 003a 6FF3C502 		bfc	r2, #3, #3
 874 003e E270     		strb	r2, [r4, #3]
 875 0040 03E0     		b	.L88
 876              	.L87:
 371:.\key.c       **** 		}
 372:.\key.c       **** 	} else { //leved not change ,counter reset.
 373:.\key.c       **** 		handle->debounce_cnt = 0;
 877              		.loc 1 373 0
 878 0042 E278     		ldrb	r2, [r4, #3]	@ zero_extendqisi2
 879 0044 6FF3C502 		bfc	r2, #3, #3
 880 0048 E270     		strb	r2, [r4, #3]
 881              	.L88:
 374:.\key.c       **** 	}
 375:.\key.c       **** 
 376:.\key.c       **** 	/*-----------------State machine-------------------*/
 377:.\key.c       **** 	switch (handle->state) {
 882              		.loc 1 377 0
 883 004a 052B     		cmp	r3, #5
 884 004c 00F2D380 		bhi	.L85
 885 0050 DFE813F0 		tbh	[pc, r3, lsl #1]
 886              	.L91:
 887 0054 0600     		.2byte	(.L90-.L91)/2
 888 0056 2600     		.2byte	(.L92-.L91)/2
 889 0058 5000     		.2byte	(.L93-.L91)/2
 890 005a 9500     		.2byte	(.L94-.L91)/2
 891 005c D100     		.2byte	(.L85-.L91)/2
 892 005e B400     		.2byte	(.L95-.L91)/2
 893              		.p2align 1
 894              	.L90:
ARM GAS  C:\Users\PANXIA~1\AppData\Local\Temp\ccp0BCPD.s 			page 24


 378:.\key.c       **** 	case 0:
 379:.\key.c       **** 		if(handle->button_level == handle->active_level) {	//start press down
 895              		.loc 1 379 0
 896 0060 E378     		ldrb	r3, [r4, #3]	@ zero_extendqisi2
 897 0062 C3F38012 		ubfx	r2, r3, #6, #1
 898 0066 B2EBD31F 		cmp	r2, r3, lsr #7
 899 006a 13D1     		bne	.L96
 380:.\key.c       **** 			handle->event = (uint8_t)PRESS_DOWN;
 900              		.loc 1 380 0
 901 006c A378     		ldrb	r3, [r4, #2]	@ zero_extendqisi2
 902 006e 6FF30713 		bfc	r3, #4, #4
 903 0072 A370     		strb	r3, [r4, #2]
 381:.\key.c       **** 			EVENT_CB(PRESS_DOWN);
 904              		.loc 1 381 0
 905 0074 A368     		ldr	r3, [r4, #8]
 906 0076 0BB1     		cbz	r3, .L97
 907              		.loc 1 381 0 is_stmt 0 discriminator 1
 908 0078 2046     		mov	r0, r4
 909              	.LVL29:
 910 007a 9847     		blx	r3
 911              	.LVL30:
 912              	.L97:
 382:.\key.c       **** 			handle->ticks = 0;
 913              		.loc 1 382 0 is_stmt 1
 914 007c 0023     		movs	r3, #0
 915 007e 2380     		strh	r3, [r4]	@ movhi
 383:.\key.c       **** 			handle->repeat = 1;
 916              		.loc 1 383 0
 917 0080 A378     		ldrb	r3, [r4, #2]	@ zero_extendqisi2
 918 0082 0122     		movs	r2, #1
 919 0084 62F30303 		bfi	r3, r2, #0, #4
 920 0088 A370     		strb	r3, [r4, #2]
 384:.\key.c       **** 			handle->state = 1;
 921              		.loc 1 384 0
 922 008a E378     		ldrb	r3, [r4, #3]	@ zero_extendqisi2
 923 008c 62F30203 		bfi	r3, r2, #0, #3
 924 0090 E370     		strb	r3, [r4, #3]
 925 0092 10BD     		pop	{r4, pc}
 926              	.LVL31:
 927              	.L96:
 385:.\key.c       **** 		} else {
 386:.\key.c       **** 			handle->event = (uint8_t)NONE_PRESS;
 928              		.loc 1 386 0
 929 0094 A378     		ldrb	r3, [r4, #2]	@ zero_extendqisi2
 930 0096 0822     		movs	r2, #8
 931 0098 62F30713 		bfi	r3, r2, #4, #4
 932 009c A370     		strb	r3, [r4, #2]
 933 009e 10BD     		pop	{r4, pc}
 934              	.LVL32:
 935              	.L92:
 387:.\key.c       **** 		}
 388:.\key.c       **** 		break;
 389:.\key.c       **** 
 390:.\key.c       **** 	case 1:
 391:.\key.c       **** 		if(handle->button_level != handle->active_level) { //released press up
 936              		.loc 1 391 0
 937 00a0 E378     		ldrb	r3, [r4, #3]	@ zero_extendqisi2
ARM GAS  C:\Users\PANXIA~1\AppData\Local\Temp\ccp0BCPD.s 			page 25


 938 00a2 C3F38012 		ubfx	r2, r3, #6, #1
 939 00a6 B2EBD31F 		cmp	r2, r3, lsr #7
 940 00aa 10D0     		beq	.L98
 392:.\key.c       **** 			handle->event = (uint8_t)PRESS_UP;
 941              		.loc 1 392 0
 942 00ac A378     		ldrb	r3, [r4, #2]	@ zero_extendqisi2
 943 00ae 0122     		movs	r2, #1
 944 00b0 62F30713 		bfi	r3, r2, #4, #4
 945 00b4 A370     		strb	r3, [r4, #2]
 393:.\key.c       **** 			EVENT_CB(PRESS_UP);
 946              		.loc 1 393 0
 947 00b6 E368     		ldr	r3, [r4, #12]
 948 00b8 0BB1     		cbz	r3, .L99
 949              		.loc 1 393 0 is_stmt 0 discriminator 1
 950 00ba 2046     		mov	r0, r4
 951              	.LVL33:
 952 00bc 9847     		blx	r3
 953              	.LVL34:
 954              	.L99:
 394:.\key.c       **** 			handle->ticks = 0;
 955              		.loc 1 394 0 is_stmt 1
 956 00be 0023     		movs	r3, #0
 957 00c0 2380     		strh	r3, [r4]	@ movhi
 395:.\key.c       **** 			handle->state = 2;
 958              		.loc 1 395 0
 959 00c2 E378     		ldrb	r3, [r4, #3]	@ zero_extendqisi2
 960 00c4 0222     		movs	r2, #2
 961 00c6 62F30203 		bfi	r3, r2, #0, #3
 962 00ca E370     		strb	r3, [r4, #3]
 963 00cc 10BD     		pop	{r4, pc}
 964              	.LVL35:
 965              	.L98:
 396:.\key.c       **** 
 397:.\key.c       **** 		} else if(handle->ticks > LONG_TICKS) {
 966              		.loc 1 397 0
 967 00ce 2388     		ldrh	r3, [r4]
 968 00d0 642B     		cmp	r3, #100
 969 00d2 40F29080 		bls	.L85
 398:.\key.c       **** 			handle->event = (uint8_t)LONG_RRESS_START;
 970              		.loc 1 398 0
 971 00d6 A378     		ldrb	r3, [r4, #2]	@ zero_extendqisi2
 972 00d8 0522     		movs	r2, #5
 973 00da 62F30713 		bfi	r3, r2, #4, #4
 974 00de A370     		strb	r3, [r4, #2]
 399:.\key.c       **** 			EVENT_CB(LONG_RRESS_START);
 975              		.loc 1 399 0
 976 00e0 E369     		ldr	r3, [r4, #28]
 977 00e2 0BB1     		cbz	r3, .L100
 978              		.loc 1 399 0 is_stmt 0 discriminator 1
 979 00e4 2046     		mov	r0, r4
 980              	.LVL36:
 981 00e6 9847     		blx	r3
 982              	.LVL37:
 983              	.L100:
 400:.\key.c       **** 			handle->state = 5;
 984              		.loc 1 400 0 is_stmt 1
 985 00e8 E378     		ldrb	r3, [r4, #3]	@ zero_extendqisi2
ARM GAS  C:\Users\PANXIA~1\AppData\Local\Temp\ccp0BCPD.s 			page 26


 986 00ea 0522     		movs	r2, #5
 987 00ec 62F30203 		bfi	r3, r2, #0, #3
 988 00f0 E370     		strb	r3, [r4, #3]
 989 00f2 10BD     		pop	{r4, pc}
 990              	.LVL38:
 991              	.L93:
 401:.\key.c       **** 		}
 402:.\key.c       **** 		break;
 403:.\key.c       **** 
 404:.\key.c       **** 	case 2:
 405:.\key.c       **** 		if(handle->button_level == handle->active_level) { //press down again
 992              		.loc 1 405 0
 993 00f4 E378     		ldrb	r3, [r4, #3]	@ zero_extendqisi2
 994 00f6 C3F38012 		ubfx	r2, r3, #6, #1
 995 00fa B2EBD31F 		cmp	r2, r3, lsr #7
 996 00fe 20D1     		bne	.L101
 406:.\key.c       **** 			handle->event = (uint8_t)PRESS_DOWN;
 997              		.loc 1 406 0
 998 0100 A378     		ldrb	r3, [r4, #2]	@ zero_extendqisi2
 999 0102 6FF30713 		bfc	r3, #4, #4
 1000 0106 A370     		strb	r3, [r4, #2]
 407:.\key.c       **** 			EVENT_CB(PRESS_DOWN);
 1001              		.loc 1 407 0
 1002 0108 A368     		ldr	r3, [r4, #8]
 1003 010a 0BB1     		cbz	r3, .L102
 1004              		.loc 1 407 0 is_stmt 0 discriminator 1
 1005 010c 2046     		mov	r0, r4
 1006              	.LVL39:
 1007 010e 9847     		blx	r3
 1008              	.LVL40:
 1009              	.L102:
 408:.\key.c       **** 			handle->repeat++;
 1010              		.loc 1 408 0 is_stmt 1
 1011 0110 A378     		ldrb	r3, [r4, #2]	@ zero_extendqisi2
 1012 0112 5A1C     		adds	r2, r3, #1
 1013 0114 62F30303 		bfi	r3, r2, #0, #4
 1014 0118 A370     		strb	r3, [r4, #2]
 409:.\key.c       **** 			if(handle->repeat == 2) {
 1015              		.loc 1 409 0
 1016 011a 03F00F03 		and	r3, r3, #15
 1017 011e 022B     		cmp	r3, #2
 1018 0120 03D1     		bne	.L103
 410:.\key.c       **** 				EVENT_CB(DOUBLE_CLICK); // repeat hit
 1019              		.loc 1 410 0
 1020 0122 A369     		ldr	r3, [r4, #24]
 1021 0124 0BB1     		cbz	r3, .L103
 1022              		.loc 1 410 0 is_stmt 0 discriminator 1
 1023 0126 2046     		mov	r0, r4
 1024 0128 9847     		blx	r3
 1025              	.LVL41:
 1026              	.L103:
 411:.\key.c       **** 			} 
 412:.\key.c       **** 			EVENT_CB(PRESS_REPEAT); // repeat hit
 1027              		.loc 1 412 0 is_stmt 1
 1028 012a 2369     		ldr	r3, [r4, #16]
 1029 012c 0BB1     		cbz	r3, .L104
 1030              		.loc 1 412 0 is_stmt 0 discriminator 1
ARM GAS  C:\Users\PANXIA~1\AppData\Local\Temp\ccp0BCPD.s 			page 27


 1031 012e 2046     		mov	r0, r4
 1032 0130 9847     		blx	r3
 1033              	.LVL42:
 1034              	.L104:
 413:.\key.c       **** 			handle->ticks = 0;
 1035              		.loc 1 413 0 is_stmt 1
 1036 0132 0023     		movs	r3, #0
 1037 0134 2380     		strh	r3, [r4]	@ movhi
 414:.\key.c       **** 			handle->state = 3;
 1038              		.loc 1 414 0
 1039 0136 E378     		ldrb	r3, [r4, #3]	@ zero_extendqisi2
 1040 0138 0322     		movs	r2, #3
 1041 013a 62F30203 		bfi	r3, r2, #0, #3
 1042 013e E370     		strb	r3, [r4, #3]
 1043 0140 10BD     		pop	{r4, pc}
 1044              	.LVL43:
 1045              	.L101:
 415:.\key.c       **** 		} else if(handle->ticks > SHORT_TICKS) { //released timeout
 1046              		.loc 1 415 0
 1047 0142 2388     		ldrh	r3, [r4]
 1048 0144 3C2B     		cmp	r3, #60
 1049 0146 56D9     		bls	.L85
 416:.\key.c       **** 			if(handle->repeat == 1) {
 1050              		.loc 1 416 0
 1051 0148 A378     		ldrb	r3, [r4, #2]	@ zero_extendqisi2
 1052 014a 03F00F03 		and	r3, r3, #15
 1053 014e 012B     		cmp	r3, #1
 1054 0150 09D1     		bne	.L105
 417:.\key.c       **** 				handle->event = (uint8_t)SINGLE_CLICK;
 1055              		.loc 1 417 0
 1056 0152 A378     		ldrb	r3, [r4, #2]	@ zero_extendqisi2
 1057 0154 0322     		movs	r2, #3
 1058 0156 62F30713 		bfi	r3, r2, #4, #4
 1059 015a A370     		strb	r3, [r4, #2]
 418:.\key.c       **** 				EVENT_CB(SINGLE_CLICK);
 1060              		.loc 1 418 0
 1061 015c 6369     		ldr	r3, [r4, #20]
 1062 015e 4BB1     		cbz	r3, .L106
 1063              		.loc 1 418 0 is_stmt 0 discriminator 1
 1064 0160 2046     		mov	r0, r4
 1065              	.LVL44:
 1066 0162 9847     		blx	r3
 1067              	.LVL45:
 1068 0164 06E0     		b	.L106
 1069              	.LVL46:
 1070              	.L105:
 419:.\key.c       **** 			} else if(handle->repeat == 2) {
 1071              		.loc 1 419 0 is_stmt 1
 1072 0166 022B     		cmp	r3, #2
 1073 0168 04D1     		bne	.L106
 420:.\key.c       **** 				handle->event = (uint8_t)DOUBLE_CLICK;
 1074              		.loc 1 420 0
 1075 016a A378     		ldrb	r3, [r4, #2]	@ zero_extendqisi2
 1076 016c 0422     		movs	r2, #4
 1077 016e 62F30713 		bfi	r3, r2, #4, #4
 1078 0172 A370     		strb	r3, [r4, #2]
 1079              	.LVL47:
ARM GAS  C:\Users\PANXIA~1\AppData\Local\Temp\ccp0BCPD.s 			page 28


 1080              	.L106:
 421:.\key.c       **** 			}
 422:.\key.c       **** 			handle->state = 0;
 1081              		.loc 1 422 0
 1082 0174 E378     		ldrb	r3, [r4, #3]	@ zero_extendqisi2
 1083 0176 6FF30203 		bfc	r3, #0, #3
 1084 017a E370     		strb	r3, [r4, #3]
 1085 017c 10BD     		pop	{r4, pc}
 1086              	.LVL48:
 1087              	.L94:
 423:.\key.c       **** 		}
 424:.\key.c       **** 		break;
 425:.\key.c       **** 
 426:.\key.c       **** 	case 3:
 427:.\key.c       **** 		if(handle->button_level != handle->active_level) { //released press up
 1088              		.loc 1 427 0
 1089 017e E378     		ldrb	r3, [r4, #3]	@ zero_extendqisi2
 1090 0180 C3F38012 		ubfx	r2, r3, #6, #1
 1091 0184 B2EBD31F 		cmp	r2, r3, lsr #7
 1092 0188 35D0     		beq	.L85
 428:.\key.c       **** 			handle->event = (uint8_t)PRESS_UP;
 1093              		.loc 1 428 0
 1094 018a A378     		ldrb	r3, [r4, #2]	@ zero_extendqisi2
 1095 018c 0122     		movs	r2, #1
 1096 018e 62F30713 		bfi	r3, r2, #4, #4
 1097 0192 A370     		strb	r3, [r4, #2]
 429:.\key.c       **** 			EVENT_CB(PRESS_UP);
 1098              		.loc 1 429 0
 1099 0194 E368     		ldr	r3, [r4, #12]
 1100 0196 0BB1     		cbz	r3, .L107
 1101              		.loc 1 429 0 is_stmt 0 discriminator 1
 1102 0198 2046     		mov	r0, r4
 1103              	.LVL49:
 1104 019a 9847     		blx	r3
 1105              	.LVL50:
 1106              	.L107:
 430:.\key.c       **** 			if(handle->ticks < SHORT_TICKS) {
 1107              		.loc 1 430 0 is_stmt 1
 1108 019c 2388     		ldrh	r3, [r4]
 1109 019e 3B2B     		cmp	r3, #59
 1110 01a0 07D8     		bhi	.L108
 431:.\key.c       **** 				handle->ticks = 0;
 1111              		.loc 1 431 0
 1112 01a2 0023     		movs	r3, #0
 1113 01a4 2380     		strh	r3, [r4]	@ movhi
 432:.\key.c       **** 				handle->state = 2; //repeat press
 1114              		.loc 1 432 0
 1115 01a6 E378     		ldrb	r3, [r4, #3]	@ zero_extendqisi2
 1116 01a8 0222     		movs	r2, #2
 1117 01aa 62F30203 		bfi	r3, r2, #0, #3
 1118 01ae E370     		strb	r3, [r4, #3]
 1119 01b0 10BD     		pop	{r4, pc}
 1120              	.LVL51:
 1121              	.L108:
 433:.\key.c       **** 			} else {
 434:.\key.c       **** 				handle->state = 0;
 1122              		.loc 1 434 0
ARM GAS  C:\Users\PANXIA~1\AppData\Local\Temp\ccp0BCPD.s 			page 29


 1123 01b2 E378     		ldrb	r3, [r4, #3]	@ zero_extendqisi2
 1124 01b4 6FF30203 		bfc	r3, #0, #3
 1125 01b8 E370     		strb	r3, [r4, #3]
 1126 01ba 10BD     		pop	{r4, pc}
 1127              	.LVL52:
 1128              	.L95:
 435:.\key.c       **** 			}
 436:.\key.c       **** 		}
 437:.\key.c       **** 		break;
 438:.\key.c       **** 
 439:.\key.c       **** 	case 5:
 440:.\key.c       **** 		if(handle->button_level == handle->active_level) {
 1129              		.loc 1 440 0
 1130 01bc E378     		ldrb	r3, [r4, #3]	@ zero_extendqisi2
 1131 01be C3F38012 		ubfx	r2, r3, #6, #1
 1132 01c2 B2EBD31F 		cmp	r2, r3, lsr #7
 1133 01c6 09D1     		bne	.L109
 441:.\key.c       **** 			//continue hold trigger
 442:.\key.c       **** 			handle->event = (uint8_t)LONG_PRESS_HOLD;
 1134              		.loc 1 442 0
 1135 01c8 A378     		ldrb	r3, [r4, #2]	@ zero_extendqisi2
 1136 01ca 0622     		movs	r2, #6
 1137 01cc 62F30713 		bfi	r3, r2, #4, #4
 1138 01d0 A370     		strb	r3, [r4, #2]
 443:.\key.c       **** 			EVENT_CB(LONG_PRESS_HOLD);
 1139              		.loc 1 443 0
 1140 01d2 236A     		ldr	r3, [r4, #32]
 1141 01d4 7BB1     		cbz	r3, .L85
 1142              		.loc 1 443 0 is_stmt 0 discriminator 1
 1143 01d6 2046     		mov	r0, r4
 1144              	.LVL53:
 1145 01d8 9847     		blx	r3
 1146              	.LVL54:
 1147 01da 10BD     		pop	{r4, pc}
 1148              	.LVL55:
 1149              	.L109:
 444:.\key.c       **** 
 445:.\key.c       **** 		} else { //releasd
 446:.\key.c       **** 			handle->event = (uint8_t)PRESS_UP;
 1150              		.loc 1 446 0 is_stmt 1
 1151 01dc A378     		ldrb	r3, [r4, #2]	@ zero_extendqisi2
 1152 01de 0122     		movs	r2, #1
 1153 01e0 62F30713 		bfi	r3, r2, #4, #4
 1154 01e4 A370     		strb	r3, [r4, #2]
 447:.\key.c       **** 			EVENT_CB(PRESS_UP);
 1155              		.loc 1 447 0
 1156 01e6 E368     		ldr	r3, [r4, #12]
 1157 01e8 0BB1     		cbz	r3, .L110
 1158              		.loc 1 447 0 is_stmt 0 discriminator 1
 1159 01ea 2046     		mov	r0, r4
 1160              	.LVL56:
 1161 01ec 9847     		blx	r3
 1162              	.LVL57:
 1163              	.L110:
 448:.\key.c       **** 			handle->state = 0; //reset
 1164              		.loc 1 448 0 is_stmt 1
 1165 01ee E378     		ldrb	r3, [r4, #3]	@ zero_extendqisi2
ARM GAS  C:\Users\PANXIA~1\AppData\Local\Temp\ccp0BCPD.s 			page 30


 1166 01f0 6FF30203 		bfc	r3, #0, #3
 1167 01f4 E370     		strb	r3, [r4, #3]
 1168              	.L85:
 1169 01f6 10BD     		pop	{r4, pc}
 1170              		.cfi_endproc
 1171              	.LFE95:
 1172              		.size	button_handler, .-button_handler
 1173              		.section	.text.button_start,"ax",%progbits
 1174              		.align	2
 1175              		.global	button_start
 1176              		.thumb
 1177              		.thumb_func
 1178              		.type	button_start, %function
 1179              	button_start:
 1180              	.LFB96:
 449:.\key.c       **** 		}
 450:.\key.c       **** 		break;
 451:.\key.c       **** 	}
 452:.\key.c       **** }
 453:.\key.c       **** 
 454:.\key.c       **** 
 455:.\key.c       **** int button_start(struct Button* handle)
 456:.\key.c       **** {
 1181              		.loc 1 456 0
 1182              		.cfi_startproc
 1183              		@ args = 0, pretend = 0, frame = 0
 1184              		@ frame_needed = 0, uses_anonymous_args = 0
 1185              		@ link register save eliminated.
 1186              	.LVL58:
 457:.\key.c       **** 	struct Button* target = head_handle;
 1187              		.loc 1 457 0
 1188 0000 084B     		ldr	r3, .L117
 1189 0002 1A68     		ldr	r2, [r3]
 1190              	.LVL59:
 1191 0004 1346     		mov	r3, r2
 458:.\key.c       **** 	while(target) {
 1192              		.loc 1 458 0
 1193 0006 02E0     		b	.L113
 1194              	.LVL60:
 1195              	.L115:
 459:.\key.c       **** 		if(target == handle) return -1;	//already exist.
 1196              		.loc 1 459 0
 1197 0008 8342     		cmp	r3, r0
 1198 000a 07D0     		beq	.L116
 460:.\key.c       **** 		target = target->next;
 1199              		.loc 1 460 0
 1200 000c 5B6A     		ldr	r3, [r3, #36]
 1201              	.LVL61:
 1202              	.L113:
 458:.\key.c       **** 	while(target) {
 1203              		.loc 1 458 0
 1204 000e 002B     		cmp	r3, #0
 1205 0010 FAD1     		bne	.L115
 461:.\key.c       **** 	}
 462:.\key.c       **** 	handle->next = head_handle;
 1206              		.loc 1 462 0
 1207 0012 4262     		str	r2, [r0, #36]
ARM GAS  C:\Users\PANXIA~1\AppData\Local\Temp\ccp0BCPD.s 			page 31


 463:.\key.c       **** 	head_handle = handle;
 1208              		.loc 1 463 0
 1209 0014 034B     		ldr	r3, .L117
 1210              	.LVL62:
 1211 0016 1860     		str	r0, [r3]
 464:.\key.c       **** 	return 0;
 1212              		.loc 1 464 0
 1213 0018 0020     		movs	r0, #0
 1214              	.LVL63:
 1215 001a 7047     		bx	lr
 1216              	.LVL64:
 1217              	.L116:
 459:.\key.c       **** 		target = target->next;
 1218              		.loc 1 459 0
 1219 001c 4FF0FF30 		mov	r0, #-1
 1220              	.LVL65:
 465:.\key.c       **** }
 1221              		.loc 1 465 0
 1222 0020 7047     		bx	lr
 1223              	.L118:
 1224 0022 00BF     		.align	2
 1225              	.L117:
 1226 0024 00000000 		.word	.LANCHOR0
 1227              		.cfi_endproc
 1228              	.LFE96:
 1229              		.size	button_start, .-button_start
 1230              		.section	.text.init_button,"ax",%progbits
 1231              		.align	2
 1232              		.global	init_button
 1233              		.thumb
 1234              		.thumb_func
 1235              		.type	init_button, %function
 1236              	init_button:
 1237              	.LFB91:
 192:.\key.c       **** 
 1238              		.loc 1 192 0
 1239              		.cfi_startproc
 1240              		@ args = 0, pretend = 0, frame = 0
 1241              		@ frame_needed = 0, uses_anonymous_args = 0
 1242 0000 38B5     		push	{r3, r4, r5, lr}
 1243              		.cfi_def_cfa_offset 16
 1244              		.cfi_offset 3, -16
 1245              		.cfi_offset 4, -12
 1246              		.cfi_offset 5, -8
 1247              		.cfi_offset 14, -4
 195:.\key.c       ****     button_attach (&STR1, PRESS_UP, Callback_STR1_press_up);
 1248              		.loc 1 195 0
 1249 0002 704C     		ldr	r4, .L121
 1250 0004 704D     		ldr	r5, .L121+4
 1251 0006 2046     		mov	r0, r4
 1252 0008 2946     		mov	r1, r5
 1253 000a 0022     		movs	r2, #0
 1254 000c FFF7FEFF 		bl	button_init
 1255              	.LVL66:
 196:.\key.c       ****     button_start  (&STR1);
 1256              		.loc 1 196 0
 1257 0010 2046     		mov	r0, r4
ARM GAS  C:\Users\PANXIA~1\AppData\Local\Temp\ccp0BCPD.s 			page 32


 1258 0012 0121     		movs	r1, #1
 1259 0014 6D4A     		ldr	r2, .L121+8
 1260 0016 FFF7FEFF 		bl	button_attach
 1261              	.LVL67:
 197:.\key.c       ****     button_init   (&STR1, STR1_Read, 0);
 1262              		.loc 1 197 0
 1263 001a 2046     		mov	r0, r4
 1264 001c FFF7FEFF 		bl	button_start
 1265              	.LVL68:
 198:.\key.c       ****     button_attach (&STR1, PRESS_DOWN, Callback_STR1_down);
 1266              		.loc 1 198 0
 1267 0020 2046     		mov	r0, r4
 1268 0022 2946     		mov	r1, r5
 1269 0024 0022     		movs	r2, #0
 1270 0026 FFF7FEFF 		bl	button_init
 1271              	.LVL69:
 199:.\key.c       ****     button_start  (&STR1);
 1272              		.loc 1 199 0
 1273 002a 2046     		mov	r0, r4
 1274 002c 0021     		movs	r1, #0
 1275 002e 684A     		ldr	r2, .L121+12
 1276 0030 FFF7FEFF 		bl	button_attach
 1277              	.LVL70:
 200:.\key.c       ****     button_init   (&STR2, STR2_Read, 0);
 1278              		.loc 1 200 0
 1279 0034 2046     		mov	r0, r4
 1280 0036 FFF7FEFF 		bl	button_start
 1281              	.LVL71:
 201:.\key.c       ****     button_attach (&STR2, PRESS_UP, Callback_STR2_press_up);
 1282              		.loc 1 201 0
 1283 003a 664C     		ldr	r4, .L121+16
 1284 003c 664D     		ldr	r5, .L121+20
 1285 003e 2046     		mov	r0, r4
 1286 0040 2946     		mov	r1, r5
 1287 0042 0022     		movs	r2, #0
 1288 0044 FFF7FEFF 		bl	button_init
 1289              	.LVL72:
 202:.\key.c       ****     button_start  (&STR2);
 1290              		.loc 1 202 0
 1291 0048 2046     		mov	r0, r4
 1292 004a 0121     		movs	r1, #1
 1293 004c 634A     		ldr	r2, .L121+24
 1294 004e FFF7FEFF 		bl	button_attach
 1295              	.LVL73:
 203:.\key.c       ****     button_init  (&STR2, STR2_Read, 0);
 1296              		.loc 1 203 0
 1297 0052 2046     		mov	r0, r4
 1298 0054 FFF7FEFF 		bl	button_start
 1299              	.LVL74:
 204:.\key.c       ****     button_attach (&STR2, PRESS_DOWN, Callback_STR2_press_down);
 1300              		.loc 1 204 0
 1301 0058 2046     		mov	r0, r4
 1302 005a 2946     		mov	r1, r5
 1303 005c 0022     		movs	r2, #0
 1304 005e FFF7FEFF 		bl	button_init
 1305              	.LVL75:
 205:.\key.c       ****     button_start  (&STR2);
ARM GAS  C:\Users\PANXIA~1\AppData\Local\Temp\ccp0BCPD.s 			page 33


 1306              		.loc 1 205 0
 1307 0062 2046     		mov	r0, r4
 1308 0064 0021     		movs	r1, #0
 1309 0066 5E4A     		ldr	r2, .L121+28
 1310 0068 FFF7FEFF 		bl	button_attach
 1311              	.LVL76:
 206:.\key.c       ****  ///测厚仪3段式开关MSR
 1312              		.loc 1 206 0
 1313 006c 2046     		mov	r0, r4
 1314 006e FFF7FEFF 		bl	button_start
 1315              	.LVL77:
 209:.\key.c       ****     button_attach(&MSR_low, PRESS_UP, Callback_MSR_low_press_up);
 1316              		.loc 1 209 0
 1317 0072 5C4C     		ldr	r4, .L121+32
 1318 0074 5C4D     		ldr	r5, .L121+36
 1319 0076 2046     		mov	r0, r4
 1320 0078 2946     		mov	r1, r5
 1321 007a 0022     		movs	r2, #0
 1322 007c FFF7FEFF 		bl	button_init
 1323              	.LVL78:
 210:.\key.c       ****     button_start (&MSR_low);
 1324              		.loc 1 210 0
 1325 0080 2046     		mov	r0, r4
 1326 0082 0121     		movs	r1, #1
 1327 0084 594A     		ldr	r2, .L121+40
 1328 0086 FFF7FEFF 		bl	button_attach
 1329              	.LVL79:
 211:.\key.c       ****     button_init  (&MSR_low, MSR_LOW_Read, 0);
 1330              		.loc 1 211 0
 1331 008a 2046     		mov	r0, r4
 1332 008c FFF7FEFF 		bl	button_start
 1333              	.LVL80:
 212:.\key.c       ****     button_attach(&MSR_low, PRESS_DOWN, Callback_MSR_low_press_down);
 1334              		.loc 1 212 0
 1335 0090 2046     		mov	r0, r4
 1336 0092 2946     		mov	r1, r5
 1337 0094 0022     		movs	r2, #0
 1338 0096 FFF7FEFF 		bl	button_init
 1339              	.LVL81:
 213:.\key.c       ****     button_start (&MSR_low);
 1340              		.loc 1 213 0
 1341 009a 2046     		mov	r0, r4
 1342 009c 0021     		movs	r1, #0
 1343 009e 544A     		ldr	r2, .L121+44
 1344 00a0 FFF7FEFF 		bl	button_attach
 1345              	.LVL82:
 214:.\key.c       ****     button_init  (&MSR_high, MSR_HIGH_Read, 0);
 1346              		.loc 1 214 0
 1347 00a4 2046     		mov	r0, r4
 1348 00a6 FFF7FEFF 		bl	button_start
 1349              	.LVL83:
 215:.\key.c       ****     button_attach(&MSR_high, PRESS_UP, Callback_MSR_high_press_up);
 1350              		.loc 1 215 0
 1351 00aa 524C     		ldr	r4, .L121+48
 1352 00ac 524D     		ldr	r5, .L121+52
 1353 00ae 2046     		mov	r0, r4
 1354 00b0 2946     		mov	r1, r5
ARM GAS  C:\Users\PANXIA~1\AppData\Local\Temp\ccp0BCPD.s 			page 34


 1355 00b2 0022     		movs	r2, #0
 1356 00b4 FFF7FEFF 		bl	button_init
 1357              	.LVL84:
 216:.\key.c       ****     button_start (&MSR_high);
 1358              		.loc 1 216 0
 1359 00b8 2046     		mov	r0, r4
 1360 00ba 0121     		movs	r1, #1
 1361 00bc 4F4A     		ldr	r2, .L121+56
 1362 00be FFF7FEFF 		bl	button_attach
 1363              	.LVL85:
 217:.\key.c       ****      button_init  (&MSR_high, MSR_HIGH_Read, 0);
 1364              		.loc 1 217 0
 1365 00c2 2046     		mov	r0, r4
 1366 00c4 FFF7FEFF 		bl	button_start
 1367              	.LVL86:
 218:.\key.c       ****     button_attach(&MSR_high, PRESS_DOWN, Callback_MSR_high_press_down);
 1368              		.loc 1 218 0
 1369 00c8 2046     		mov	r0, r4
 1370 00ca 2946     		mov	r1, r5
 1371 00cc 0022     		movs	r2, #0
 1372 00ce FFF7FEFF 		bl	button_init
 1373              	.LVL87:
 219:.\key.c       ****     button_start (&MSR_high);
 1374              		.loc 1 219 0
 1375 00d2 2046     		mov	r0, r4
 1376 00d4 0021     		movs	r1, #0
 1377 00d6 4A4A     		ldr	r2, .L121+60
 1378 00d8 FFF7FEFF 		bl	button_attach
 1379              	.LVL88:
 220:.\key.c       ****     
 1380              		.loc 1 220 0
 1381 00dc 2046     		mov	r0, r4
 1382 00de FFF7FEFF 		bl	button_start
 1383              	.LVL89:
 225:.\key.c       ****     button_attach(&SWITCH_1_low, PRESS_UP, Callback_SWITCH_1_low_press_up);
 1384              		.loc 1 225 0
 1385 00e2 484C     		ldr	r4, .L121+64
 1386 00e4 484D     		ldr	r5, .L121+68
 1387 00e6 2046     		mov	r0, r4
 1388 00e8 2946     		mov	r1, r5
 1389 00ea 0022     		movs	r2, #0
 1390 00ec FFF7FEFF 		bl	button_init
 1391              	.LVL90:
 226:.\key.c       ****     button_start (&SWITCH_1_low);
 1392              		.loc 1 226 0
 1393 00f0 2046     		mov	r0, r4
 1394 00f2 0121     		movs	r1, #1
 1395 00f4 454A     		ldr	r2, .L121+72
 1396 00f6 FFF7FEFF 		bl	button_attach
 1397              	.LVL91:
 227:.\key.c       ****     button_init  (&SWITCH_1_low, SWITCH_1_LOW_Read, 0);
 1398              		.loc 1 227 0
 1399 00fa 2046     		mov	r0, r4
 1400 00fc FFF7FEFF 		bl	button_start
 1401              	.LVL92:
 228:.\key.c       ****     button_attach(&SWITCH_1_low, PRESS_DOWN, Callback_SWITCH_1_low_press_down);
 1402              		.loc 1 228 0
ARM GAS  C:\Users\PANXIA~1\AppData\Local\Temp\ccp0BCPD.s 			page 35


 1403 0100 2046     		mov	r0, r4
 1404 0102 2946     		mov	r1, r5
 1405 0104 0022     		movs	r2, #0
 1406 0106 FFF7FEFF 		bl	button_init
 1407              	.LVL93:
 229:.\key.c       ****     button_start (&SWITCH_1_low);
 1408              		.loc 1 229 0
 1409 010a 2046     		mov	r0, r4
 1410 010c 0021     		movs	r1, #0
 1411 010e 404A     		ldr	r2, .L121+76
 1412 0110 FFF7FEFF 		bl	button_attach
 1413              	.LVL94:
 230:.\key.c       ****     
 1414              		.loc 1 230 0
 1415 0114 2046     		mov	r0, r4
 1416 0116 FFF7FEFF 		bl	button_start
 1417              	.LVL95:
 232:.\key.c       ****     button_attach(&SWITCH_1_high, PRESS_UP, Callback_SWITCH_1_high_press_up);
 1418              		.loc 1 232 0
 1419 011a 3E4C     		ldr	r4, .L121+80
 1420 011c 3E4D     		ldr	r5, .L121+84
 1421 011e 2046     		mov	r0, r4
 1422 0120 2946     		mov	r1, r5
 1423 0122 0022     		movs	r2, #0
 1424 0124 FFF7FEFF 		bl	button_init
 1425              	.LVL96:
 233:.\key.c       ****     button_start (&SWITCH_1_high);
 1426              		.loc 1 233 0
 1427 0128 2046     		mov	r0, r4
 1428 012a 0121     		movs	r1, #1
 1429 012c 3B4A     		ldr	r2, .L121+88
 1430 012e FFF7FEFF 		bl	button_attach
 1431              	.LVL97:
 234:.\key.c       ****     button_init  (&SWITCH_1_high, SWITCH_1_HIGH_Read, 0);
 1432              		.loc 1 234 0
 1433 0132 2046     		mov	r0, r4
 1434 0134 FFF7FEFF 		bl	button_start
 1435              	.LVL98:
 235:.\key.c       ****     button_attach(&SWITCH_1_high, PRESS_DOWN, Callback_SWITCH_1_high_press_down);
 1436              		.loc 1 235 0
 1437 0138 2046     		mov	r0, r4
 1438 013a 2946     		mov	r1, r5
 1439 013c 0022     		movs	r2, #0
 1440 013e FFF7FEFF 		bl	button_init
 1441              	.LVL99:
 236:.\key.c       ****     button_start (&SWITCH_1_high);
 1442              		.loc 1 236 0
 1443 0142 2046     		mov	r0, r4
 1444 0144 0021     		movs	r1, #0
 1445 0146 364A     		ldr	r2, .L121+92
 1446 0148 FFF7FEFF 		bl	button_attach
 1447              	.LVL100:
 237:.\key.c       **** //SWITCH_2
 1448              		.loc 1 237 0
 1449 014c 2046     		mov	r0, r4
 1450 014e FFF7FEFF 		bl	button_start
 1451              	.LVL101:
ARM GAS  C:\Users\PANXIA~1\AppData\Local\Temp\ccp0BCPD.s 			page 36


 239:.\key.c       ****     button_attach(&SWITCH_2_low, PRESS_UP, Callback_SWITCH_2_low_press_up);
 1452              		.loc 1 239 0
 1453 0152 344C     		ldr	r4, .L121+96
 1454 0154 344D     		ldr	r5, .L121+100
 1455 0156 2046     		mov	r0, r4
 1456 0158 2946     		mov	r1, r5
 1457 015a 0022     		movs	r2, #0
 1458 015c FFF7FEFF 		bl	button_init
 1459              	.LVL102:
 240:.\key.c       ****     button_start (&SWITCH_2_low);
 1460              		.loc 1 240 0
 1461 0160 2046     		mov	r0, r4
 1462 0162 0121     		movs	r1, #1
 1463 0164 314A     		ldr	r2, .L121+104
 1464 0166 FFF7FEFF 		bl	button_attach
 1465              	.LVL103:
 241:.\key.c       ****     button_init  (&SWITCH_2_low, SWITCH_2_LOW_Read, 0);
 1466              		.loc 1 241 0
 1467 016a 2046     		mov	r0, r4
 1468 016c FFF7FEFF 		bl	button_start
 1469              	.LVL104:
 242:.\key.c       ****     button_attach(&SWITCH_2_low, PRESS_DOWN, Callback_SWITCH_2_low_press_down);
 1470              		.loc 1 242 0
 1471 0170 2046     		mov	r0, r4
 1472 0172 2946     		mov	r1, r5
 1473 0174 0022     		movs	r2, #0
 1474 0176 FFF7FEFF 		bl	button_init
 1475              	.LVL105:
 243:.\key.c       ****     button_start (&SWITCH_2_low);
 1476              		.loc 1 243 0
 1477 017a 2046     		mov	r0, r4
 1478 017c 0021     		movs	r1, #0
 1479 017e 2C4A     		ldr	r2, .L121+108
 1480 0180 FFF7FEFF 		bl	button_attach
 1481              	.LVL106:
 244:.\key.c       ****     
 1482              		.loc 1 244 0
 1483 0184 2046     		mov	r0, r4
 1484 0186 FFF7FEFF 		bl	button_start
 1485              	.LVL107:
 246:.\key.c       ****     button_attach(&SWITCH_2_high, PRESS_UP, Callback_SWITCH_2_high_press_up);
 1486              		.loc 1 246 0
 1487 018a 2A4C     		ldr	r4, .L121+112
 1488 018c 2A4D     		ldr	r5, .L121+116
 1489 018e 2046     		mov	r0, r4
 1490 0190 2946     		mov	r1, r5
 1491 0192 0022     		movs	r2, #0
 1492 0194 FFF7FEFF 		bl	button_init
 1493              	.LVL108:
 247:.\key.c       ****     button_start (&SWITCH_2_high);
 1494              		.loc 1 247 0
 1495 0198 2046     		mov	r0, r4
 1496 019a 0121     		movs	r1, #1
 1497 019c 274A     		ldr	r2, .L121+120
 1498 019e FFF7FEFF 		bl	button_attach
 1499              	.LVL109:
 248:.\key.c       ****     button_init  (&SWITCH_2_high, SWITCH_2_HIGH_Read, 0);
ARM GAS  C:\Users\PANXIA~1\AppData\Local\Temp\ccp0BCPD.s 			page 37


 1500              		.loc 1 248 0
 1501 01a2 2046     		mov	r0, r4
 1502 01a4 FFF7FEFF 		bl	button_start
 1503              	.LVL110:
 249:.\key.c       ****     button_attach(&SWITCH_2_high, PRESS_DOWN, Callback_SWITCH_2_high_press_down);
 1504              		.loc 1 249 0
 1505 01a8 2046     		mov	r0, r4
 1506 01aa 2946     		mov	r1, r5
 1507 01ac 0022     		movs	r2, #0
 1508 01ae FFF7FEFF 		bl	button_init
 1509              	.LVL111:
 250:.\key.c       ****     button_start (&SWITCH_2_high);    
 1510              		.loc 1 250 0
 1511 01b2 2046     		mov	r0, r4
 1512 01b4 0021     		movs	r1, #0
 1513 01b6 224A     		ldr	r2, .L121+124
 1514 01b8 FFF7FEFF 		bl	button_attach
 1515              	.LVL112:
 251:.\key.c       ****     ////1
 1516              		.loc 1 251 0
 1517 01bc 2046     		mov	r0, r4
 1518 01be FFF7FEFF 		bl	button_start
 1519              	.LVL113:
 1520 01c2 38BD     		pop	{r3, r4, r5, pc}
 1521              	.L122:
 1522              		.align	2
 1523              	.L121:
 1524 01c4 00000000 		.word	STR1
 1525 01c8 00000000 		.word	STR1_Read
 1526 01cc 00000000 		.word	Callback_STR1_press_up
 1527 01d0 00000000 		.word	Callback_STR1_down
 1528 01d4 00000000 		.word	STR2
 1529 01d8 00000000 		.word	STR2_Read
 1530 01dc 00000000 		.word	Callback_STR2_press_up
 1531 01e0 00000000 		.word	Callback_STR2_press_down
 1532 01e4 00000000 		.word	MSR_low
 1533 01e8 00000000 		.word	MSR_LOW_Read
 1534 01ec 00000000 		.word	Callback_MSR_low_press_up
 1535 01f0 00000000 		.word	Callback_MSR_low_press_down
 1536 01f4 00000000 		.word	MSR_high
 1537 01f8 00000000 		.word	MSR_HIGH_Read
 1538 01fc 00000000 		.word	Callback_MSR_high_press_up
 1539 0200 00000000 		.word	Callback_MSR_high_press_down
 1540 0204 00000000 		.word	SWITCH_1_low
 1541 0208 00000000 		.word	SWITCH_1_LOW_Read
 1542 020c 00000000 		.word	Callback_SWITCH_1_low_press_up
 1543 0210 00000000 		.word	Callback_SWITCH_1_low_press_down
 1544 0214 00000000 		.word	SWITCH_1_high
 1545 0218 00000000 		.word	SWITCH_1_HIGH_Read
 1546 021c 00000000 		.word	Callback_SWITCH_1_high_press_up
 1547 0220 00000000 		.word	Callback_SWITCH_1_high_press_down
 1548 0224 00000000 		.word	SWITCH_2_low
 1549 0228 00000000 		.word	SWITCH_2_LOW_Read
 1550 022c 00000000 		.word	Callback_SWITCH_2_low_press_up
 1551 0230 00000000 		.word	Callback_SWITCH_2_low_press_down
 1552 0234 00000000 		.word	SWITCH_2_high
 1553 0238 00000000 		.word	SWITCH_2_HIGH_Read
ARM GAS  C:\Users\PANXIA~1\AppData\Local\Temp\ccp0BCPD.s 			page 38


 1554 023c 00000000 		.word	Callback_SWITCH_2_high_press_up
 1555 0240 00000000 		.word	Callback_SWITCH_2_high_press_down
 1556              		.cfi_endproc
 1557              	.LFE91:
 1558              		.size	init_button, .-init_button
 1559              		.section	.text.button_stop,"ax",%progbits
 1560              		.align	2
 1561              		.global	button_stop
 1562              		.thumb
 1563              		.thumb_func
 1564              		.type	button_stop, %function
 1565              	button_stop:
 1566              	.LFB97:
 466:.\key.c       **** 
 467:.\key.c       **** void button_stop(struct Button* handle)
 468:.\key.c       **** {
 1567              		.loc 1 468 0
 1568              		.cfi_startproc
 1569              		@ args = 0, pretend = 0, frame = 0
 1570              		@ frame_needed = 0, uses_anonymous_args = 0
 1571              		@ link register save eliminated.
 1572              	.LVL114:
 469:.\key.c       **** 	struct Button** curr;
 470:.\key.c       **** 	for(curr = &head_handle; *curr; ) {
 1573              		.loc 1 470 0
 1574 0000 064A     		ldr	r2, .L128
 1575 0002 06E0     		b	.L124
 1576              	.LVL115:
 1577              	.L127:
 1578              	.LBB2:
 471:.\key.c       **** 		struct Button* entry = *curr;
 472:.\key.c       **** 		if (entry == handle) {
 1579              		.loc 1 472 0
 1580 0004 8342     		cmp	r3, r0
 1581 0006 02D1     		bne	.L125
 473:.\key.c       **** 			*curr = entry->next;
 1582              		.loc 1 473 0
 1583 0008 5B6A     		ldr	r3, [r3, #36]
 1584              	.LVL116:
 1585 000a 1360     		str	r3, [r2]
 1586              	.LVL117:
 1587 000c 01E0     		b	.L124
 1588              	.LVL118:
 1589              	.L125:
 474:.\key.c       **** //			free(entry);
 475:.\key.c       **** 		} else
 476:.\key.c       **** 			curr = &entry->next;
 1590              		.loc 1 476 0
 1591 000e 03F12402 		add	r2, r3, #36
 1592              	.LVL119:
 1593              	.L124:
 1594              	.LBE2:
 470:.\key.c       **** 		struct Button* entry = *curr;
 1595              		.loc 1 470 0 discriminator 1
 1596 0012 1368     		ldr	r3, [r2]
 1597 0014 002B     		cmp	r3, #0
 1598 0016 F5D1     		bne	.L127
ARM GAS  C:\Users\PANXIA~1\AppData\Local\Temp\ccp0BCPD.s 			page 39


 477:.\key.c       **** 	}
 478:.\key.c       **** }
 1599              		.loc 1 478 0
 1600 0018 7047     		bx	lr
 1601              	.L129:
 1602 001a 00BF     		.align	2
 1603              	.L128:
 1604 001c 00000000 		.word	.LANCHOR0
 1605              		.cfi_endproc
 1606              	.LFE97:
 1607              		.size	button_stop, .-button_stop
 1608              		.section	.text.button_ticks,"ax",%progbits
 1609              		.align	2
 1610              		.global	button_ticks
 1611              		.thumb
 1612              		.thumb_func
 1613              		.type	button_ticks, %function
 1614              	button_ticks:
 1615              	.LFB98:
 479:.\key.c       **** 
 480:.\key.c       **** 
 481:.\key.c       **** void button_ticks()
 482:.\key.c       **** {
 1616              		.loc 1 482 0
 1617              		.cfi_startproc
 1618              		@ args = 0, pretend = 0, frame = 0
 1619              		@ frame_needed = 0, uses_anonymous_args = 0
 1620 0000 10B5     		push	{r4, lr}
 1621              		.cfi_def_cfa_offset 8
 1622              		.cfi_offset 4, -8
 1623              		.cfi_offset 14, -4
 483:.\key.c       **** 	struct Button* target;
 484:.\key.c       **** 	for(target=head_handle; target; target=target->next) {
 1624              		.loc 1 484 0
 1625 0002 054B     		ldr	r3, .L134
 1626 0004 1C68     		ldr	r4, [r3]
 1627              	.LVL120:
 1628 0006 03E0     		b	.L131
 1629              	.L132:
 485:.\key.c       **** 		button_handler(target);
 1630              		.loc 1 485 0 discriminator 3
 1631 0008 2046     		mov	r0, r4
 1632 000a FFF7FEFF 		bl	button_handler
 1633              	.LVL121:
 484:.\key.c       **** 		button_handler(target);
 1634              		.loc 1 484 0 discriminator 3
 1635 000e 646A     		ldr	r4, [r4, #36]
 1636              	.LVL122:
 1637              	.L131:
 484:.\key.c       **** 		button_handler(target);
 1638              		.loc 1 484 0 is_stmt 0 discriminator 1
 1639 0010 002C     		cmp	r4, #0
 1640 0012 F9D1     		bne	.L132
 486:.\key.c       **** 	}
 487:.\key.c       **** }
 1641              		.loc 1 487 0 is_stmt 1
 1642 0014 10BD     		pop	{r4, pc}
ARM GAS  C:\Users\PANXIA~1\AppData\Local\Temp\ccp0BCPD.s 			page 40


 1643              	.LVL123:
 1644              	.L135:
 1645 0016 00BF     		.align	2
 1646              	.L134:
 1647 0018 00000000 		.word	.LANCHOR0
 1648              		.cfi_endproc
 1649              	.LFE98:
 1650              		.size	button_ticks, .-button_ticks
 1651              		.global	Car_speed_base
 1652              		.comm	temp1,1,1
 1653              		.comm	temp,1,1
 1654              		.comm	SWITCH_2_low,40,4
 1655              		.comm	SWITCH_2_high,40,4
 1656              		.comm	SWITCH_1_low,40,4
 1657              		.comm	SWITCH_1_high,40,4
 1658              		.comm	MSR_low,40,4
 1659              		.comm	MSR_high,40,4
 1660              		.comm	STR2,40,4
 1661              		.comm	STR1,40,4
 1662              		.comm	led_start,40,4
 1663              		.comm	key_speed_high,40,4
 1664              		.comm	key_speed_low,40,4
 1665              		.comm	PTZ_right,40,4
 1666              		.comm	PTZ_left,40,4
 1667              		.comm	PTZ_down,40,4
 1668              		.comm	PTZ_up,40,4
 1669              		.comm	key_right,40,4
 1670              		.comm	key_left,40,4
 1671              		.comm	key_down,40,4
 1672              		.comm	key_up,40,4
 1673              		.global	led_send
 1674              		.comm	g_Control,4,4
 1675              		.comm	g_Car,30,4
 1676              		.data
 1677              		.align	1
 1678              		.type	Car_speed_base, %object
 1679              		.size	Car_speed_base, 2
 1680              	Car_speed_base:
 1681 0000 E803     		.short	1000
 1682              		.bss
 1683              		.align	2
 1684              		.set	.LANCHOR0,. + 0
 1685              		.type	head_handle, %object
 1686              		.size	head_handle, 4
 1687              	head_handle:
 1688 0000 00000000 		.space	4
 1689              		.type	led_send, %object
 1690              		.size	led_send, 4
 1691              	led_send:
 1692 0004 00000000 		.space	4
 1693              		.text
 1694              	.Letext0:
 1695              		.file 2 "d:\\program files (x86)\\cypress\\psoc creator\\3.3\\psoc creator\\import\\gnu\\arm\\4.9.
 1696              		.file 3 "d:\\program files (x86)\\cypress\\psoc creator\\3.3\\psoc creator\\import\\gnu\\arm\\4.9.
 1697              		.file 4 ".\\key.h"
 1698              		.file 5 "Generated_Source\\PSoC5/cytypes.h"
 1699              		.file 6 ".\\control.h"
ARM GAS  C:\Users\PANXIA~1\AppData\Local\Temp\ccp0BCPD.s 			page 41


 1700              		.file 7 "Generated_Source\\PSoC5/core_cm3.h"
 1701              		.file 8 ".\\Transfer.h"