ARM GAS  C:\Users\PANXIA~1\AppData\Local\Temp\cc3MTsJs.s 			page 1


   1              		.syntax unified
   2              		.cpu cortex-m3
   3              		.fpu softvfp
   4              		.eabi_attribute 20, 1
   5              		.eabi_attribute 21, 1
   6              		.eabi_attribute 23, 3
   7              		.eabi_attribute 24, 1
   8              		.eabi_attribute 25, 1
   9              		.eabi_attribute 26, 1
  10              		.eabi_attribute 30, 1
  11              		.eabi_attribute 34, 1
  12              		.eabi_attribute 18, 4
  13              		.thumb
  14              		.file	"main.c"
  15              		.text
  16              	.Ltext0:
  17              		.cfi_sections	.debug_frame
  18              		.section	.text.main,"ax",%progbits
  19              		.align	2
  20              		.global	main
  21              		.thumb
  22              		.thumb_func
  23              		.type	main, %function
  24              	main:
  25              	.LFB63:
  26              		.file 1 ".\\main.c"
   1:.\main.c      **** /* ========================================
   2:.\main.c      ****  *
   3:.\main.c      ****  * Copyright YOUR COMPANY, THE YEAR
   4:.\main.c      ****  * All Rights Reserved
   5:.\main.c      ****  * UNPUBLISHED, LICENSED SOFTWARE.
   6:.\main.c      ****  *
   7:.\main.c      ****  * CONFIDENTIAL AND PROPRIETARY INFORMATION
   8:.\main.c      ****  * WHICH IS THE PROPERTY OF your company.
   9:.\main.c      ****  *
  10:.\main.c      ****  * ========================================
  11:.\main.c      **** */
  12:.\main.c      **** #include <project.h>
  13:.\main.c      **** #include "ADC_V.h"
  14:.\main.c      **** #include "Transfer.h"
  15:.\main.c      **** #include "key.h"
  16:.\main.c      **** #include "buzzer.h"
  17:.\main.c      **** 
  18:.\main.c      **** 
  19:.\main.c      **** 
  20:.\main.c      **** extern uint8 time_5ms_state;
  21:.\main.c      **** extern uint8 time_1s_state;
  22:.\main.c      **** extern uint8 time_100ms_state;
  23:.\main.c      **** uint16 adc_b;
  24:.\main.c      **** void put_num(uint16 n);
  25:.\main.c      **** int main()
  26:.\main.c      **** {
  27              		.loc 1 26 0
  28              		.cfi_startproc
  29              		@ args = 0, pretend = 0, frame = 0
  30              		@ frame_needed = 0, uses_anonymous_args = 0
  31 0000 38B5     		push	{r3, r4, r5, lr}
ARM GAS  C:\Users\PANXIA~1\AppData\Local\Temp\cc3MTsJs.s 			page 2


  32              		.cfi_def_cfa_offset 16
  33              		.cfi_offset 3, -16
  34              		.cfi_offset 4, -12
  35              		.cfi_offset 5, -8
  36              		.cfi_offset 14, -4
  27:.\main.c      ****     int i;
  28:.\main.c      ****     CyGlobalIntEnable; /* Enable global interrupts. */
  37              		.loc 1 28 0
  38              	@ 28 ".\main.c" 1
  39 0002 62B6     		CPSIE   i
  40              	@ 0 "" 2
  29:.\main.c      ****   
  30:.\main.c      ****     /* Place your initialization/startup code here (e.g. MyInst_Start()) */
  31:.\main.c      ****     EEPROM_Start();
  41              		.loc 1 31 0
  42              		.thumb
  43 0004 FFF7FEFF 		bl	EEPROM_Start
  44              	.LVL0:
  32:.\main.c      ****     init_button();
  45              		.loc 1 32 0
  46 0008 FFF7FEFF 		bl	init_button
  47              	.LVL1:
  33:.\main.c      ****    
  34:.\main.c      ****     UART_net_Init();
  48              		.loc 1 34 0
  49 000c FFF7FEFF 		bl	UART_net_Init
  50              	.LVL2:
  35:.\main.c      ****     
  36:.\main.c      ****     UART_net_Start();
  51              		.loc 1 36 0
  52 0010 FFF7FEFF 		bl	UART_net_Start
  53              	.LVL3:
  37:.\main.c      ****  
  38:.\main.c      ****     Timer_1_Start(); 
  54              		.loc 1 38 0
  55 0014 FFF7FEFF 		bl	Timer_1_Start
  56              	.LVL4:
  39:.\main.c      ****     isr_timer_Start();
  57              		.loc 1 39 0
  58 0018 FFF7FEFF 		bl	isr_timer_Start
  59              	.LVL5:
  40:.\main.c      ****     
  41:.\main.c      ****     isr_rx_net_Start();
  60              		.loc 1 41 0
  61 001c FFF7FEFF 		bl	isr_rx_net_Start
  62              	.LVL6:
  42:.\main.c      ****     Monitor_Battery_Init();
  63              		.loc 1 42 0
  64 0020 FFF7FEFF 		bl	Monitor_Battery_Init
  65              	.LVL7:
  43:.\main.c      **** 
  44:.\main.c      ****     CyDelay(3000);
  66              		.loc 1 44 0
  67 0024 40F6B830 		movw	r0, #3000
  68 0028 FFF7FEFF 		bl	CyDelay
  69              	.LVL8:
  45:.\main.c      ****     
ARM GAS  C:\Users\PANXIA~1\AppData\Local\Temp\cc3MTsJs.s 			page 3


  46:.\main.c      ****     WARNING_BLUE_Write(1);                      
  70              		.loc 1 46 0
  71 002c 0120     		movs	r0, #1
  72 002e FFF7FEFF 		bl	WARNING_BLUE_Write
  73              	.LVL9:
  47:.\main.c      ****     WARNING_GREEN_Write(1);
  74              		.loc 1 47 0
  75 0032 0120     		movs	r0, #1
  76 0034 FFF7FEFF 		bl	WARNING_GREEN_Write
  77              	.LVL10:
  48:.\main.c      ****     WARNING_RED_Write(1);
  78              		.loc 1 48 0
  79 0038 0120     		movs	r0, #1
  80 003a FFF7FEFF 		bl	WARNING_RED_Write
  81              	.LVL11:
  49:.\main.c      ****     for(i = 0;i<8;i++)//读取按键
  82              		.loc 1 49 0
  83 003e 0024     		movs	r4, #0
  84 0040 11E0     		b	.L2
  85              	.LVL12:
  86              	.L5:
  50:.\main.c      ****     {
  51:.\main.c      ****         if(i<4)
  87              		.loc 1 51 0
  88 0042 032C     		cmp	r4, #3
  89 0044 05DC     		bgt	.L3
  52:.\main.c      ****             g_Car.Car_dir[i]   = EEPROM_ReadByte(i);
  90              		.loc 1 52 0
  91 0046 A0B2     		uxth	r0, r4
  92 0048 FFF7FEFF 		bl	EEPROM_ReadByte
  93              	.LVL13:
  94 004c 1F4B     		ldr	r3, .L12
  95 004e 1855     		strb	r0, [r3, r4]
  96 0050 08E0     		b	.L4
  97              	.L3:
  53:.\main.c      ****         else if(i<8)
  98              		.loc 1 53 0
  99 0052 072C     		cmp	r4, #7
 100 0054 06DC     		bgt	.L4
  54:.\main.c      ****             g_Car.Ptz_dir[i-4] = EEPROM_ReadByte(i);
 101              		.loc 1 54 0
 102 0056 251F     		subs	r5, r4, #4
 103 0058 A0B2     		uxth	r0, r4
 104 005a FFF7FEFF 		bl	EEPROM_ReadByte
 105              	.LVL14:
 106 005e 1B4B     		ldr	r3, .L12
 107 0060 1D44     		add	r5, r5, r3
 108 0062 6872     		strb	r0, [r5, #9]
 109              	.L4:
  49:.\main.c      ****     {
 110              		.loc 1 49 0 discriminator 2
 111 0064 0134     		adds	r4, r4, #1
 112              	.LVL15:
 113              	.L2:
  49:.\main.c      ****     {
 114              		.loc 1 49 0 is_stmt 0 discriminator 1
 115 0066 072C     		cmp	r4, #7
ARM GAS  C:\Users\PANXIA~1\AppData\Local\Temp\cc3MTsJs.s 			page 4


 116 0068 EBDD     		ble	.L5
  55:.\main.c      ****     }
  56:.\main.c      ****     g_Car.Car_dir[8] = 8;
 117              		.loc 1 56 0 is_stmt 1
 118 006a 184B     		ldr	r3, .L12
 119 006c 0822     		movs	r2, #8
 120 006e 1A72     		strb	r2, [r3, #8]
  57:.\main.c      ****     g_Car.Ptz_dir[8] = 8;
 121              		.loc 1 57 0
 122 0070 5A74     		strb	r2, [r3, #17]
 123              	.L9:
  58:.\main.c      ****     for(;;)
  59:.\main.c      ****     {
  60:.\main.c      ****       /* Place your application code here. */
  61:.\main.c      ****    
  62:.\main.c      ****     
  63:.\main.c      ****         if( time_1s_state == 1)
 124              		.loc 1 63 0
 125 0072 174B     		ldr	r3, .L12+4
 126 0074 1B78     		ldrb	r3, [r3]	@ zero_extendqisi2
 127 0076 012B     		cmp	r3, #1
 128 0078 0BD1     		bne	.L6
  64:.\main.c      ****         {
  65:.\main.c      ****           
  66:.\main.c      ****             adc_b = g_Control.Battery*3300/4096;
 129              		.loc 1 66 0
 130 007a 164B     		ldr	r3, .L12+8
 131 007c 1A88     		ldrh	r2, [r3]
 132 007e 40F6E443 		movw	r3, #3300
 133 0082 03FB02F3 		mul	r3, r3, r2
 134 0086 1B13     		asrs	r3, r3, #12
 135 0088 134A     		ldr	r2, .L12+12
 136 008a 1380     		strh	r3, [r2]	@ movhi
  67:.\main.c      ****          //  printf("|CAR_X:%d | CAR_Y:%d | PTZ_X:%d | PTZ_Y:%d | LED1:%d | LED2:%d | LED3:%d | SPE
  68:.\main.c      ****             
  69:.\main.c      ****             time_1s_state = 0;
 137              		.loc 1 69 0
 138 008c 0022     		movs	r2, #0
 139 008e 104B     		ldr	r3, .L12+4
 140 0090 1A70     		strb	r2, [r3]
 141              	.L6:
  70:.\main.c      ****             
  71:.\main.c      ****         }
  72:.\main.c      ****         if(time_100ms_state == 1)
 142              		.loc 1 72 0
 143 0092 124B     		ldr	r3, .L12+16
 144 0094 1B78     		ldrb	r3, [r3]	@ zero_extendqisi2
 145 0096 012B     		cmp	r3, #1
 146 0098 0CD1     		bne	.L8
  73:.\main.c      ****         {
  74:.\main.c      ****             Cal_Battery_loop();
 147              		.loc 1 74 0
 148 009a FFF7FEFF 		bl	Cal_Battery_loop
 149              	.LVL16:
  75:.\main.c      ****             Cal_car_dir();
 150              		.loc 1 75 0
 151 009e FFF7FEFF 		bl	Cal_car_dir
ARM GAS  C:\Users\PANXIA~1\AppData\Local\Temp\cc3MTsJs.s 			page 5


 152              	.LVL17:
  76:.\main.c      ****             Cal_ptz_dir();
 153              		.loc 1 76 0
 154 00a2 FFF7FEFF 		bl	Cal_ptz_dir
 155              	.LVL18:
  77:.\main.c      ****             Cal_Speed_value();
 156              		.loc 1 77 0
 157 00a6 FFF7FEFF 		bl	Cal_Speed_value
 158              	.LVL19:
  78:.\main.c      ****             Cal_LED_value();
 159              		.loc 1 78 0
 160 00aa FFF7FEFF 		bl	Cal_LED_value
 161              	.LVL20:
  79:.\main.c      ****             time_100ms_state = 0;
 162              		.loc 1 79 0
 163 00ae 0022     		movs	r2, #0
 164 00b0 0A4B     		ldr	r3, .L12+16
 165 00b2 1A70     		strb	r2, [r3]
 166              	.L8:
  80:.\main.c      ****         }
  81:.\main.c      ****         if(time_5ms_state == 1)
 167              		.loc 1 81 0
 168 00b4 0A4B     		ldr	r3, .L12+20
 169 00b6 1B78     		ldrb	r3, [r3]	@ zero_extendqisi2
 170 00b8 012B     		cmp	r3, #1
 171 00ba DAD1     		bne	.L9
  82:.\main.c      ****         {
  83:.\main.c      ****             button_ticks();
 172              		.loc 1 83 0
 173 00bc FFF7FEFF 		bl	button_ticks
 174              	.LVL21:
  84:.\main.c      ****             time_5ms_state = 0;
 175              		.loc 1 84 0
 176 00c0 0022     		movs	r2, #0
 177 00c2 074B     		ldr	r3, .L12+20
 178 00c4 1A70     		strb	r2, [r3]
  85:.\main.c      ****             DT_Data_Exchange();
 179              		.loc 1 85 0
 180 00c6 FFF7FEFF 		bl	DT_Data_Exchange
 181              	.LVL22:
 182 00ca D2E7     		b	.L9
 183              	.L13:
 184              		.align	2
 185              	.L12:
 186 00cc 00000000 		.word	g_Car
 187 00d0 00000000 		.word	time_1s_state
 188 00d4 00000000 		.word	g_Control
 189 00d8 00000000 		.word	adc_b
 190 00dc 00000000 		.word	time_100ms_state
 191 00e0 00000000 		.word	time_5ms_state
 192              		.cfi_endproc
 193              	.LFE63:
 194              		.size	main, .-main
 195              		.section	.text._write,"ax",%progbits
 196              		.align	2
 197              		.global	_write
 198              		.thumb
ARM GAS  C:\Users\PANXIA~1\AppData\Local\Temp\cc3MTsJs.s 			page 6


 199              		.thumb_func
 200              		.type	_write, %function
 201              	_write:
 202              	.LFB64:
  86:.\main.c      ****         }
  87:.\main.c      ****     }
  88:.\main.c      **** }
  89:.\main.c      **** 
  90:.\main.c      **** int _write(int file, char *ptr, int len)
  91:.\main.c      **** {
 203              		.loc 1 91 0
 204              		.cfi_startproc
 205              		@ args = 0, pretend = 0, frame = 0
 206              		@ frame_needed = 0, uses_anonymous_args = 0
 207              	.LVL23:
 208 0000 70B5     		push	{r4, r5, r6, lr}
 209              		.cfi_def_cfa_offset 16
 210              		.cfi_offset 4, -16
 211              		.cfi_offset 5, -12
 212              		.cfi_offset 6, -8
 213              		.cfi_offset 14, -4
 214 0002 1646     		mov	r6, r2
 215              	.LVL24:
  92:.\main.c      ****     int i;
  93:.\main.c      ****     file = file;
  94:.\main.c      ****     for (i = 0; i < len; i++)
 216              		.loc 1 94 0
 217 0004 0024     		movs	r4, #0
 218 0006 05E0     		b	.L15
 219              	.LVL25:
 220              	.L16:
  95:.\main.c      ****     {
  96:.\main.c      ****         UART_net_PutChar(*ptr++);
 221              		.loc 1 96 0 discriminator 3
 222 0008 4D1C     		adds	r5, r1, #1
 223              	.LVL26:
 224 000a 0878     		ldrb	r0, [r1]	@ zero_extendqisi2
 225 000c FFF7FEFF 		bl	UART_net_PutChar
 226              	.LVL27:
  94:.\main.c      ****     {
 227              		.loc 1 94 0 discriminator 3
 228 0010 0134     		adds	r4, r4, #1
 229              	.LVL28:
 230              		.loc 1 96 0 discriminator 3
 231 0012 2946     		mov	r1, r5
 232              	.LVL29:
 233              	.L15:
  94:.\main.c      ****     {
 234              		.loc 1 94 0 discriminator 1
 235 0014 B442     		cmp	r4, r6
 236 0016 F7DB     		blt	.L16
  97:.\main.c      ****     }
  98:.\main.c      ****     return len;
  99:.\main.c      **** }
 237              		.loc 1 99 0
 238 0018 3046     		mov	r0, r6
 239 001a 70BD     		pop	{r4, r5, r6, pc}
ARM GAS  C:\Users\PANXIA~1\AppData\Local\Temp\cc3MTsJs.s 			page 7


 240              		.cfi_endproc
 241              	.LFE64:
 242              		.size	_write, .-_write
 243              		.comm	adc_b,2,2
 244              		.comm	g_Control,4,4
 245              		.comm	g_Car,30,4
 246              		.comm	CAR_SPEED_V,2,2
 247              		.comm	LED_3_V,2,2
 248              		.comm	LED_2_V,2,2
 249              		.comm	LED_1_V,2,2
 250              		.comm	PTZ_Y_V,2,2
 251              		.comm	PTZ_X_V,2,2
 252              		.comm	CAR_Y_V,2,2
 253              		.comm	CAR_X_V,2,2
 254              		.comm	B_V,2,2
 255              		.text
 256              	.Letext0:
 257              		.file 2 "d:\\program files (x86)\\cypress\\psoc creator\\3.3\\psoc creator\\import\\gnu\\arm\\4.9.
 258              		.file 3 "d:\\program files (x86)\\cypress\\psoc creator\\3.3\\psoc creator\\import\\gnu\\arm\\4.9.
 259              		.file 4 "Generated_Source\\PSoC5/cytypes.h"
 260              		.file 5 ".\\control.h"
 261              		.file 6 "Generated_Source\\PSoC5/core_cm3.h"
 262              		.file 7 ".\\ADC_V.h"
 263              		.file 8 "Generated_Source\\PSoC5/EEPROM.h"
 264              		.file 9 ".\\key.h"
 265              		.file 10 "Generated_Source\\PSoC5/UART_net.h"
 266              		.file 11 "Generated_Source\\PSoC5/Timer_1.h"
 267              		.file 12 "Generated_Source\\PSoC5/isr_timer.h"
 268              		.file 13 "Generated_Source\\PSoC5/isr_rx_net.h"
 269              		.file 14 "Generated_Source\\PSoC5/CyLib.h"
 270              		.file 15 "Generated_Source\\PSoC5/WARNING_BLUE.h"
 271              		.file 16 "Generated_Source\\PSoC5/WARNING_GREEN.h"
 272              		.file 17 "Generated_Source\\PSoC5/WARNING_RED.h"
 273              		.file 18 ".\\Transfer.h"