ARM GAS  C:\Users\pxc\AppData\Local\Temp\ccwzKeIq.s 			page 1


   1              		.syntax unified
   2              		.cpu cortex-m3
   3              		.fpu softvfp
   4              		.eabi_attribute 20, 1
   5              		.eabi_attribute 21, 1
   6              		.eabi_attribute 23, 3
   7              		.eabi_attribute 24, 1
   8              		.eabi_attribute 25, 1
   9              		.eabi_attribute 26, 1
  10              		.eabi_attribute 30, 1
  11              		.eabi_attribute 34, 1
  12              		.eabi_attribute 18, 4
  13              		.thumb
  14              		.file	"USBUART_1.c"
  15              		.text
  16              	.Ltext0:
  17              		.cfi_sections	.debug_frame
  18              		.section	.text.USBUART_1_Init,"ax",%progbits
  19              		.align	2
  20              		.global	USBUART_1_Init
  21              		.thumb
  22              		.thumb_func
  23              		.type	USBUART_1_Init, %function
  24              	USBUART_1_Init:
  25              	.LFB1:
  26              		.file 1 ".\\Generated_Source\\PSoC5\\USBUART_1.c"
   1:.\Generated_Source\PSoC5/USBUART_1.c **** /*******************************************************************************
   2:.\Generated_Source\PSoC5/USBUART_1.c **** * File Name: USBUART_1.c
   3:.\Generated_Source\PSoC5/USBUART_1.c **** * Version 2.80
   4:.\Generated_Source\PSoC5/USBUART_1.c **** *
   5:.\Generated_Source\PSoC5/USBUART_1.c **** * Description:
   6:.\Generated_Source\PSoC5/USBUART_1.c **** *  API for USBFS Component.
   7:.\Generated_Source\PSoC5/USBUART_1.c **** *
   8:.\Generated_Source\PSoC5/USBUART_1.c **** * Note:
   9:.\Generated_Source\PSoC5/USBUART_1.c **** *  Many of the functions use endpoint number.  RAM arrays are sized with 9
  10:.\Generated_Source\PSoC5/USBUART_1.c **** *  elements so they are indexed directly by epNumber.  The SIE and ARB
  11:.\Generated_Source\PSoC5/USBUART_1.c **** *  registers are indexed by variations of epNumber - 1.
  12:.\Generated_Source\PSoC5/USBUART_1.c **** *
  13:.\Generated_Source\PSoC5/USBUART_1.c **** ********************************************************************************
  14:.\Generated_Source\PSoC5/USBUART_1.c **** * Copyright 2008-2014, Cypress Semiconductor Corporation.  All rights reserved.
  15:.\Generated_Source\PSoC5/USBUART_1.c **** * You may use this file only in accordance with the license, terms, conditions,
  16:.\Generated_Source\PSoC5/USBUART_1.c **** * disclaimers, and limitations in the end user license agreement accompanying
  17:.\Generated_Source\PSoC5/USBUART_1.c **** * the software package with which this file was provided.
  18:.\Generated_Source\PSoC5/USBUART_1.c **** *******************************************************************************/
  19:.\Generated_Source\PSoC5/USBUART_1.c **** 
  20:.\Generated_Source\PSoC5/USBUART_1.c **** #include <CyDmac.h>
  21:.\Generated_Source\PSoC5/USBUART_1.c **** #include "USBUART_1.h"
  22:.\Generated_Source\PSoC5/USBUART_1.c **** #include "USBUART_1_pvt.h"
  23:.\Generated_Source\PSoC5/USBUART_1.c **** #include "USBUART_1_hid.h"
  24:.\Generated_Source\PSoC5/USBUART_1.c **** #if(USBUART_1_DMA1_REMOVE == 0u)
  25:.\Generated_Source\PSoC5/USBUART_1.c ****     #include "USBUART_1_ep1_dma.h"
  26:.\Generated_Source\PSoC5/USBUART_1.c **** #endif   /*  USBUART_1_DMA1_REMOVE */
  27:.\Generated_Source\PSoC5/USBUART_1.c **** #if(USBUART_1_DMA2_REMOVE == 0u)
  28:.\Generated_Source\PSoC5/USBUART_1.c ****     #include "USBUART_1_ep2_dma.h"
  29:.\Generated_Source\PSoC5/USBUART_1.c **** #endif   /*  USBUART_1_DMA2_REMOVE */
  30:.\Generated_Source\PSoC5/USBUART_1.c **** #if(USBUART_1_DMA3_REMOVE == 0u)
  31:.\Generated_Source\PSoC5/USBUART_1.c ****     #include "USBUART_1_ep3_dma.h"
ARM GAS  C:\Users\pxc\AppData\Local\Temp\ccwzKeIq.s 			page 2


  32:.\Generated_Source\PSoC5/USBUART_1.c **** #endif   /*  USBUART_1_DMA3_REMOVE */
  33:.\Generated_Source\PSoC5/USBUART_1.c **** #if(USBUART_1_DMA4_REMOVE == 0u)
  34:.\Generated_Source\PSoC5/USBUART_1.c ****     #include "USBUART_1_ep4_dma.h"
  35:.\Generated_Source\PSoC5/USBUART_1.c **** #endif   /*  USBUART_1_DMA4_REMOVE */
  36:.\Generated_Source\PSoC5/USBUART_1.c **** #if(USBUART_1_DMA5_REMOVE == 0u)
  37:.\Generated_Source\PSoC5/USBUART_1.c ****     #include "USBUART_1_ep5_dma.h"
  38:.\Generated_Source\PSoC5/USBUART_1.c **** #endif   /*  USBUART_1_DMA5_REMOVE */
  39:.\Generated_Source\PSoC5/USBUART_1.c **** #if(USBUART_1_DMA6_REMOVE == 0u)
  40:.\Generated_Source\PSoC5/USBUART_1.c ****     #include "USBUART_1_ep6_dma.h"
  41:.\Generated_Source\PSoC5/USBUART_1.c **** #endif   /*  USBUART_1_DMA6_REMOVE */
  42:.\Generated_Source\PSoC5/USBUART_1.c **** #if(USBUART_1_DMA7_REMOVE == 0u)
  43:.\Generated_Source\PSoC5/USBUART_1.c ****     #include "USBUART_1_ep7_dma.h"
  44:.\Generated_Source\PSoC5/USBUART_1.c **** #endif   /*  USBUART_1_DMA7_REMOVE */
  45:.\Generated_Source\PSoC5/USBUART_1.c **** #if(USBUART_1_DMA8_REMOVE == 0u)
  46:.\Generated_Source\PSoC5/USBUART_1.c ****     #include "USBUART_1_ep8_dma.h"
  47:.\Generated_Source\PSoC5/USBUART_1.c **** #endif   /*  USBUART_1_DMA8_REMOVE */
  48:.\Generated_Source\PSoC5/USBUART_1.c **** #if((USBUART_1_EP_MM == USBUART_1__EP_DMAAUTO) && (USBUART_1_EP_DMA_AUTO_OPT == 0u))
  49:.\Generated_Source\PSoC5/USBUART_1.c ****     #include "USBUART_1_EP_DMA_Done_isr.h"
  50:.\Generated_Source\PSoC5/USBUART_1.c ****     #include "USBUART_1_EP8_DMA_Done_SR.h"
  51:.\Generated_Source\PSoC5/USBUART_1.c ****     #include "USBUART_1_EP17_DMA_Done_SR.h"
  52:.\Generated_Source\PSoC5/USBUART_1.c **** #endif /* ((USBUART_1_EP_MM == USBUART_1__EP_DMAAUTO) && (USBUART_1_EP_DMA_AUTO_OPT == 0u)) */
  53:.\Generated_Source\PSoC5/USBUART_1.c **** 
  54:.\Generated_Source\PSoC5/USBUART_1.c **** 
  55:.\Generated_Source\PSoC5/USBUART_1.c **** /***************************************
  56:.\Generated_Source\PSoC5/USBUART_1.c **** * Global data allocation
  57:.\Generated_Source\PSoC5/USBUART_1.c **** ***************************************/
  58:.\Generated_Source\PSoC5/USBUART_1.c **** 
  59:.\Generated_Source\PSoC5/USBUART_1.c **** uint8 USBUART_1_initVar = 0u;
  60:.\Generated_Source\PSoC5/USBUART_1.c **** #if(USBUART_1_EP_MM != USBUART_1__EP_MANUAL)
  61:.\Generated_Source\PSoC5/USBUART_1.c ****     uint8 USBUART_1_DmaChan[USBUART_1_MAX_EP];
  62:.\Generated_Source\PSoC5/USBUART_1.c ****     uint8 USBUART_1_DmaTd[USBUART_1_MAX_EP];
  63:.\Generated_Source\PSoC5/USBUART_1.c **** #endif /*  USBUART_1_EP_MM */
  64:.\Generated_Source\PSoC5/USBUART_1.c **** #if((USBUART_1_EP_MM == USBUART_1__EP_DMAAUTO) && (USBUART_1_EP_DMA_AUTO_OPT == 0u))
  65:.\Generated_Source\PSoC5/USBUART_1.c ****     static uint8 clearInDataRdyStatus = USBUART_1_ARB_EPX_CFG_DEFAULT;
  66:.\Generated_Source\PSoC5/USBUART_1.c ****     uint8 USBUART_1_DmaNextTd[USBUART_1_MAX_EP];
  67:.\Generated_Source\PSoC5/USBUART_1.c ****     const uint8 USBUART_1_epX_TD_TERMOUT_EN[USBUART_1_MAX_EP] =
  68:.\Generated_Source\PSoC5/USBUART_1.c ****     {   0u,
  69:.\Generated_Source\PSoC5/USBUART_1.c ****         USBUART_1_ep1_TD_TERMOUT_EN,
  70:.\Generated_Source\PSoC5/USBUART_1.c ****         USBUART_1_ep2_TD_TERMOUT_EN,
  71:.\Generated_Source\PSoC5/USBUART_1.c ****         USBUART_1_ep3_TD_TERMOUT_EN,
  72:.\Generated_Source\PSoC5/USBUART_1.c ****         USBUART_1_ep4_TD_TERMOUT_EN,
  73:.\Generated_Source\PSoC5/USBUART_1.c ****         USBUART_1_ep5_TD_TERMOUT_EN,
  74:.\Generated_Source\PSoC5/USBUART_1.c ****         USBUART_1_ep6_TD_TERMOUT_EN,
  75:.\Generated_Source\PSoC5/USBUART_1.c ****         USBUART_1_ep7_TD_TERMOUT_EN,
  76:.\Generated_Source\PSoC5/USBUART_1.c ****         USBUART_1_ep8_TD_TERMOUT_EN
  77:.\Generated_Source\PSoC5/USBUART_1.c ****     };
  78:.\Generated_Source\PSoC5/USBUART_1.c ****     volatile uint16 USBUART_1_inLength[USBUART_1_MAX_EP];
  79:.\Generated_Source\PSoC5/USBUART_1.c ****     const uint8 *USBUART_1_inDataPointer[USBUART_1_MAX_EP];
  80:.\Generated_Source\PSoC5/USBUART_1.c ****     volatile uint8 USBUART_1_inBufFull[USBUART_1_MAX_EP];
  81:.\Generated_Source\PSoC5/USBUART_1.c **** #endif /* ((USBUART_1_EP_MM == USBUART_1__EP_DMAAUTO) && (USBUART_1_EP_DMA_AUTO_OPT == 0u)) */
  82:.\Generated_Source\PSoC5/USBUART_1.c **** 
  83:.\Generated_Source\PSoC5/USBUART_1.c **** 
  84:.\Generated_Source\PSoC5/USBUART_1.c **** /*******************************************************************************
  85:.\Generated_Source\PSoC5/USBUART_1.c **** * Function Name: USBUART_1_Start
  86:.\Generated_Source\PSoC5/USBUART_1.c **** ********************************************************************************
  87:.\Generated_Source\PSoC5/USBUART_1.c **** *
  88:.\Generated_Source\PSoC5/USBUART_1.c **** * Summary:
ARM GAS  C:\Users\pxc\AppData\Local\Temp\ccwzKeIq.s 			page 3


  89:.\Generated_Source\PSoC5/USBUART_1.c **** *  This function initialize the USB SIE, arbiter and the
  90:.\Generated_Source\PSoC5/USBUART_1.c **** *  endpoint APIs, including setting the D+ Pullup
  91:.\Generated_Source\PSoC5/USBUART_1.c **** *
  92:.\Generated_Source\PSoC5/USBUART_1.c **** * Parameters:
  93:.\Generated_Source\PSoC5/USBUART_1.c **** *  device: Contains the device number of the desired device descriptor.
  94:.\Generated_Source\PSoC5/USBUART_1.c **** *          The device number can be found in the Device Descriptor Tab of
  95:.\Generated_Source\PSoC5/USBUART_1.c **** *          "Configure" dialog, under the settings of desired Device Descriptor,
  96:.\Generated_Source\PSoC5/USBUART_1.c **** *          in the "Device Number" field.
  97:.\Generated_Source\PSoC5/USBUART_1.c **** *  mode: The operating voltage. This determines whether the voltage regulator
  98:.\Generated_Source\PSoC5/USBUART_1.c **** *        is enabled for 5V operation or if pass through mode is used for 3.3V
  99:.\Generated_Source\PSoC5/USBUART_1.c **** *        operation. Symbolic names and their associated values are given in the
 100:.\Generated_Source\PSoC5/USBUART_1.c **** *        following table.
 101:.\Generated_Source\PSoC5/USBUART_1.c **** *       USBUART_1_3V_OPERATION - Disable voltage regulator and pass-thru
 102:.\Generated_Source\PSoC5/USBUART_1.c **** *                                       Vcc for pull-up
 103:.\Generated_Source\PSoC5/USBUART_1.c **** *       USBUART_1_5V_OPERATION - Enable voltage regulator and use
 104:.\Generated_Source\PSoC5/USBUART_1.c **** *                                       regulator for pull-up
 105:.\Generated_Source\PSoC5/USBUART_1.c **** *       USBUART_1_DWR_VDDD_OPERATION - Enable or Disable voltage
 106:.\Generated_Source\PSoC5/USBUART_1.c **** *                         regulator depend on Vddd Voltage configuration in DWR.
 107:.\Generated_Source\PSoC5/USBUART_1.c **** *
 108:.\Generated_Source\PSoC5/USBUART_1.c **** * Return:
 109:.\Generated_Source\PSoC5/USBUART_1.c **** *   None.
 110:.\Generated_Source\PSoC5/USBUART_1.c **** *
 111:.\Generated_Source\PSoC5/USBUART_1.c **** * Global variables:
 112:.\Generated_Source\PSoC5/USBUART_1.c **** *  The USBUART_1_intiVar variable is used to indicate initial
 113:.\Generated_Source\PSoC5/USBUART_1.c **** *  configuration of this component. The variable is initialized to zero (0u)
 114:.\Generated_Source\PSoC5/USBUART_1.c **** *  and set to one (1u) the first time USBUART_1_Start() is called.
 115:.\Generated_Source\PSoC5/USBUART_1.c **** *  This allows for component Re-Start without unnecessary re-initialization
 116:.\Generated_Source\PSoC5/USBUART_1.c **** *  in all subsequent calls to the USBUART_1_Start() routine.
 117:.\Generated_Source\PSoC5/USBUART_1.c **** *  If re-initialization of the component is required the variable should be set
 118:.\Generated_Source\PSoC5/USBUART_1.c **** *  to zero before call of UART_Start() routine, or the user may call
 119:.\Generated_Source\PSoC5/USBUART_1.c **** *  USBUART_1_Init() and USBUART_1_InitComponent() as done
 120:.\Generated_Source\PSoC5/USBUART_1.c **** *  in the USBUART_1_Start() routine.
 121:.\Generated_Source\PSoC5/USBUART_1.c **** *
 122:.\Generated_Source\PSoC5/USBUART_1.c **** * Side Effects:
 123:.\Generated_Source\PSoC5/USBUART_1.c **** *   This function will reset all communication states to default.
 124:.\Generated_Source\PSoC5/USBUART_1.c **** *
 125:.\Generated_Source\PSoC5/USBUART_1.c **** * Reentrant:
 126:.\Generated_Source\PSoC5/USBUART_1.c **** *  No.
 127:.\Generated_Source\PSoC5/USBUART_1.c **** *
 128:.\Generated_Source\PSoC5/USBUART_1.c **** *******************************************************************************/
 129:.\Generated_Source\PSoC5/USBUART_1.c **** void USBUART_1_Start(uint8 device, uint8 mode) 
 130:.\Generated_Source\PSoC5/USBUART_1.c **** {
 131:.\Generated_Source\PSoC5/USBUART_1.c ****     /* If not Initialized then initialize all required hardware and software */
 132:.\Generated_Source\PSoC5/USBUART_1.c ****     if(USBUART_1_initVar == 0u)
 133:.\Generated_Source\PSoC5/USBUART_1.c ****     {
 134:.\Generated_Source\PSoC5/USBUART_1.c ****         USBUART_1_Init();
 135:.\Generated_Source\PSoC5/USBUART_1.c ****         USBUART_1_initVar = 1u;
 136:.\Generated_Source\PSoC5/USBUART_1.c ****     }
 137:.\Generated_Source\PSoC5/USBUART_1.c ****     USBUART_1_InitComponent(device, mode);
 138:.\Generated_Source\PSoC5/USBUART_1.c **** }
 139:.\Generated_Source\PSoC5/USBUART_1.c **** 
 140:.\Generated_Source\PSoC5/USBUART_1.c **** 
 141:.\Generated_Source\PSoC5/USBUART_1.c **** /*******************************************************************************
 142:.\Generated_Source\PSoC5/USBUART_1.c **** * Function Name: USBUART_1_Init
 143:.\Generated_Source\PSoC5/USBUART_1.c **** ********************************************************************************
 144:.\Generated_Source\PSoC5/USBUART_1.c **** *
 145:.\Generated_Source\PSoC5/USBUART_1.c **** * Summary:
ARM GAS  C:\Users\pxc\AppData\Local\Temp\ccwzKeIq.s 			page 4


 146:.\Generated_Source\PSoC5/USBUART_1.c **** *  Initialize component's hardware. Usually called in USBUART_1_Start().
 147:.\Generated_Source\PSoC5/USBUART_1.c **** *
 148:.\Generated_Source\PSoC5/USBUART_1.c **** * Parameters:
 149:.\Generated_Source\PSoC5/USBUART_1.c **** *  None.
 150:.\Generated_Source\PSoC5/USBUART_1.c **** *
 151:.\Generated_Source\PSoC5/USBUART_1.c **** * Return:
 152:.\Generated_Source\PSoC5/USBUART_1.c **** *  None.
 153:.\Generated_Source\PSoC5/USBUART_1.c **** *
 154:.\Generated_Source\PSoC5/USBUART_1.c **** * Reentrant:
 155:.\Generated_Source\PSoC5/USBUART_1.c **** *  No.
 156:.\Generated_Source\PSoC5/USBUART_1.c **** *
 157:.\Generated_Source\PSoC5/USBUART_1.c **** *******************************************************************************/
 158:.\Generated_Source\PSoC5/USBUART_1.c **** void USBUART_1_Init(void) 
 159:.\Generated_Source\PSoC5/USBUART_1.c **** {
  27              		.loc 1 159 0
  28              		.cfi_startproc
  29              		@ args = 0, pretend = 0, frame = 0
  30              		@ frame_needed = 0, uses_anonymous_args = 0
  31 0000 F8B5     		push	{r3, r4, r5, r6, r7, lr}
  32              		.cfi_def_cfa_offset 24
  33              		.cfi_offset 3, -24
  34              		.cfi_offset 4, -20
  35              		.cfi_offset 5, -16
  36              		.cfi_offset 6, -12
  37              		.cfi_offset 7, -8
  38              		.cfi_offset 14, -4
 160:.\Generated_Source\PSoC5/USBUART_1.c ****     uint8 enableInterrupts;
 161:.\Generated_Source\PSoC5/USBUART_1.c ****     #if(USBUART_1_EP_MM != USBUART_1__EP_MANUAL)
 162:.\Generated_Source\PSoC5/USBUART_1.c ****         uint16 i;
 163:.\Generated_Source\PSoC5/USBUART_1.c ****     #endif   /*  USBUART_1_EP_MM != USBUART_1__EP_MANUAL */
 164:.\Generated_Source\PSoC5/USBUART_1.c **** 
 165:.\Generated_Source\PSoC5/USBUART_1.c ****     enableInterrupts = CyEnterCriticalSection();
  39              		.loc 1 165 0
  40 0002 FFF7FEFF 		bl	CyEnterCriticalSection
  41              	.LVL0:
  42 0006 0746     		mov	r7, r0
  43              	.LVL1:
 166:.\Generated_Source\PSoC5/USBUART_1.c **** 
 167:.\Generated_Source\PSoC5/USBUART_1.c ****     /* Enable USB block  */
 168:.\Generated_Source\PSoC5/USBUART_1.c ****     USBUART_1_PM_ACT_CFG_REG |= USBUART_1_PM_ACT_EN_FSUSB;
  44              		.loc 1 168 0
  45 0008 3C4A     		ldr	r2, .L3
  46 000a 1378     		ldrb	r3, [r2]	@ zero_extendqisi2
  47 000c 43F00103 		orr	r3, r3, #1
  48 0010 1370     		strb	r3, [r2]
 169:.\Generated_Source\PSoC5/USBUART_1.c ****     /* Enable USB block for Standby Power Mode */
 170:.\Generated_Source\PSoC5/USBUART_1.c ****     USBUART_1_PM_STBY_CFG_REG |= USBUART_1_PM_STBY_EN_FSUSB;
  49              		.loc 1 170 0
  50 0012 1032     		adds	r2, r2, #16
  51 0014 1378     		ldrb	r3, [r2]	@ zero_extendqisi2
  52 0016 43F00103 		orr	r3, r3, #1
  53 001a 1370     		strb	r3, [r2]
 171:.\Generated_Source\PSoC5/USBUART_1.c **** 
 172:.\Generated_Source\PSoC5/USBUART_1.c ****     /* Enable core clock */
 173:.\Generated_Source\PSoC5/USBUART_1.c ****     USBUART_1_USB_CLK_EN_REG = USBUART_1_USB_CLK_ENABLE;
  54              		.loc 1 173 0
  55 001c 0126     		movs	r6, #1
ARM GAS  C:\Users\pxc\AppData\Local\Temp\ccwzKeIq.s 			page 5


  56 001e 384B     		ldr	r3, .L3+4
  57 0020 1E70     		strb	r6, [r3]
 174:.\Generated_Source\PSoC5/USBUART_1.c **** 
 175:.\Generated_Source\PSoC5/USBUART_1.c ****     USBUART_1_CR1_REG = USBUART_1_CR1_ENABLE_LOCK;
  58              		.loc 1 175 0
  59 0022 0225     		movs	r5, #2
  60 0024 943B     		subs	r3, r3, #148
  61 0026 1D70     		strb	r5, [r3]
 176:.\Generated_Source\PSoC5/USBUART_1.c **** 
 177:.\Generated_Source\PSoC5/USBUART_1.c ****     /* ENABLING USBIO PADS IN USB MODE FROM I/O MODE */
 178:.\Generated_Source\PSoC5/USBUART_1.c ****     /* Ensure USB transmit enable is low (USB_USBIO_CR0.ten). - Manual Transmission - Disabled */
 179:.\Generated_Source\PSoC5/USBUART_1.c ****     USBUART_1_USBIO_CR0_REG &= ((uint8)(~USBUART_1_USBIO_CR0_TEN));
  62              		.loc 1 179 0
  63 0028 02F5E252 		add	r2, r2, #7232
  64 002c 1B32     		adds	r2, r2, #27
  65 002e 1378     		ldrb	r3, [r2]	@ zero_extendqisi2
  66 0030 03F07F03 		and	r3, r3, #127
  67 0034 1370     		strb	r3, [r2]
 180:.\Generated_Source\PSoC5/USBUART_1.c ****     CyDelayUs(0u);  /*~50ns delay */
  68              		.loc 1 180 0
  69 0036 0020     		movs	r0, #0
  70 0038 FFF7FEFF 		bl	CyDelayUs
  71              	.LVL2:
 181:.\Generated_Source\PSoC5/USBUART_1.c ****     /* Disable the USBIO by asserting PM.USB_CR0.fsusbio_pd_n(Inverted)
 182:.\Generated_Source\PSoC5/USBUART_1.c ****     *  high. This will have been set low by the power manger out of reset.
 183:.\Generated_Source\PSoC5/USBUART_1.c ****     *  Also confirm USBIO pull-up disabled
 184:.\Generated_Source\PSoC5/USBUART_1.c ****     */
 185:.\Generated_Source\PSoC5/USBUART_1.c ****     USBUART_1_PM_USB_CR0_REG &= ((uint8)(~(USBUART_1_PM_USB_CR0_PD_N |
  72              		.loc 1 185 0
  73 003c 314C     		ldr	r4, .L3+8
  74 003e 2378     		ldrb	r3, [r4]	@ zero_extendqisi2
  75 0040 03F0F903 		and	r3, r3, #249
  76 0044 2370     		strb	r3, [r4]
 186:.\Generated_Source\PSoC5/USBUART_1.c ****                                                   USBUART_1_PM_USB_CR0_PD_PULLUP_N)));
 187:.\Generated_Source\PSoC5/USBUART_1.c **** 
 188:.\Generated_Source\PSoC5/USBUART_1.c ****     /* Select iomode to USB mode*/
 189:.\Generated_Source\PSoC5/USBUART_1.c ****     USBUART_1_USBIO_CR1_REG &= ((uint8)(~USBUART_1_USBIO_CR1_IOMODE));
  77              		.loc 1 189 0
  78 0046 304A     		ldr	r2, .L3+12
  79 0048 1378     		ldrb	r3, [r2]	@ zero_extendqisi2
  80 004a 03F0DF03 		and	r3, r3, #223
  81 004e 1370     		strb	r3, [r2]
 190:.\Generated_Source\PSoC5/USBUART_1.c **** 
 191:.\Generated_Source\PSoC5/USBUART_1.c ****     /* Enable the USBIO reference by setting PM.USB_CR0.fsusbio_ref_en.*/
 192:.\Generated_Source\PSoC5/USBUART_1.c ****     USBUART_1_PM_USB_CR0_REG |= USBUART_1_PM_USB_CR0_REF_EN;
  82              		.loc 1 192 0
  83 0050 2378     		ldrb	r3, [r4]	@ zero_extendqisi2
  84 0052 3343     		orrs	r3, r3, r6
  85 0054 2370     		strb	r3, [r4]
 193:.\Generated_Source\PSoC5/USBUART_1.c ****     /* The reference will be available 1 us after the regulator is enabled */
 194:.\Generated_Source\PSoC5/USBUART_1.c ****     CyDelayUs(1u);
  86              		.loc 1 194 0
  87 0056 3046     		mov	r0, r6
  88 0058 FFF7FEFF 		bl	CyDelayUs
  89              	.LVL3:
 195:.\Generated_Source\PSoC5/USBUART_1.c ****     /* OR 40us after power restored */
 196:.\Generated_Source\PSoC5/USBUART_1.c ****     CyDelayUs(40u);
ARM GAS  C:\Users\pxc\AppData\Local\Temp\ccwzKeIq.s 			page 6


  90              		.loc 1 196 0
  91 005c 2820     		movs	r0, #40
  92 005e FFF7FEFF 		bl	CyDelayUs
  93              	.LVL4:
 197:.\Generated_Source\PSoC5/USBUART_1.c ****     /* Ensure the single ended disable bits are low (PRT15.INP_DIS[7:6])(input receiver enabled). *
 198:.\Generated_Source\PSoC5/USBUART_1.c ****     USBUART_1_DM_INP_DIS_REG &= ((uint8)(~USBUART_1_DM_MASK));
  94              		.loc 1 198 0
  95 0062 2A4B     		ldr	r3, .L3+16
  96 0064 1A78     		ldrb	r2, [r3]	@ zero_extendqisi2
  97 0066 02F07F02 		and	r2, r2, #127
  98 006a 1A70     		strb	r2, [r3]
 199:.\Generated_Source\PSoC5/USBUART_1.c ****     USBUART_1_DP_INP_DIS_REG &= ((uint8)(~USBUART_1_DP_MASK));
  99              		.loc 1 199 0
 100 006c 1A78     		ldrb	r2, [r3]	@ zero_extendqisi2
 101 006e 02F0BF02 		and	r2, r2, #191
 102 0072 1A70     		strb	r2, [r3]
 200:.\Generated_Source\PSoC5/USBUART_1.c **** 
 201:.\Generated_Source\PSoC5/USBUART_1.c ****     /* Enable USBIO */
 202:.\Generated_Source\PSoC5/USBUART_1.c ****     USBUART_1_PM_USB_CR0_REG |= USBUART_1_PM_USB_CR0_PD_N;
 103              		.loc 1 202 0
 104 0074 2378     		ldrb	r3, [r4]	@ zero_extendqisi2
 105 0076 2B43     		orrs	r3, r3, r5
 106 0078 2370     		strb	r3, [r4]
 203:.\Generated_Source\PSoC5/USBUART_1.c ****     CyDelayUs(2u);
 107              		.loc 1 203 0
 108 007a 2846     		mov	r0, r5
 109 007c FFF7FEFF 		bl	CyDelayUs
 110              	.LVL5:
 204:.\Generated_Source\PSoC5/USBUART_1.c ****     /* Set the USBIO pull-up enable */
 205:.\Generated_Source\PSoC5/USBUART_1.c ****     USBUART_1_PM_USB_CR0_REG |= USBUART_1_PM_USB_CR0_PD_PULLUP_N;
 111              		.loc 1 205 0
 112 0080 2378     		ldrb	r3, [r4]	@ zero_extendqisi2
 113 0082 43F00403 		orr	r3, r3, #4
 114 0086 2370     		strb	r3, [r4]
 206:.\Generated_Source\PSoC5/USBUART_1.c **** 
 207:.\Generated_Source\PSoC5/USBUART_1.c ****     /* Write WAx */
 208:.\Generated_Source\PSoC5/USBUART_1.c ****     CY_SET_REG8(USBUART_1_ARB_RW1_WA_PTR,     0u);
 115              		.loc 1 208 0
 116 0088 0023     		movs	r3, #0
 117 008a 214A     		ldr	r2, .L3+20
 118 008c 1370     		strb	r3, [r2]
 209:.\Generated_Source\PSoC5/USBUART_1.c ****     CY_SET_REG8(USBUART_1_ARB_RW1_WA_MSB_PTR, 0u);
 119              		.loc 1 209 0
 120 008e 0132     		adds	r2, r2, #1
 121 0090 1370     		strb	r3, [r2]
 210:.\Generated_Source\PSoC5/USBUART_1.c **** 
 211:.\Generated_Source\PSoC5/USBUART_1.c ****     #if(USBUART_1_EP_MM != USBUART_1__EP_MANUAL)
 212:.\Generated_Source\PSoC5/USBUART_1.c ****         /* Init transfer descriptor. This will be used to detect the DMA state - initialized or not
 213:.\Generated_Source\PSoC5/USBUART_1.c ****         for (i = 0u; i < USBUART_1_MAX_EP; i++)
 214:.\Generated_Source\PSoC5/USBUART_1.c ****         {
 215:.\Generated_Source\PSoC5/USBUART_1.c ****             USBUART_1_DmaTd[i] = DMA_INVALID_TD;
 216:.\Generated_Source\PSoC5/USBUART_1.c ****             #if ((USBUART_1_EP_MM == USBUART_1__EP_DMAAUTO) && (USBUART_1_EP_DMA_AUTO_OPT == 0u))
 217:.\Generated_Source\PSoC5/USBUART_1.c ****                 USBUART_1_DmaNextTd[i] = DMA_INVALID_TD;
 218:.\Generated_Source\PSoC5/USBUART_1.c ****             #endif /* ((USBUART_1_EP_MM == USBUART_1__EP_DMAAUTO) && (USBUART_1_EP_DMA_AUTO_OPT == 
 219:.\Generated_Source\PSoC5/USBUART_1.c ****         }
 220:.\Generated_Source\PSoC5/USBUART_1.c ****     #endif   /*  USBUART_1_EP_MM != USBUART_1__EP_MANUAL */
 221:.\Generated_Source\PSoC5/USBUART_1.c **** 
ARM GAS  C:\Users\pxc\AppData\Local\Temp\ccwzKeIq.s 			page 7


 222:.\Generated_Source\PSoC5/USBUART_1.c ****     CyExitCriticalSection(enableInterrupts);
 122              		.loc 1 222 0
 123 0092 3846     		mov	r0, r7
 124 0094 FFF7FEFF 		bl	CyExitCriticalSection
 125              	.LVL6:
 223:.\Generated_Source\PSoC5/USBUART_1.c **** 
 224:.\Generated_Source\PSoC5/USBUART_1.c **** 
 225:.\Generated_Source\PSoC5/USBUART_1.c ****     /* Set the bus reset Interrupt. */
 226:.\Generated_Source\PSoC5/USBUART_1.c ****     (void) CyIntSetVector(USBUART_1_BUS_RESET_VECT_NUM,   &USBUART_1_BUS_RESET_ISR);
 126              		.loc 1 226 0
 127 0098 1720     		movs	r0, #23
 128 009a 1E49     		ldr	r1, .L3+24
 129 009c FFF7FEFF 		bl	CyIntSetVector
 130              	.LVL7:
 227:.\Generated_Source\PSoC5/USBUART_1.c ****     CyIntSetPriority(USBUART_1_BUS_RESET_VECT_NUM, USBUART_1_BUS_RESET_PRIOR);
 131              		.loc 1 227 0
 132 00a0 1720     		movs	r0, #23
 133 00a2 0721     		movs	r1, #7
 134 00a4 FFF7FEFF 		bl	CyIntSetPriority
 135              	.LVL8:
 228:.\Generated_Source\PSoC5/USBUART_1.c **** 
 229:.\Generated_Source\PSoC5/USBUART_1.c ****     /* Set the SOF Interrupt. */
 230:.\Generated_Source\PSoC5/USBUART_1.c ****     #if(USBUART_1_SOF_ISR_REMOVE == 0u)
 231:.\Generated_Source\PSoC5/USBUART_1.c ****         (void) CyIntSetVector(USBUART_1_SOF_VECT_NUM,   &USBUART_1_SOF_ISR);
 136              		.loc 1 231 0
 137 00a8 1520     		movs	r0, #21
 138 00aa 1B49     		ldr	r1, .L3+28
 139 00ac FFF7FEFF 		bl	CyIntSetVector
 140              	.LVL9:
 232:.\Generated_Source\PSoC5/USBUART_1.c ****         CyIntSetPriority(USBUART_1_SOF_VECT_NUM, USBUART_1_SOF_PRIOR);
 141              		.loc 1 232 0
 142 00b0 1520     		movs	r0, #21
 143 00b2 0721     		movs	r1, #7
 144 00b4 FFF7FEFF 		bl	CyIntSetPriority
 145              	.LVL10:
 233:.\Generated_Source\PSoC5/USBUART_1.c ****     #endif   /*  USBUART_1_SOF_ISR_REMOVE */
 234:.\Generated_Source\PSoC5/USBUART_1.c **** 
 235:.\Generated_Source\PSoC5/USBUART_1.c ****     /* Set the Control Endpoint Interrupt. */
 236:.\Generated_Source\PSoC5/USBUART_1.c ****     (void) CyIntSetVector(USBUART_1_EP_0_VECT_NUM,   &USBUART_1_EP_0_ISR);
 146              		.loc 1 236 0
 147 00b8 1820     		movs	r0, #24
 148 00ba 1849     		ldr	r1, .L3+32
 149 00bc FFF7FEFF 		bl	CyIntSetVector
 150              	.LVL11:
 237:.\Generated_Source\PSoC5/USBUART_1.c ****     CyIntSetPriority(USBUART_1_EP_0_VECT_NUM, USBUART_1_EP_0_PRIOR);
 151              		.loc 1 237 0
 152 00c0 1820     		movs	r0, #24
 153 00c2 0721     		movs	r1, #7
 154 00c4 FFF7FEFF 		bl	CyIntSetPriority
 155              	.LVL12:
 238:.\Generated_Source\PSoC5/USBUART_1.c **** 
 239:.\Generated_Source\PSoC5/USBUART_1.c ****     /* Set the Data Endpoint 1 Interrupt. */
 240:.\Generated_Source\PSoC5/USBUART_1.c ****     #if(USBUART_1_EP1_ISR_REMOVE == 0u)
 241:.\Generated_Source\PSoC5/USBUART_1.c ****         (void) CyIntSetVector(USBUART_1_EP_1_VECT_NUM,   &USBUART_1_EP_1_ISR);
 156              		.loc 1 241 0
 157 00c8 3046     		mov	r0, r6
 158 00ca 1549     		ldr	r1, .L3+36
ARM GAS  C:\Users\pxc\AppData\Local\Temp\ccwzKeIq.s 			page 8


 159 00cc FFF7FEFF 		bl	CyIntSetVector
 160              	.LVL13:
 242:.\Generated_Source\PSoC5/USBUART_1.c ****         CyIntSetPriority(USBUART_1_EP_1_VECT_NUM, USBUART_1_EP_1_PRIOR);
 161              		.loc 1 242 0
 162 00d0 3046     		mov	r0, r6
 163 00d2 0721     		movs	r1, #7
 164 00d4 FFF7FEFF 		bl	CyIntSetPriority
 165              	.LVL14:
 243:.\Generated_Source\PSoC5/USBUART_1.c ****     #endif   /*  USBUART_1_EP1_ISR_REMOVE */
 244:.\Generated_Source\PSoC5/USBUART_1.c **** 
 245:.\Generated_Source\PSoC5/USBUART_1.c ****     /* Set the Data Endpoint 2 Interrupt. */
 246:.\Generated_Source\PSoC5/USBUART_1.c ****     #if(USBUART_1_EP2_ISR_REMOVE == 0u)
 247:.\Generated_Source\PSoC5/USBUART_1.c ****         (void) CyIntSetVector(USBUART_1_EP_2_VECT_NUM,   &USBUART_1_EP_2_ISR);
 166              		.loc 1 247 0
 167 00d8 2846     		mov	r0, r5
 168 00da 1249     		ldr	r1, .L3+40
 169 00dc FFF7FEFF 		bl	CyIntSetVector
 170              	.LVL15:
 248:.\Generated_Source\PSoC5/USBUART_1.c ****         CyIntSetPriority(USBUART_1_EP_2_VECT_NUM, USBUART_1_EP_2_PRIOR);
 171              		.loc 1 248 0
 172 00e0 2846     		mov	r0, r5
 173 00e2 0721     		movs	r1, #7
 174 00e4 FFF7FEFF 		bl	CyIntSetPriority
 175              	.LVL16:
 249:.\Generated_Source\PSoC5/USBUART_1.c ****     #endif   /*  USBUART_1_EP2_ISR_REMOVE */
 250:.\Generated_Source\PSoC5/USBUART_1.c **** 
 251:.\Generated_Source\PSoC5/USBUART_1.c ****     /* Set the Data Endpoint 3 Interrupt. */
 252:.\Generated_Source\PSoC5/USBUART_1.c ****     #if(USBUART_1_EP3_ISR_REMOVE == 0u)
 253:.\Generated_Source\PSoC5/USBUART_1.c ****         (void) CyIntSetVector(USBUART_1_EP_3_VECT_NUM,   &USBUART_1_EP_3_ISR);
 176              		.loc 1 253 0
 177 00e8 0320     		movs	r0, #3
 178 00ea 0F49     		ldr	r1, .L3+44
 179 00ec FFF7FEFF 		bl	CyIntSetVector
 180              	.LVL17:
 254:.\Generated_Source\PSoC5/USBUART_1.c ****         CyIntSetPriority(USBUART_1_EP_3_VECT_NUM, USBUART_1_EP_3_PRIOR);
 181              		.loc 1 254 0
 182 00f0 0320     		movs	r0, #3
 183 00f2 0721     		movs	r1, #7
 184 00f4 FFF7FEFF 		bl	CyIntSetPriority
 185              	.LVL18:
 186 00f8 F8BD     		pop	{r3, r4, r5, r6, r7, pc}
 187              	.LVL19:
 188              	.L4:
 189 00fa 00BF     		.align	2
 190              	.L3:
 191 00fc A5430040 		.word	1073759141
 192 0100 9D600040 		.word	1073766557
 193 0104 94430040 		.word	1073759124
 194 0108 12600040 		.word	1073766418
 195 010c F8510040 		.word	1073762808
 196 0110 84600040 		.word	1073766532
 197 0114 00000000 		.word	USBUART_1_BUS_RESET_ISR
 198 0118 00000000 		.word	USBUART_1_SOF_ISR
 199 011c 00000000 		.word	USBUART_1_EP_0_ISR
 200 0120 00000000 		.word	USBUART_1_EP_1_ISR
 201 0124 00000000 		.word	USBUART_1_EP_2_ISR
 202 0128 00000000 		.word	USBUART_1_EP_3_ISR
ARM GAS  C:\Users\pxc\AppData\Local\Temp\ccwzKeIq.s 			page 9


 203              		.cfi_endproc
 204              	.LFE1:
 205              		.size	USBUART_1_Init, .-USBUART_1_Init
 206              		.section	.text.USBUART_1_InitComponent,"ax",%progbits
 207              		.align	2
 208              		.global	USBUART_1_InitComponent
 209              		.thumb
 210              		.thumb_func
 211              		.type	USBUART_1_InitComponent, %function
 212              	USBUART_1_InitComponent:
 213              	.LFB2:
 255:.\Generated_Source\PSoC5/USBUART_1.c ****     #endif   /*  USBUART_1_EP3_ISR_REMOVE */
 256:.\Generated_Source\PSoC5/USBUART_1.c **** 
 257:.\Generated_Source\PSoC5/USBUART_1.c ****     /* Set the Data Endpoint 4 Interrupt. */
 258:.\Generated_Source\PSoC5/USBUART_1.c ****     #if(USBUART_1_EP4_ISR_REMOVE == 0u)
 259:.\Generated_Source\PSoC5/USBUART_1.c ****         (void) CyIntSetVector(USBUART_1_EP_4_VECT_NUM,   &USBUART_1_EP_4_ISR);
 260:.\Generated_Source\PSoC5/USBUART_1.c ****         CyIntSetPriority(USBUART_1_EP_4_VECT_NUM, USBUART_1_EP_4_PRIOR);
 261:.\Generated_Source\PSoC5/USBUART_1.c ****     #endif   /*  USBUART_1_EP4_ISR_REMOVE */
 262:.\Generated_Source\PSoC5/USBUART_1.c **** 
 263:.\Generated_Source\PSoC5/USBUART_1.c ****     /* Set the Data Endpoint 5 Interrupt. */
 264:.\Generated_Source\PSoC5/USBUART_1.c ****     #if(USBUART_1_EP5_ISR_REMOVE == 0u)
 265:.\Generated_Source\PSoC5/USBUART_1.c ****         (void) CyIntSetVector(USBUART_1_EP_5_VECT_NUM,   &USBUART_1_EP_5_ISR);
 266:.\Generated_Source\PSoC5/USBUART_1.c ****         CyIntSetPriority(USBUART_1_EP_5_VECT_NUM, USBUART_1_EP_5_PRIOR);
 267:.\Generated_Source\PSoC5/USBUART_1.c ****     #endif   /*  USBUART_1_EP5_ISR_REMOVE */
 268:.\Generated_Source\PSoC5/USBUART_1.c **** 
 269:.\Generated_Source\PSoC5/USBUART_1.c ****     /* Set the Data Endpoint 6 Interrupt. */
 270:.\Generated_Source\PSoC5/USBUART_1.c ****     #if(USBUART_1_EP6_ISR_REMOVE == 0u)
 271:.\Generated_Source\PSoC5/USBUART_1.c ****         (void) CyIntSetVector(USBUART_1_EP_6_VECT_NUM,   &USBUART_1_EP_6_ISR);
 272:.\Generated_Source\PSoC5/USBUART_1.c ****         CyIntSetPriority(USBUART_1_EP_6_VECT_NUM, USBUART_1_EP_6_PRIOR);
 273:.\Generated_Source\PSoC5/USBUART_1.c ****     #endif   /*  USBUART_1_EP6_ISR_REMOVE */
 274:.\Generated_Source\PSoC5/USBUART_1.c **** 
 275:.\Generated_Source\PSoC5/USBUART_1.c ****      /* Set the Data Endpoint 7 Interrupt. */
 276:.\Generated_Source\PSoC5/USBUART_1.c ****     #if(USBUART_1_EP7_ISR_REMOVE == 0u)
 277:.\Generated_Source\PSoC5/USBUART_1.c ****         (void) CyIntSetVector(USBUART_1_EP_7_VECT_NUM,   &USBUART_1_EP_7_ISR);
 278:.\Generated_Source\PSoC5/USBUART_1.c ****         CyIntSetPriority(USBUART_1_EP_7_VECT_NUM, USBUART_1_EP_7_PRIOR);
 279:.\Generated_Source\PSoC5/USBUART_1.c ****     #endif   /*  USBUART_1_EP7_ISR_REMOVE */
 280:.\Generated_Source\PSoC5/USBUART_1.c **** 
 281:.\Generated_Source\PSoC5/USBUART_1.c ****     /* Set the Data Endpoint 8 Interrupt. */
 282:.\Generated_Source\PSoC5/USBUART_1.c ****     #if(USBUART_1_EP8_ISR_REMOVE == 0u)
 283:.\Generated_Source\PSoC5/USBUART_1.c ****         (void) CyIntSetVector(USBUART_1_EP_8_VECT_NUM,   &USBUART_1_EP_8_ISR);
 284:.\Generated_Source\PSoC5/USBUART_1.c ****         CyIntSetPriority(USBUART_1_EP_8_VECT_NUM, USBUART_1_EP_8_PRIOR);
 285:.\Generated_Source\PSoC5/USBUART_1.c ****     #endif   /*  USBUART_1_EP8_ISR_REMOVE */
 286:.\Generated_Source\PSoC5/USBUART_1.c **** 
 287:.\Generated_Source\PSoC5/USBUART_1.c ****     #if((USBUART_1_EP_MM != USBUART_1__EP_MANUAL) && (USBUART_1_ARB_ISR_REMOVE == 0u))
 288:.\Generated_Source\PSoC5/USBUART_1.c ****         /* Set the ARB Interrupt. */
 289:.\Generated_Source\PSoC5/USBUART_1.c ****         (void) CyIntSetVector(USBUART_1_ARB_VECT_NUM,   &USBUART_1_ARB_ISR);
 290:.\Generated_Source\PSoC5/USBUART_1.c ****         CyIntSetPriority(USBUART_1_ARB_VECT_NUM, USBUART_1_ARB_PRIOR);
 291:.\Generated_Source\PSoC5/USBUART_1.c ****     #endif   /*  USBUART_1_EP_MM != USBUART_1__EP_MANUAL */
 292:.\Generated_Source\PSoC5/USBUART_1.c **** 
 293:.\Generated_Source\PSoC5/USBUART_1.c **** }
 294:.\Generated_Source\PSoC5/USBUART_1.c **** 
 295:.\Generated_Source\PSoC5/USBUART_1.c **** 
 296:.\Generated_Source\PSoC5/USBUART_1.c **** /*******************************************************************************
 297:.\Generated_Source\PSoC5/USBUART_1.c **** * Function Name: USBUART_1_InitComponent
 298:.\Generated_Source\PSoC5/USBUART_1.c **** ********************************************************************************
 299:.\Generated_Source\PSoC5/USBUART_1.c **** *
 300:.\Generated_Source\PSoC5/USBUART_1.c **** * Summary:
ARM GAS  C:\Users\pxc\AppData\Local\Temp\ccwzKeIq.s 			page 10


 301:.\Generated_Source\PSoC5/USBUART_1.c **** *  Initialize the component, except for the HW which is done one time in
 302:.\Generated_Source\PSoC5/USBUART_1.c **** *  the Start function.  This function pulls up D+.
 303:.\Generated_Source\PSoC5/USBUART_1.c **** *
 304:.\Generated_Source\PSoC5/USBUART_1.c **** * Parameters:
 305:.\Generated_Source\PSoC5/USBUART_1.c **** *  device: Contains the device number of the desired device descriptor.
 306:.\Generated_Source\PSoC5/USBUART_1.c **** *          The device number can be found in the Device Descriptor Tab of
 307:.\Generated_Source\PSoC5/USBUART_1.c **** *          "Configure" dialog, under the settings of desired Device Descriptor,
 308:.\Generated_Source\PSoC5/USBUART_1.c **** *          in the "Device Number" field.
 309:.\Generated_Source\PSoC5/USBUART_1.c **** *  mode: The operating voltage. This determines whether the voltage regulator
 310:.\Generated_Source\PSoC5/USBUART_1.c **** *        is enabled for 5V operation or if pass through mode is used for 3.3V
 311:.\Generated_Source\PSoC5/USBUART_1.c **** *        operation. Symbolic names and their associated values are given in the
 312:.\Generated_Source\PSoC5/USBUART_1.c **** *        following table.
 313:.\Generated_Source\PSoC5/USBUART_1.c **** *       USBUART_1_3V_OPERATION - Disable voltage regulator and pass-thru
 314:.\Generated_Source\PSoC5/USBUART_1.c **** *                                       Vcc for pull-up
 315:.\Generated_Source\PSoC5/USBUART_1.c **** *       USBUART_1_5V_OPERATION - Enable voltage regulator and use
 316:.\Generated_Source\PSoC5/USBUART_1.c **** *                                       regulator for pull-up
 317:.\Generated_Source\PSoC5/USBUART_1.c **** *       USBUART_1_DWR_VDDD_OPERATION - Enable or Disable voltage
 318:.\Generated_Source\PSoC5/USBUART_1.c **** *                         regulator depend on Vddd Voltage configuration in DWR.
 319:.\Generated_Source\PSoC5/USBUART_1.c **** *
 320:.\Generated_Source\PSoC5/USBUART_1.c **** * Return:
 321:.\Generated_Source\PSoC5/USBUART_1.c **** *   None.
 322:.\Generated_Source\PSoC5/USBUART_1.c **** *
 323:.\Generated_Source\PSoC5/USBUART_1.c **** * Global variables:
 324:.\Generated_Source\PSoC5/USBUART_1.c **** *   USBUART_1_device: Contains the device number of the desired device
 325:.\Generated_Source\PSoC5/USBUART_1.c **** *       descriptor. The device number can be found in the Device Descriptor Tab
 326:.\Generated_Source\PSoC5/USBUART_1.c **** *       of "Configure" dialog, under the settings of desired Device Descriptor,
 327:.\Generated_Source\PSoC5/USBUART_1.c **** *       in the "Device Number" field.
 328:.\Generated_Source\PSoC5/USBUART_1.c **** *   USBUART_1_transferState: This variable used by the communication
 329:.\Generated_Source\PSoC5/USBUART_1.c **** *       functions to handle current transfer state. Initialized to
 330:.\Generated_Source\PSoC5/USBUART_1.c **** *       TRANS_STATE_IDLE in this API.
 331:.\Generated_Source\PSoC5/USBUART_1.c **** *   USBUART_1_configuration: Contains current configuration number
 332:.\Generated_Source\PSoC5/USBUART_1.c **** *       which is set by the Host using SET_CONFIGURATION request.
 333:.\Generated_Source\PSoC5/USBUART_1.c **** *       Initialized to zero in this API.
 334:.\Generated_Source\PSoC5/USBUART_1.c **** *   USBUART_1_deviceAddress: Contains current device address. This
 335:.\Generated_Source\PSoC5/USBUART_1.c **** *       variable is initialized to zero in this API. Host starts to communicate
 336:.\Generated_Source\PSoC5/USBUART_1.c **** *      to device with address 0 and then set it to whatever value using
 337:.\Generated_Source\PSoC5/USBUART_1.c **** *      SET_ADDRESS request.
 338:.\Generated_Source\PSoC5/USBUART_1.c **** *   USBUART_1_deviceStatus: initialized to 0.
 339:.\Generated_Source\PSoC5/USBUART_1.c **** *       This is two bit variable which contain power status in first bit
 340:.\Generated_Source\PSoC5/USBUART_1.c **** *       (DEVICE_STATUS_BUS_POWERED or DEVICE_STATUS_SELF_POWERED) and remote
 341:.\Generated_Source\PSoC5/USBUART_1.c **** *       wakeup status (DEVICE_STATUS_REMOTE_WAKEUP) in second bit.
 342:.\Generated_Source\PSoC5/USBUART_1.c **** *   USBUART_1_lastPacketSize initialized to 0;
 343:.\Generated_Source\PSoC5/USBUART_1.c **** *
 344:.\Generated_Source\PSoC5/USBUART_1.c **** * Reentrant:
 345:.\Generated_Source\PSoC5/USBUART_1.c **** *  No.
 346:.\Generated_Source\PSoC5/USBUART_1.c **** *
 347:.\Generated_Source\PSoC5/USBUART_1.c **** *******************************************************************************/
 348:.\Generated_Source\PSoC5/USBUART_1.c **** void USBUART_1_InitComponent(uint8 device, uint8 mode) 
 349:.\Generated_Source\PSoC5/USBUART_1.c **** {
 214              		.loc 1 349 0
 215              		.cfi_startproc
 216              		@ args = 0, pretend = 0, frame = 0
 217              		@ frame_needed = 0, uses_anonymous_args = 0
 218              	.LVL20:
 219 0000 08B5     		push	{r3, lr}
 220              		.cfi_def_cfa_offset 8
 221              		.cfi_offset 3, -8
ARM GAS  C:\Users\pxc\AppData\Local\Temp\ccwzKeIq.s 			page 11


 222              		.cfi_offset 14, -4
 350:.\Generated_Source\PSoC5/USBUART_1.c ****     /* Initialize _hidProtocol variable to comply with
 351:.\Generated_Source\PSoC5/USBUART_1.c ****     *  HID 7.2.6 Set_Protocol Request:
 352:.\Generated_Source\PSoC5/USBUART_1.c ****     *  "When initialized, all devices default to report protocol."
 353:.\Generated_Source\PSoC5/USBUART_1.c ****     */
 354:.\Generated_Source\PSoC5/USBUART_1.c ****     #if defined(USBUART_1_ENABLE_HID_CLASS)
 355:.\Generated_Source\PSoC5/USBUART_1.c ****         uint8 i;
 356:.\Generated_Source\PSoC5/USBUART_1.c **** 
 357:.\Generated_Source\PSoC5/USBUART_1.c ****         for (i = 0u; i < USBUART_1_MAX_INTERFACES_NUMBER; i++)
 358:.\Generated_Source\PSoC5/USBUART_1.c ****         {
 359:.\Generated_Source\PSoC5/USBUART_1.c ****             USBUART_1_hidProtocol[i] = USBUART_1_PROTOCOL_REPORT;
 360:.\Generated_Source\PSoC5/USBUART_1.c ****         }
 361:.\Generated_Source\PSoC5/USBUART_1.c ****     #endif /* USBUART_1_ENABLE_HID_CLASS */
 362:.\Generated_Source\PSoC5/USBUART_1.c **** 
 363:.\Generated_Source\PSoC5/USBUART_1.c ****     /* Enable Interrupts. */
 364:.\Generated_Source\PSoC5/USBUART_1.c ****     CyIntEnable(USBUART_1_BUS_RESET_VECT_NUM);
 223              		.loc 1 364 0
 224 0002 1D4B     		ldr	r3, .L12
 225 0004 4FF40002 		mov	r2, #8388608
 226 0008 1A60     		str	r2, [r3]
 365:.\Generated_Source\PSoC5/USBUART_1.c ****     CyIntEnable(USBUART_1_EP_0_VECT_NUM);
 227              		.loc 1 365 0
 228 000a 4FF08072 		mov	r2, #16777216
 229 000e 1A60     		str	r2, [r3]
 366:.\Generated_Source\PSoC5/USBUART_1.c ****     #if(USBUART_1_EP1_ISR_REMOVE == 0u)
 367:.\Generated_Source\PSoC5/USBUART_1.c ****         CyIntEnable(USBUART_1_EP_1_VECT_NUM);
 230              		.loc 1 367 0
 231 0010 0222     		movs	r2, #2
 232 0012 1A60     		str	r2, [r3]
 368:.\Generated_Source\PSoC5/USBUART_1.c ****     #endif   /*  USBUART_1_EP1_ISR_REMOVE */
 369:.\Generated_Source\PSoC5/USBUART_1.c ****     #if(USBUART_1_EP2_ISR_REMOVE == 0u)
 370:.\Generated_Source\PSoC5/USBUART_1.c ****         CyIntEnable(USBUART_1_EP_2_VECT_NUM);
 233              		.loc 1 370 0
 234 0014 0422     		movs	r2, #4
 235 0016 1A60     		str	r2, [r3]
 371:.\Generated_Source\PSoC5/USBUART_1.c ****     #endif   /*  USBUART_1_EP2_ISR_REMOVE */
 372:.\Generated_Source\PSoC5/USBUART_1.c ****     #if(USBUART_1_EP3_ISR_REMOVE == 0u)
 373:.\Generated_Source\PSoC5/USBUART_1.c ****         CyIntEnable(USBUART_1_EP_3_VECT_NUM);
 236              		.loc 1 373 0
 237 0018 0822     		movs	r2, #8
 238 001a 1A60     		str	r2, [r3]
 374:.\Generated_Source\PSoC5/USBUART_1.c ****     #endif   /*  USBUART_1_EP3_ISR_REMOVE */
 375:.\Generated_Source\PSoC5/USBUART_1.c ****     #if(USBUART_1_EP4_ISR_REMOVE == 0u)
 376:.\Generated_Source\PSoC5/USBUART_1.c ****         CyIntEnable(USBUART_1_EP_4_VECT_NUM);
 377:.\Generated_Source\PSoC5/USBUART_1.c ****     #endif   /*  USBUART_1_EP4_ISR_REMOVE */
 378:.\Generated_Source\PSoC5/USBUART_1.c ****     #if(USBUART_1_EP5_ISR_REMOVE == 0u)
 379:.\Generated_Source\PSoC5/USBUART_1.c ****         CyIntEnable(USBUART_1_EP_5_VECT_NUM);
 380:.\Generated_Source\PSoC5/USBUART_1.c ****     #endif   /*  USBUART_1_EP5_ISR_REMOVE */
 381:.\Generated_Source\PSoC5/USBUART_1.c ****     #if(USBUART_1_EP6_ISR_REMOVE == 0u)
 382:.\Generated_Source\PSoC5/USBUART_1.c ****         CyIntEnable(USBUART_1_EP_6_VECT_NUM);
 383:.\Generated_Source\PSoC5/USBUART_1.c ****     #endif   /*  USBUART_1_EP6_ISR_REMOVE */
 384:.\Generated_Source\PSoC5/USBUART_1.c ****     #if(USBUART_1_EP7_ISR_REMOVE == 0u)
 385:.\Generated_Source\PSoC5/USBUART_1.c ****         CyIntEnable(USBUART_1_EP_7_VECT_NUM);
 386:.\Generated_Source\PSoC5/USBUART_1.c ****     #endif   /*  USBUART_1_EP7_ISR_REMOVE */
 387:.\Generated_Source\PSoC5/USBUART_1.c ****     #if(USBUART_1_EP8_ISR_REMOVE == 0u)
 388:.\Generated_Source\PSoC5/USBUART_1.c ****         CyIntEnable(USBUART_1_EP_8_VECT_NUM);
 389:.\Generated_Source\PSoC5/USBUART_1.c ****     #endif   /*  USBUART_1_EP8_ISR_REMOVE */
ARM GAS  C:\Users\pxc\AppData\Local\Temp\ccwzKeIq.s 			page 12


 390:.\Generated_Source\PSoC5/USBUART_1.c ****     #if((USBUART_1_EP_MM != USBUART_1__EP_MANUAL) && (USBUART_1_ARB_ISR_REMOVE == 0u))
 391:.\Generated_Source\PSoC5/USBUART_1.c ****         /* usb arb interrupt enable */
 392:.\Generated_Source\PSoC5/USBUART_1.c ****         USBUART_1_ARB_INT_EN_REG = USBUART_1_ARB_INT_MASK;
 393:.\Generated_Source\PSoC5/USBUART_1.c ****         CyIntEnable(USBUART_1_ARB_VECT_NUM);
 394:.\Generated_Source\PSoC5/USBUART_1.c ****     #endif   /*  USBUART_1_EP_MM != USBUART_1__EP_MANUAL */
 395:.\Generated_Source\PSoC5/USBUART_1.c **** 
 396:.\Generated_Source\PSoC5/USBUART_1.c ****     /* Arbiter configuration for DMA transfers */
 397:.\Generated_Source\PSoC5/USBUART_1.c ****     #if(USBUART_1_EP_MM != USBUART_1__EP_MANUAL)
 398:.\Generated_Source\PSoC5/USBUART_1.c ****         #if(USBUART_1_EP_MM == USBUART_1__EP_DMAMANUAL)
 399:.\Generated_Source\PSoC5/USBUART_1.c ****             USBUART_1_ARB_CFG_REG = USBUART_1_ARB_CFG_MANUAL_DMA;
 400:.\Generated_Source\PSoC5/USBUART_1.c ****         #endif   /*  USBUART_1_EP_MM == USBUART_1__EP_DMAMANUAL */
 401:.\Generated_Source\PSoC5/USBUART_1.c ****         #if(USBUART_1_EP_MM == USBUART_1__EP_DMAAUTO)
 402:.\Generated_Source\PSoC5/USBUART_1.c ****             /*Set cfg cmplt this rises DMA request when the full configuration is done */
 403:.\Generated_Source\PSoC5/USBUART_1.c ****             USBUART_1_ARB_CFG_REG = USBUART_1_ARB_CFG_AUTO_DMA | USBUART_1_ARB_CFG_AUTO_MEM;
 404:.\Generated_Source\PSoC5/USBUART_1.c ****             #if(USBUART_1_EP_DMA_AUTO_OPT == 0u)
 405:.\Generated_Source\PSoC5/USBUART_1.c ****                 /* Init interrupt which handles verification of the successful DMA transaction */
 406:.\Generated_Source\PSoC5/USBUART_1.c ****                 USBUART_1_EP_DMA_Done_isr_StartEx(&USBUART_1_EP_DMA_DONE_ISR);
 407:.\Generated_Source\PSoC5/USBUART_1.c ****                 USBUART_1_EP17_DMA_Done_SR_InterruptEnable();
 408:.\Generated_Source\PSoC5/USBUART_1.c ****                 USBUART_1_EP8_DMA_Done_SR_InterruptEnable();
 409:.\Generated_Source\PSoC5/USBUART_1.c ****             #endif /* USBUART_1_EP_DMA_AUTO_OPT == 0u */
 410:.\Generated_Source\PSoC5/USBUART_1.c ****         #endif   /*  USBUART_1_EP_MM == USBUART_1__EP_DMAAUTO */
 411:.\Generated_Source\PSoC5/USBUART_1.c ****     #endif   /*  USBUART_1_EP_MM != USBUART_1__EP_MANUAL */
 412:.\Generated_Source\PSoC5/USBUART_1.c **** 
 413:.\Generated_Source\PSoC5/USBUART_1.c ****     USBUART_1_transferState = USBUART_1_TRANS_STATE_IDLE;
 239              		.loc 1 413 0
 240 001c 0022     		movs	r2, #0
 241 001e 174B     		ldr	r3, .L12+4
 242 0020 1A70     		strb	r2, [r3]
 414:.\Generated_Source\PSoC5/USBUART_1.c **** 
 415:.\Generated_Source\PSoC5/USBUART_1.c ****     /* USB Locking: Enabled, VRegulator: depend on mode or DWR Voltage configuration*/
 416:.\Generated_Source\PSoC5/USBUART_1.c ****     switch(mode)
 243              		.loc 1 416 0
 244 0022 11B1     		cbz	r1, .L7
 245 0024 0129     		cmp	r1, #1
 246 0026 04D0     		beq	.L8
 247 0028 07E0     		b	.L10
 248              	.L7:
 417:.\Generated_Source\PSoC5/USBUART_1.c ****     {
 418:.\Generated_Source\PSoC5/USBUART_1.c ****         case USBUART_1_3V_OPERATION:
 419:.\Generated_Source\PSoC5/USBUART_1.c ****             USBUART_1_CR1_REG = USBUART_1_CR1_ENABLE_LOCK;
 249              		.loc 1 419 0
 250 002a 0222     		movs	r2, #2
 251 002c 144B     		ldr	r3, .L12+8
 252 002e 1A70     		strb	r2, [r3]
 420:.\Generated_Source\PSoC5/USBUART_1.c ****             break;
 253              		.loc 1 420 0
 254 0030 06E0     		b	.L9
 255              	.L8:
 421:.\Generated_Source\PSoC5/USBUART_1.c ****         case USBUART_1_5V_OPERATION:
 422:.\Generated_Source\PSoC5/USBUART_1.c ****             USBUART_1_CR1_REG = USBUART_1_CR1_ENABLE_LOCK | USBUART_1_CR1_REG_ENABLE;
 256              		.loc 1 422 0
 257 0032 0322     		movs	r2, #3
 258 0034 124B     		ldr	r3, .L12+8
 259 0036 1A70     		strb	r2, [r3]
 423:.\Generated_Source\PSoC5/USBUART_1.c ****             break;
 260              		.loc 1 423 0
 261 0038 02E0     		b	.L9
ARM GAS  C:\Users\pxc\AppData\Local\Temp\ccwzKeIq.s 			page 13


 262              	.L10:
 424:.\Generated_Source\PSoC5/USBUART_1.c ****         default:   /*USBUART_1_DWR_VDDD_OPERATION */
 425:.\Generated_Source\PSoC5/USBUART_1.c ****             #if(USBUART_1_VDDD_MV < USBUART_1_3500MV)
 426:.\Generated_Source\PSoC5/USBUART_1.c ****                 USBUART_1_CR1_REG = USBUART_1_CR1_ENABLE_LOCK;
 427:.\Generated_Source\PSoC5/USBUART_1.c ****             #else
 428:.\Generated_Source\PSoC5/USBUART_1.c ****                 USBUART_1_CR1_REG = USBUART_1_CR1_ENABLE_LOCK | USBUART_1_CR1_REG_ENABLE;
 263              		.loc 1 428 0
 264 003a 0322     		movs	r2, #3
 265 003c 104B     		ldr	r3, .L12+8
 266 003e 1A70     		strb	r2, [r3]
 267              	.L9:
 429:.\Generated_Source\PSoC5/USBUART_1.c ****             #endif /*  USBUART_1_VDDD_MV < USBUART_1_3500MV */
 430:.\Generated_Source\PSoC5/USBUART_1.c ****             break;
 431:.\Generated_Source\PSoC5/USBUART_1.c ****     }
 432:.\Generated_Source\PSoC5/USBUART_1.c **** 
 433:.\Generated_Source\PSoC5/USBUART_1.c ****     /* Record the descriptor selection */
 434:.\Generated_Source\PSoC5/USBUART_1.c ****     USBUART_1_device = device;
 268              		.loc 1 434 0
 269 0040 104B     		ldr	r3, .L12+12
 270 0042 1870     		strb	r0, [r3]
 435:.\Generated_Source\PSoC5/USBUART_1.c **** 
 436:.\Generated_Source\PSoC5/USBUART_1.c ****     /* Clear all of the component data */
 437:.\Generated_Source\PSoC5/USBUART_1.c ****     USBUART_1_configuration = 0u;
 271              		.loc 1 437 0
 272 0044 0023     		movs	r3, #0
 273 0046 104A     		ldr	r2, .L12+16
 274 0048 1370     		strb	r3, [r2]
 438:.\Generated_Source\PSoC5/USBUART_1.c ****     USBUART_1_interfaceNumber = 0u;
 275              		.loc 1 438 0
 276 004a 104A     		ldr	r2, .L12+20
 277 004c 1370     		strb	r3, [r2]
 439:.\Generated_Source\PSoC5/USBUART_1.c ****     USBUART_1_configurationChanged = 0u;
 278              		.loc 1 439 0
 279 004e 104A     		ldr	r2, .L12+24
 280 0050 1370     		strb	r3, [r2]
 440:.\Generated_Source\PSoC5/USBUART_1.c ****     USBUART_1_deviceAddress  = 0u;
 281              		.loc 1 440 0
 282 0052 104A     		ldr	r2, .L12+28
 283 0054 1370     		strb	r3, [r2]
 441:.\Generated_Source\PSoC5/USBUART_1.c ****     USBUART_1_deviceStatus = 0u;
 284              		.loc 1 441 0
 285 0056 104A     		ldr	r2, .L12+32
 286 0058 1370     		strb	r3, [r2]
 442:.\Generated_Source\PSoC5/USBUART_1.c **** 
 443:.\Generated_Source\PSoC5/USBUART_1.c ****     USBUART_1_lastPacketSize = 0u;
 287              		.loc 1 443 0
 288 005a 104A     		ldr	r2, .L12+36
 289 005c 1370     		strb	r3, [r2]
 444:.\Generated_Source\PSoC5/USBUART_1.c **** 
 445:.\Generated_Source\PSoC5/USBUART_1.c ****     /*  ACK Setup, Stall IN/OUT */
 446:.\Generated_Source\PSoC5/USBUART_1.c ****     CY_SET_REG8(USBUART_1_EP0_CR_PTR, USBUART_1_MODE_STALL_IN_OUT);
 290              		.loc 1 446 0
 291 005e 0322     		movs	r2, #3
 292 0060 0F4B     		ldr	r3, .L12+40
 293 0062 1A70     		strb	r2, [r3]
 447:.\Generated_Source\PSoC5/USBUART_1.c **** 
 448:.\Generated_Source\PSoC5/USBUART_1.c ****     /* Enable the SIE with an address 0 */
ARM GAS  C:\Users\pxc\AppData\Local\Temp\ccwzKeIq.s 			page 14


 449:.\Generated_Source\PSoC5/USBUART_1.c ****     CY_SET_REG8(USBUART_1_CR0_PTR, USBUART_1_CR0_ENABLE);
 294              		.loc 1 449 0
 295 0064 8022     		movs	r2, #128
 296 0066 203B     		subs	r3, r3, #32
 297 0068 1A70     		strb	r2, [r3]
 450:.\Generated_Source\PSoC5/USBUART_1.c **** 
 451:.\Generated_Source\PSoC5/USBUART_1.c ****     /* Workaround for PSOC5LP */
 452:.\Generated_Source\PSoC5/USBUART_1.c ****     CyDelayCycles(1u);
 298              		.loc 1 452 0
 299 006a 0120     		movs	r0, #1
 300              	.LVL21:
 301 006c FFF7FEFF 		bl	CyDelayCycles
 302              	.LVL22:
 453:.\Generated_Source\PSoC5/USBUART_1.c **** 
 454:.\Generated_Source\PSoC5/USBUART_1.c ****     /* Finally, Enable d+ pullup and select iomode to USB mode*/
 455:.\Generated_Source\PSoC5/USBUART_1.c ****     CY_SET_REG8(USBUART_1_USBIO_CR1_PTR, USBUART_1_USBIO_CR1_USBPUEN);
 303              		.loc 1 455 0
 304 0070 0422     		movs	r2, #4
 305 0072 0C4B     		ldr	r3, .L12+44
 306 0074 1A70     		strb	r2, [r3]
 307 0076 08BD     		pop	{r3, pc}
 308              	.L13:
 309              		.align	2
 310              	.L12:
 311 0078 00E100E0 		.word	-536813312
 312 007c 00000000 		.word	USBUART_1_transferState
 313 0080 09600040 		.word	1073766409
 314 0084 00000000 		.word	USBUART_1_device
 315 0088 00000000 		.word	USBUART_1_configuration
 316 008c 00000000 		.word	USBUART_1_interfaceNumber
 317 0090 00000000 		.word	USBUART_1_configurationChanged
 318 0094 00000000 		.word	USBUART_1_deviceAddress
 319 0098 00000000 		.word	USBUART_1_deviceStatus
 320 009c 00000000 		.word	USBUART_1_lastPacketSize
 321 00a0 28600040 		.word	1073766440
 322 00a4 12600040 		.word	1073766418
 323              		.cfi_endproc
 324              	.LFE2:
 325              		.size	USBUART_1_InitComponent, .-USBUART_1_InitComponent
 326              		.section	.text.USBUART_1_Start,"ax",%progbits
 327              		.align	2
 328              		.global	USBUART_1_Start
 329              		.thumb
 330              		.thumb_func
 331              		.type	USBUART_1_Start, %function
 332              	USBUART_1_Start:
 333              	.LFB0:
 130:.\Generated_Source\PSoC5/USBUART_1.c ****     /* If not Initialized then initialize all required hardware and software */
 334              		.loc 1 130 0
 335              		.cfi_startproc
 336              		@ args = 0, pretend = 0, frame = 0
 337              		@ frame_needed = 0, uses_anonymous_args = 0
 338              	.LVL23:
 339 0000 38B5     		push	{r3, r4, r5, lr}
 340              		.cfi_def_cfa_offset 16
 341              		.cfi_offset 3, -16
 342              		.cfi_offset 4, -12
ARM GAS  C:\Users\pxc\AppData\Local\Temp\ccwzKeIq.s 			page 15


 343              		.cfi_offset 5, -8
 344              		.cfi_offset 14, -4
 345 0002 0546     		mov	r5, r0
 346 0004 0C46     		mov	r4, r1
 132:.\Generated_Source\PSoC5/USBUART_1.c ****     {
 347              		.loc 1 132 0
 348 0006 064B     		ldr	r3, .L17
 349 0008 1B78     		ldrb	r3, [r3]	@ zero_extendqisi2
 350 000a 23B9     		cbnz	r3, .L15
 134:.\Generated_Source\PSoC5/USBUART_1.c ****         USBUART_1_initVar = 1u;
 351              		.loc 1 134 0
 352 000c FFF7FEFF 		bl	USBUART_1_Init
 353              	.LVL24:
 135:.\Generated_Source\PSoC5/USBUART_1.c ****     }
 354              		.loc 1 135 0
 355 0010 0122     		movs	r2, #1
 356 0012 034B     		ldr	r3, .L17
 357 0014 1A70     		strb	r2, [r3]
 358              	.L15:
 137:.\Generated_Source\PSoC5/USBUART_1.c **** }
 359              		.loc 1 137 0
 360 0016 2846     		mov	r0, r5
 361 0018 2146     		mov	r1, r4
 362 001a FFF7FEFF 		bl	USBUART_1_InitComponent
 363              	.LVL25:
 364 001e 38BD     		pop	{r3, r4, r5, pc}
 365              	.L18:
 366              		.align	2
 367              	.L17:
 368 0020 00000000 		.word	.LANCHOR0
 369              		.cfi_endproc
 370              	.LFE0:
 371              		.size	USBUART_1_Start, .-USBUART_1_Start
 372              		.section	.text.USBUART_1_ReInitComponent,"ax",%progbits
 373              		.align	2
 374              		.global	USBUART_1_ReInitComponent
 375              		.thumb
 376              		.thumb_func
 377              		.type	USBUART_1_ReInitComponent, %function
 378              	USBUART_1_ReInitComponent:
 379              	.LFB3:
 456:.\Generated_Source\PSoC5/USBUART_1.c **** }
 457:.\Generated_Source\PSoC5/USBUART_1.c **** 
 458:.\Generated_Source\PSoC5/USBUART_1.c **** 
 459:.\Generated_Source\PSoC5/USBUART_1.c **** /*******************************************************************************
 460:.\Generated_Source\PSoC5/USBUART_1.c **** * Function Name: USBUART_1_ReInitComponent
 461:.\Generated_Source\PSoC5/USBUART_1.c **** ********************************************************************************
 462:.\Generated_Source\PSoC5/USBUART_1.c **** *
 463:.\Generated_Source\PSoC5/USBUART_1.c **** * Summary:
 464:.\Generated_Source\PSoC5/USBUART_1.c **** *  This function reinitialize the component configuration and is
 465:.\Generated_Source\PSoC5/USBUART_1.c **** *  intend to be called from the Reset interrupt.
 466:.\Generated_Source\PSoC5/USBUART_1.c **** *
 467:.\Generated_Source\PSoC5/USBUART_1.c **** * Parameters:
 468:.\Generated_Source\PSoC5/USBUART_1.c **** *  None.
 469:.\Generated_Source\PSoC5/USBUART_1.c **** *
 470:.\Generated_Source\PSoC5/USBUART_1.c **** * Return:
 471:.\Generated_Source\PSoC5/USBUART_1.c **** *   None.
ARM GAS  C:\Users\pxc\AppData\Local\Temp\ccwzKeIq.s 			page 16


 472:.\Generated_Source\PSoC5/USBUART_1.c **** *
 473:.\Generated_Source\PSoC5/USBUART_1.c **** * Global variables:
 474:.\Generated_Source\PSoC5/USBUART_1.c **** *   USBUART_1_device: Contains the device number of the desired device
 475:.\Generated_Source\PSoC5/USBUART_1.c **** *        descriptor. The device number can be found in the Device Descriptor Tab
 476:.\Generated_Source\PSoC5/USBUART_1.c **** *       of "Configure" dialog, under the settings of desired Device Descriptor,
 477:.\Generated_Source\PSoC5/USBUART_1.c **** *       in the "Device Number" field.
 478:.\Generated_Source\PSoC5/USBUART_1.c **** *   USBUART_1_transferState: This variable used by the communication
 479:.\Generated_Source\PSoC5/USBUART_1.c **** *       functions to handle current transfer state. Initialized to
 480:.\Generated_Source\PSoC5/USBUART_1.c **** *       TRANS_STATE_IDLE in this API.
 481:.\Generated_Source\PSoC5/USBUART_1.c **** *   USBUART_1_configuration: Contains current configuration number
 482:.\Generated_Source\PSoC5/USBUART_1.c **** *       which is set by the Host using SET_CONFIGURATION request.
 483:.\Generated_Source\PSoC5/USBUART_1.c **** *       Initialized to zero in this API.
 484:.\Generated_Source\PSoC5/USBUART_1.c **** *   USBUART_1_deviceAddress: Contains current device address. This
 485:.\Generated_Source\PSoC5/USBUART_1.c **** *       variable is initialized to zero in this API. Host starts to communicate
 486:.\Generated_Source\PSoC5/USBUART_1.c **** *      to device with address 0 and then set it to whatever value using
 487:.\Generated_Source\PSoC5/USBUART_1.c **** *      SET_ADDRESS request.
 488:.\Generated_Source\PSoC5/USBUART_1.c **** *   USBUART_1_deviceStatus: initialized to 0.
 489:.\Generated_Source\PSoC5/USBUART_1.c **** *       This is two bit variable which contain power status in first bit
 490:.\Generated_Source\PSoC5/USBUART_1.c **** *       (DEVICE_STATUS_BUS_POWERED or DEVICE_STATUS_SELF_POWERED) and remote
 491:.\Generated_Source\PSoC5/USBUART_1.c **** *       wakeup status (DEVICE_STATUS_REMOTE_WAKEUP) in second bit.
 492:.\Generated_Source\PSoC5/USBUART_1.c **** *   USBUART_1_lastPacketSize initialized to 0;
 493:.\Generated_Source\PSoC5/USBUART_1.c **** *
 494:.\Generated_Source\PSoC5/USBUART_1.c **** * Reentrant:
 495:.\Generated_Source\PSoC5/USBUART_1.c **** *  No.
 496:.\Generated_Source\PSoC5/USBUART_1.c **** *
 497:.\Generated_Source\PSoC5/USBUART_1.c **** *******************************************************************************/
 498:.\Generated_Source\PSoC5/USBUART_1.c **** void USBUART_1_ReInitComponent(void) 
 499:.\Generated_Source\PSoC5/USBUART_1.c **** {
 380              		.loc 1 499 0
 381              		.cfi_startproc
 382              		@ args = 0, pretend = 0, frame = 0
 383              		@ frame_needed = 0, uses_anonymous_args = 0
 384              		@ link register save eliminated.
 500:.\Generated_Source\PSoC5/USBUART_1.c ****     /* Initialize _hidProtocol variable to comply with HID 7.2.6 Set_Protocol
 501:.\Generated_Source\PSoC5/USBUART_1.c ****     *  Request: "When initialized, all devices default to report protocol."
 502:.\Generated_Source\PSoC5/USBUART_1.c ****     */
 503:.\Generated_Source\PSoC5/USBUART_1.c ****     #if defined(USBUART_1_ENABLE_HID_CLASS)
 504:.\Generated_Source\PSoC5/USBUART_1.c ****         uint8 i;
 505:.\Generated_Source\PSoC5/USBUART_1.c **** 
 506:.\Generated_Source\PSoC5/USBUART_1.c ****         for (i = 0u; i < USBUART_1_MAX_INTERFACES_NUMBER; i++)
 507:.\Generated_Source\PSoC5/USBUART_1.c ****         {
 508:.\Generated_Source\PSoC5/USBUART_1.c ****             USBUART_1_hidProtocol[i] = USBUART_1_PROTOCOL_REPORT;
 509:.\Generated_Source\PSoC5/USBUART_1.c ****         }
 510:.\Generated_Source\PSoC5/USBUART_1.c ****     #endif /* USBUART_1_ENABLE_HID_CLASS */
 511:.\Generated_Source\PSoC5/USBUART_1.c **** 
 512:.\Generated_Source\PSoC5/USBUART_1.c ****     USBUART_1_transferState = USBUART_1_TRANS_STATE_IDLE;
 385              		.loc 1 512 0
 386 0000 0023     		movs	r3, #0
 387 0002 0A4A     		ldr	r2, .L20
 388 0004 1370     		strb	r3, [r2]
 513:.\Generated_Source\PSoC5/USBUART_1.c **** 
 514:.\Generated_Source\PSoC5/USBUART_1.c ****     /* Clear all of the component data */
 515:.\Generated_Source\PSoC5/USBUART_1.c ****     USBUART_1_configuration = 0u;
 389              		.loc 1 515 0
 390 0006 0A4A     		ldr	r2, .L20+4
 391 0008 1370     		strb	r3, [r2]
 516:.\Generated_Source\PSoC5/USBUART_1.c ****     USBUART_1_interfaceNumber = 0u;
ARM GAS  C:\Users\pxc\AppData\Local\Temp\ccwzKeIq.s 			page 17


 392              		.loc 1 516 0
 393 000a 0A4A     		ldr	r2, .L20+8
 394 000c 1370     		strb	r3, [r2]
 517:.\Generated_Source\PSoC5/USBUART_1.c ****     USBUART_1_configurationChanged = 0u;
 395              		.loc 1 517 0
 396 000e 0A4A     		ldr	r2, .L20+12
 397 0010 1370     		strb	r3, [r2]
 518:.\Generated_Source\PSoC5/USBUART_1.c ****     USBUART_1_deviceAddress  = 0u;
 398              		.loc 1 518 0
 399 0012 0A4A     		ldr	r2, .L20+16
 400 0014 1370     		strb	r3, [r2]
 519:.\Generated_Source\PSoC5/USBUART_1.c ****     USBUART_1_deviceStatus = 0u;
 401              		.loc 1 519 0
 402 0016 0A4A     		ldr	r2, .L20+20
 403 0018 1370     		strb	r3, [r2]
 520:.\Generated_Source\PSoC5/USBUART_1.c **** 
 521:.\Generated_Source\PSoC5/USBUART_1.c ****     USBUART_1_lastPacketSize = 0u;
 404              		.loc 1 521 0
 405 001a 0A4A     		ldr	r2, .L20+24
 406 001c 1370     		strb	r3, [r2]
 522:.\Generated_Source\PSoC5/USBUART_1.c **** 
 523:.\Generated_Source\PSoC5/USBUART_1.c **** 
 524:.\Generated_Source\PSoC5/USBUART_1.c ****     /*  ACK Setup, Stall IN/OUT */
 525:.\Generated_Source\PSoC5/USBUART_1.c ****     CY_SET_REG8(USBUART_1_EP0_CR_PTR, USBUART_1_MODE_STALL_IN_OUT);
 407              		.loc 1 525 0
 408 001e 0322     		movs	r2, #3
 409 0020 094B     		ldr	r3, .L20+28
 410 0022 1A70     		strb	r2, [r3]
 526:.\Generated_Source\PSoC5/USBUART_1.c **** 
 527:.\Generated_Source\PSoC5/USBUART_1.c ****     /* Enable the SIE with an address 0 */
 528:.\Generated_Source\PSoC5/USBUART_1.c ****     CY_SET_REG8(USBUART_1_CR0_PTR, USBUART_1_CR0_ENABLE);
 411              		.loc 1 528 0
 412 0024 8022     		movs	r2, #128
 413 0026 203B     		subs	r3, r3, #32
 414 0028 1A70     		strb	r2, [r3]
 415 002a 7047     		bx	lr
 416              	.L21:
 417              		.align	2
 418              	.L20:
 419 002c 00000000 		.word	USBUART_1_transferState
 420 0030 00000000 		.word	USBUART_1_configuration
 421 0034 00000000 		.word	USBUART_1_interfaceNumber
 422 0038 00000000 		.word	USBUART_1_configurationChanged
 423 003c 00000000 		.word	USBUART_1_deviceAddress
 424 0040 00000000 		.word	USBUART_1_deviceStatus
 425 0044 00000000 		.word	USBUART_1_lastPacketSize
 426 0048 28600040 		.word	1073766440
 427              		.cfi_endproc
 428              	.LFE3:
 429              		.size	USBUART_1_ReInitComponent, .-USBUART_1_ReInitComponent
 430              		.section	.text.USBUART_1_Stop,"ax",%progbits
 431              		.align	2
 432              		.global	USBUART_1_Stop
 433              		.thumb
 434              		.thumb_func
 435              		.type	USBUART_1_Stop, %function
 436              	USBUART_1_Stop:
ARM GAS  C:\Users\pxc\AppData\Local\Temp\ccwzKeIq.s 			page 18


 437              	.LFB4:
 529:.\Generated_Source\PSoC5/USBUART_1.c **** 
 530:.\Generated_Source\PSoC5/USBUART_1.c **** }
 531:.\Generated_Source\PSoC5/USBUART_1.c **** 
 532:.\Generated_Source\PSoC5/USBUART_1.c **** 
 533:.\Generated_Source\PSoC5/USBUART_1.c **** /*******************************************************************************
 534:.\Generated_Source\PSoC5/USBUART_1.c **** * Function Name: USBUART_1_Stop
 535:.\Generated_Source\PSoC5/USBUART_1.c **** ********************************************************************************
 536:.\Generated_Source\PSoC5/USBUART_1.c **** *
 537:.\Generated_Source\PSoC5/USBUART_1.c **** * Summary:
 538:.\Generated_Source\PSoC5/USBUART_1.c **** *  This function shuts down the USB function including to release
 539:.\Generated_Source\PSoC5/USBUART_1.c **** *  the D+ Pullup and disabling the SIE.
 540:.\Generated_Source\PSoC5/USBUART_1.c **** *
 541:.\Generated_Source\PSoC5/USBUART_1.c **** * Parameters:
 542:.\Generated_Source\PSoC5/USBUART_1.c **** *  None.
 543:.\Generated_Source\PSoC5/USBUART_1.c **** *
 544:.\Generated_Source\PSoC5/USBUART_1.c **** * Return:
 545:.\Generated_Source\PSoC5/USBUART_1.c **** *  None.
 546:.\Generated_Source\PSoC5/USBUART_1.c **** *
 547:.\Generated_Source\PSoC5/USBUART_1.c **** * Global variables:
 548:.\Generated_Source\PSoC5/USBUART_1.c **** *   USBUART_1_configuration: Contains current configuration number
 549:.\Generated_Source\PSoC5/USBUART_1.c **** *       which is set by the Host using SET_CONFIGURATION request.
 550:.\Generated_Source\PSoC5/USBUART_1.c **** *       Initialized to zero in this API.
 551:.\Generated_Source\PSoC5/USBUART_1.c **** *   USBUART_1_deviceAddress: Contains current device address. This
 552:.\Generated_Source\PSoC5/USBUART_1.c **** *       variable is initialized to zero in this API. Host starts to communicate
 553:.\Generated_Source\PSoC5/USBUART_1.c **** *      to device with address 0 and then set it to whatever value using
 554:.\Generated_Source\PSoC5/USBUART_1.c **** *      SET_ADDRESS request.
 555:.\Generated_Source\PSoC5/USBUART_1.c **** *   USBUART_1_deviceStatus: initialized to 0.
 556:.\Generated_Source\PSoC5/USBUART_1.c **** *       This is two bit variable which contain power status in first bit
 557:.\Generated_Source\PSoC5/USBUART_1.c **** *       (DEVICE_STATUS_BUS_POWERED or DEVICE_STATUS_SELF_POWERED) and remote
 558:.\Generated_Source\PSoC5/USBUART_1.c **** *       wakeup status (DEVICE_STATUS_REMOTE_WAKEUP) in second bit.
 559:.\Generated_Source\PSoC5/USBUART_1.c **** *   USBUART_1_configurationChanged: This variable is set to one after
 560:.\Generated_Source\PSoC5/USBUART_1.c **** *       SET_CONFIGURATION request and cleared in this function.
 561:.\Generated_Source\PSoC5/USBUART_1.c **** *   USBUART_1_intiVar variable is set to zero
 562:.\Generated_Source\PSoC5/USBUART_1.c **** *
 563:.\Generated_Source\PSoC5/USBUART_1.c **** *******************************************************************************/
 564:.\Generated_Source\PSoC5/USBUART_1.c **** void USBUART_1_Stop(void) 
 565:.\Generated_Source\PSoC5/USBUART_1.c **** {
 438              		.loc 1 565 0
 439              		.cfi_startproc
 440              		@ args = 0, pretend = 0, frame = 0
 441              		@ frame_needed = 0, uses_anonymous_args = 0
 442              		@ link register save eliminated.
 566:.\Generated_Source\PSoC5/USBUART_1.c **** 
 567:.\Generated_Source\PSoC5/USBUART_1.c ****     #if(USBUART_1_EP_MM != USBUART_1__EP_MANUAL)
 568:.\Generated_Source\PSoC5/USBUART_1.c ****         USBUART_1_Stop_DMA(USBUART_1_MAX_EP);     /* Stop all DMAs */
 569:.\Generated_Source\PSoC5/USBUART_1.c ****     #endif   /*  USBUART_1_EP_MM != USBUART_1__EP_MANUAL */
 570:.\Generated_Source\PSoC5/USBUART_1.c **** 
 571:.\Generated_Source\PSoC5/USBUART_1.c ****     /* Disable the SIE */
 572:.\Generated_Source\PSoC5/USBUART_1.c ****     USBUART_1_CR0_REG &= (uint8)(~USBUART_1_CR0_ENABLE);
 443              		.loc 1 572 0
 444 0000 184A     		ldr	r2, .L23
 445 0002 1378     		ldrb	r3, [r2]	@ zero_extendqisi2
 446 0004 03F07F03 		and	r3, r3, #127
 447 0008 1370     		strb	r3, [r2]
 573:.\Generated_Source\PSoC5/USBUART_1.c ****     /* Disable the d+ pullup */
 574:.\Generated_Source\PSoC5/USBUART_1.c ****     USBUART_1_USBIO_CR1_REG &= (uint8)(~USBUART_1_USBIO_CR1_USBPUEN);
ARM GAS  C:\Users\pxc\AppData\Local\Temp\ccwzKeIq.s 			page 19


 448              		.loc 1 574 0
 449 000a 0A32     		adds	r2, r2, #10
 450 000c 1378     		ldrb	r3, [r2]	@ zero_extendqisi2
 451 000e 03F0FB03 		and	r3, r3, #251
 452 0012 1370     		strb	r3, [r2]
 575:.\Generated_Source\PSoC5/USBUART_1.c ****     /* Disable USB in ACT PM */
 576:.\Generated_Source\PSoC5/USBUART_1.c ****     USBUART_1_PM_ACT_CFG_REG &= (uint8)(~USBUART_1_PM_ACT_EN_FSUSB);
 453              		.loc 1 576 0
 454 0014 A2F5E352 		sub	r2, r2, #7264
 455 0018 0D3A     		subs	r2, r2, #13
 456 001a 1378     		ldrb	r3, [r2]	@ zero_extendqisi2
 457 001c 03F0FE03 		and	r3, r3, #254
 458 0020 1370     		strb	r3, [r2]
 577:.\Generated_Source\PSoC5/USBUART_1.c ****     /* Disable USB block for Standby Power Mode */
 578:.\Generated_Source\PSoC5/USBUART_1.c ****     USBUART_1_PM_STBY_CFG_REG &= (uint8)(~USBUART_1_PM_STBY_EN_FSUSB);
 459              		.loc 1 578 0
 460 0022 1032     		adds	r2, r2, #16
 461 0024 1378     		ldrb	r3, [r2]	@ zero_extendqisi2
 462 0026 03F0FE03 		and	r3, r3, #254
 463 002a 1370     		strb	r3, [r2]
 579:.\Generated_Source\PSoC5/USBUART_1.c **** 
 580:.\Generated_Source\PSoC5/USBUART_1.c ****     /* Disable the reset and EP interrupts */
 581:.\Generated_Source\PSoC5/USBUART_1.c ****     CyIntDisable(USBUART_1_BUS_RESET_VECT_NUM);
 464              		.loc 1 581 0
 465 002c 0E4B     		ldr	r3, .L23+4
 466 002e 4FF40002 		mov	r2, #8388608
 467 0032 1A60     		str	r2, [r3]
 582:.\Generated_Source\PSoC5/USBUART_1.c ****     CyIntDisable(USBUART_1_EP_0_VECT_NUM);
 468              		.loc 1 582 0
 469 0034 4FF08072 		mov	r2, #16777216
 470 0038 1A60     		str	r2, [r3]
 583:.\Generated_Source\PSoC5/USBUART_1.c ****     #if(USBUART_1_EP1_ISR_REMOVE == 0u)
 584:.\Generated_Source\PSoC5/USBUART_1.c ****         CyIntDisable(USBUART_1_EP_1_VECT_NUM);
 471              		.loc 1 584 0
 472 003a 0222     		movs	r2, #2
 473 003c 1A60     		str	r2, [r3]
 585:.\Generated_Source\PSoC5/USBUART_1.c ****     #endif   /*  USBUART_1_EP1_ISR_REMOVE */
 586:.\Generated_Source\PSoC5/USBUART_1.c ****     #if(USBUART_1_EP2_ISR_REMOVE == 0u)
 587:.\Generated_Source\PSoC5/USBUART_1.c ****         CyIntDisable(USBUART_1_EP_2_VECT_NUM);
 474              		.loc 1 587 0
 475 003e 0422     		movs	r2, #4
 476 0040 1A60     		str	r2, [r3]
 588:.\Generated_Source\PSoC5/USBUART_1.c ****     #endif   /*  USBUART_1_EP2_ISR_REMOVE */
 589:.\Generated_Source\PSoC5/USBUART_1.c ****     #if(USBUART_1_EP3_ISR_REMOVE == 0u)
 590:.\Generated_Source\PSoC5/USBUART_1.c ****         CyIntDisable(USBUART_1_EP_3_VECT_NUM);
 477              		.loc 1 590 0
 478 0042 0822     		movs	r2, #8
 479 0044 1A60     		str	r2, [r3]
 591:.\Generated_Source\PSoC5/USBUART_1.c ****     #endif   /*  USBUART_1_EP3_ISR_REMOVE */
 592:.\Generated_Source\PSoC5/USBUART_1.c ****     #if(USBUART_1_EP4_ISR_REMOVE == 0u)
 593:.\Generated_Source\PSoC5/USBUART_1.c ****         CyIntDisable(USBUART_1_EP_4_VECT_NUM);
 594:.\Generated_Source\PSoC5/USBUART_1.c ****     #endif   /*  USBUART_1_EP4_ISR_REMOVE */
 595:.\Generated_Source\PSoC5/USBUART_1.c ****     #if(USBUART_1_EP5_ISR_REMOVE == 0u)
 596:.\Generated_Source\PSoC5/USBUART_1.c ****         CyIntDisable(USBUART_1_EP_5_VECT_NUM);
 597:.\Generated_Source\PSoC5/USBUART_1.c ****     #endif   /*  USBUART_1_EP5_ISR_REMOVE */
 598:.\Generated_Source\PSoC5/USBUART_1.c ****     #if(USBUART_1_EP6_ISR_REMOVE == 0u)
 599:.\Generated_Source\PSoC5/USBUART_1.c ****         CyIntDisable(USBUART_1_EP_6_VECT_NUM);
ARM GAS  C:\Users\pxc\AppData\Local\Temp\ccwzKeIq.s 			page 20


 600:.\Generated_Source\PSoC5/USBUART_1.c ****     #endif   /*  USBUART_1_EP6_ISR_REMOVE */
 601:.\Generated_Source\PSoC5/USBUART_1.c ****     #if(USBUART_1_EP7_ISR_REMOVE == 0u)
 602:.\Generated_Source\PSoC5/USBUART_1.c ****         CyIntDisable(USBUART_1_EP_7_VECT_NUM);
 603:.\Generated_Source\PSoC5/USBUART_1.c ****     #endif   /*  USBUART_1_EP7_ISR_REMOVE */
 604:.\Generated_Source\PSoC5/USBUART_1.c ****     #if(USBUART_1_EP8_ISR_REMOVE == 0u)
 605:.\Generated_Source\PSoC5/USBUART_1.c ****         CyIntDisable(USBUART_1_EP_8_VECT_NUM);
 606:.\Generated_Source\PSoC5/USBUART_1.c ****     #endif   /*  USBUART_1_EP8_ISR_REMOVE */
 607:.\Generated_Source\PSoC5/USBUART_1.c **** 
 608:.\Generated_Source\PSoC5/USBUART_1.c ****     /* Clear all of the component data */
 609:.\Generated_Source\PSoC5/USBUART_1.c ****     USBUART_1_configuration = 0u;
 480              		.loc 1 609 0
 481 0046 0023     		movs	r3, #0
 482 0048 084A     		ldr	r2, .L23+8
 483 004a 1370     		strb	r3, [r2]
 610:.\Generated_Source\PSoC5/USBUART_1.c ****     USBUART_1_interfaceNumber = 0u;
 484              		.loc 1 610 0
 485 004c 084A     		ldr	r2, .L23+12
 486 004e 1370     		strb	r3, [r2]
 611:.\Generated_Source\PSoC5/USBUART_1.c ****     USBUART_1_configurationChanged = 0u;
 487              		.loc 1 611 0
 488 0050 084A     		ldr	r2, .L23+16
 489 0052 1370     		strb	r3, [r2]
 612:.\Generated_Source\PSoC5/USBUART_1.c ****     USBUART_1_deviceAddress  = 0u;
 490              		.loc 1 612 0
 491 0054 084A     		ldr	r2, .L23+20
 492 0056 1370     		strb	r3, [r2]
 613:.\Generated_Source\PSoC5/USBUART_1.c ****     USBUART_1_deviceStatus = 0u;
 493              		.loc 1 613 0
 494 0058 084A     		ldr	r2, .L23+24
 495 005a 1370     		strb	r3, [r2]
 614:.\Generated_Source\PSoC5/USBUART_1.c ****     USBUART_1_initVar = 0u;
 496              		.loc 1 614 0
 497 005c 084A     		ldr	r2, .L23+28
 498 005e 1370     		strb	r3, [r2]
 499 0060 7047     		bx	lr
 500              	.L24:
 501 0062 00BF     		.align	2
 502              	.L23:
 503 0064 08600040 		.word	1073766408
 504 0068 80E100E0 		.word	-536813184
 505 006c 00000000 		.word	USBUART_1_configuration
 506 0070 00000000 		.word	USBUART_1_interfaceNumber
 507 0074 00000000 		.word	USBUART_1_configurationChanged
 508 0078 00000000 		.word	USBUART_1_deviceAddress
 509 007c 00000000 		.word	USBUART_1_deviceStatus
 510 0080 00000000 		.word	.LANCHOR0
 511              		.cfi_endproc
 512              	.LFE4:
 513              		.size	USBUART_1_Stop, .-USBUART_1_Stop
 514              		.section	.text.USBUART_1_CheckActivity,"ax",%progbits
 515              		.align	2
 516              		.global	USBUART_1_CheckActivity
 517              		.thumb
 518              		.thumb_func
 519              		.type	USBUART_1_CheckActivity, %function
 520              	USBUART_1_CheckActivity:
 521              	.LFB5:
ARM GAS  C:\Users\pxc\AppData\Local\Temp\ccwzKeIq.s 			page 21


 615:.\Generated_Source\PSoC5/USBUART_1.c **** 
 616:.\Generated_Source\PSoC5/USBUART_1.c **** }
 617:.\Generated_Source\PSoC5/USBUART_1.c **** 
 618:.\Generated_Source\PSoC5/USBUART_1.c **** 
 619:.\Generated_Source\PSoC5/USBUART_1.c **** /*******************************************************************************
 620:.\Generated_Source\PSoC5/USBUART_1.c **** * Function Name: USBUART_1_CheckActivity
 621:.\Generated_Source\PSoC5/USBUART_1.c **** ********************************************************************************
 622:.\Generated_Source\PSoC5/USBUART_1.c **** *
 623:.\Generated_Source\PSoC5/USBUART_1.c **** * Summary:
 624:.\Generated_Source\PSoC5/USBUART_1.c **** *  Returns the activity status of the bus.  Clears the status hardware to
 625:.\Generated_Source\PSoC5/USBUART_1.c **** *  provide fresh activity status on the next call of this routine.
 626:.\Generated_Source\PSoC5/USBUART_1.c **** *
 627:.\Generated_Source\PSoC5/USBUART_1.c **** * Parameters:
 628:.\Generated_Source\PSoC5/USBUART_1.c **** *  None.
 629:.\Generated_Source\PSoC5/USBUART_1.c **** *
 630:.\Generated_Source\PSoC5/USBUART_1.c **** * Return:
 631:.\Generated_Source\PSoC5/USBUART_1.c **** *  1 - If bus activity was detected since the last call to this function
 632:.\Generated_Source\PSoC5/USBUART_1.c **** *  0 - If bus activity not was detected since the last call to this function
 633:.\Generated_Source\PSoC5/USBUART_1.c **** *
 634:.\Generated_Source\PSoC5/USBUART_1.c **** *******************************************************************************/
 635:.\Generated_Source\PSoC5/USBUART_1.c **** uint8 USBUART_1_CheckActivity(void) 
 636:.\Generated_Source\PSoC5/USBUART_1.c **** {
 522              		.loc 1 636 0
 523              		.cfi_startproc
 524              		@ args = 0, pretend = 0, frame = 0
 525              		@ frame_needed = 0, uses_anonymous_args = 0
 526              		@ link register save eliminated.
 637:.\Generated_Source\PSoC5/USBUART_1.c ****     uint8 r;
 638:.\Generated_Source\PSoC5/USBUART_1.c **** 
 639:.\Generated_Source\PSoC5/USBUART_1.c ****     r = CY_GET_REG8(USBUART_1_CR1_PTR);
 527              		.loc 1 639 0
 528 0000 044B     		ldr	r3, .L26
 529 0002 1878     		ldrb	r0, [r3]	@ zero_extendqisi2
 530 0004 C0B2     		uxtb	r0, r0
 531              	.LVL26:
 640:.\Generated_Source\PSoC5/USBUART_1.c ****     CY_SET_REG8(USBUART_1_CR1_PTR, (r & ((uint8)(~USBUART_1_CR1_BUS_ACTIVITY))));
 532              		.loc 1 640 0
 533 0006 00F0FB02 		and	r2, r0, #251
 534 000a 1A70     		strb	r2, [r3]
 641:.\Generated_Source\PSoC5/USBUART_1.c **** 
 642:.\Generated_Source\PSoC5/USBUART_1.c ****     return((r & USBUART_1_CR1_BUS_ACTIVITY) >> USBUART_1_CR1_BUS_ACTIVITY_SHIFT);
 643:.\Generated_Source\PSoC5/USBUART_1.c **** }
 535              		.loc 1 643 0
 536 000c C0F38000 		ubfx	r0, r0, #2, #1
 537              	.LVL27:
 538 0010 7047     		bx	lr
 539              	.L27:
 540 0012 00BF     		.align	2
 541              	.L26:
 542 0014 09600040 		.word	1073766409
 543              		.cfi_endproc
 544              	.LFE5:
 545              		.size	USBUART_1_CheckActivity, .-USBUART_1_CheckActivity
 546              		.section	.text.USBUART_1_GetConfiguration,"ax",%progbits
 547              		.align	2
 548              		.global	USBUART_1_GetConfiguration
 549              		.thumb
ARM GAS  C:\Users\pxc\AppData\Local\Temp\ccwzKeIq.s 			page 22


 550              		.thumb_func
 551              		.type	USBUART_1_GetConfiguration, %function
 552              	USBUART_1_GetConfiguration:
 553              	.LFB6:
 644:.\Generated_Source\PSoC5/USBUART_1.c **** 
 645:.\Generated_Source\PSoC5/USBUART_1.c **** 
 646:.\Generated_Source\PSoC5/USBUART_1.c **** /*******************************************************************************
 647:.\Generated_Source\PSoC5/USBUART_1.c **** * Function Name: USBUART_1_GetConfiguration
 648:.\Generated_Source\PSoC5/USBUART_1.c **** ********************************************************************************
 649:.\Generated_Source\PSoC5/USBUART_1.c **** *
 650:.\Generated_Source\PSoC5/USBUART_1.c **** * Summary:
 651:.\Generated_Source\PSoC5/USBUART_1.c **** *  Returns the current configuration setting
 652:.\Generated_Source\PSoC5/USBUART_1.c **** *
 653:.\Generated_Source\PSoC5/USBUART_1.c **** * Parameters:
 654:.\Generated_Source\PSoC5/USBUART_1.c **** *  None.
 655:.\Generated_Source\PSoC5/USBUART_1.c **** *
 656:.\Generated_Source\PSoC5/USBUART_1.c **** * Return:
 657:.\Generated_Source\PSoC5/USBUART_1.c **** *  configuration.
 658:.\Generated_Source\PSoC5/USBUART_1.c **** *
 659:.\Generated_Source\PSoC5/USBUART_1.c **** *******************************************************************************/
 660:.\Generated_Source\PSoC5/USBUART_1.c **** uint8 USBUART_1_GetConfiguration(void) 
 661:.\Generated_Source\PSoC5/USBUART_1.c **** {
 554              		.loc 1 661 0
 555              		.cfi_startproc
 556              		@ args = 0, pretend = 0, frame = 0
 557              		@ frame_needed = 0, uses_anonymous_args = 0
 558              		@ link register save eliminated.
 662:.\Generated_Source\PSoC5/USBUART_1.c ****     return(USBUART_1_configuration);
 559              		.loc 1 662 0
 560 0000 014B     		ldr	r3, .L29
 561 0002 1878     		ldrb	r0, [r3]	@ zero_extendqisi2
 663:.\Generated_Source\PSoC5/USBUART_1.c **** }
 562              		.loc 1 663 0
 563 0004 7047     		bx	lr
 564              	.L30:
 565 0006 00BF     		.align	2
 566              	.L29:
 567 0008 00000000 		.word	USBUART_1_configuration
 568              		.cfi_endproc
 569              	.LFE6:
 570              		.size	USBUART_1_GetConfiguration, .-USBUART_1_GetConfiguration
 571              		.section	.text.USBUART_1_IsConfigurationChanged,"ax",%progbits
 572              		.align	2
 573              		.global	USBUART_1_IsConfigurationChanged
 574              		.thumb
 575              		.thumb_func
 576              		.type	USBUART_1_IsConfigurationChanged, %function
 577              	USBUART_1_IsConfigurationChanged:
 578              	.LFB7:
 664:.\Generated_Source\PSoC5/USBUART_1.c **** 
 665:.\Generated_Source\PSoC5/USBUART_1.c **** 
 666:.\Generated_Source\PSoC5/USBUART_1.c **** /*******************************************************************************
 667:.\Generated_Source\PSoC5/USBUART_1.c **** * Function Name: USBUART_1_IsConfigurationChanged
 668:.\Generated_Source\PSoC5/USBUART_1.c **** ********************************************************************************
 669:.\Generated_Source\PSoC5/USBUART_1.c **** *
 670:.\Generated_Source\PSoC5/USBUART_1.c **** * Summary:
 671:.\Generated_Source\PSoC5/USBUART_1.c **** *  Returns the clear on read configuration state. It is usefull when PC send
ARM GAS  C:\Users\pxc\AppData\Local\Temp\ccwzKeIq.s 			page 23


 672:.\Generated_Source\PSoC5/USBUART_1.c **** *  double SET_CONFIGURATION request with same configuration number.
 673:.\Generated_Source\PSoC5/USBUART_1.c **** *
 674:.\Generated_Source\PSoC5/USBUART_1.c **** * Parameters:
 675:.\Generated_Source\PSoC5/USBUART_1.c **** *  None.
 676:.\Generated_Source\PSoC5/USBUART_1.c **** *
 677:.\Generated_Source\PSoC5/USBUART_1.c **** * Return:
 678:.\Generated_Source\PSoC5/USBUART_1.c **** *  Not zero value when new configuration has been changed, otherwise zero is
 679:.\Generated_Source\PSoC5/USBUART_1.c **** *  returned.
 680:.\Generated_Source\PSoC5/USBUART_1.c **** *
 681:.\Generated_Source\PSoC5/USBUART_1.c **** * Global variables:
 682:.\Generated_Source\PSoC5/USBUART_1.c **** *   USBUART_1_configurationChanged: This variable is set to one after
 683:.\Generated_Source\PSoC5/USBUART_1.c **** *       SET_CONFIGURATION request and cleared in this function.
 684:.\Generated_Source\PSoC5/USBUART_1.c **** *
 685:.\Generated_Source\PSoC5/USBUART_1.c **** *******************************************************************************/
 686:.\Generated_Source\PSoC5/USBUART_1.c **** uint8 USBUART_1_IsConfigurationChanged(void) 
 687:.\Generated_Source\PSoC5/USBUART_1.c **** {
 579              		.loc 1 687 0
 580              		.cfi_startproc
 581              		@ args = 0, pretend = 0, frame = 0
 582              		@ frame_needed = 0, uses_anonymous_args = 0
 583              		@ link register save eliminated.
 584              	.LVL28:
 688:.\Generated_Source\PSoC5/USBUART_1.c ****     uint8 res = 0u;
 689:.\Generated_Source\PSoC5/USBUART_1.c **** 
 690:.\Generated_Source\PSoC5/USBUART_1.c ****     if(USBUART_1_configurationChanged != 0u)
 585              		.loc 1 690 0
 586 0000 064B     		ldr	r3, .L34
 587 0002 1B78     		ldrb	r3, [r3]	@ zero_extendqisi2
 588 0004 13F0FF0F 		tst	r3, #255
 589 0008 05D0     		beq	.L33
 691:.\Generated_Source\PSoC5/USBUART_1.c ****     {
 692:.\Generated_Source\PSoC5/USBUART_1.c ****         res = USBUART_1_configurationChanged;
 590              		.loc 1 692 0
 591 000a 044B     		ldr	r3, .L34
 592 000c 1878     		ldrb	r0, [r3]	@ zero_extendqisi2
 593 000e C0B2     		uxtb	r0, r0
 594              	.LVL29:
 693:.\Generated_Source\PSoC5/USBUART_1.c ****         USBUART_1_configurationChanged = 0u;
 595              		.loc 1 693 0
 596 0010 0022     		movs	r2, #0
 597 0012 1A70     		strb	r2, [r3]
 598 0014 7047     		bx	lr
 599              	.LVL30:
 600              	.L33:
 688:.\Generated_Source\PSoC5/USBUART_1.c ****     uint8 res = 0u;
 601              		.loc 1 688 0
 602 0016 0020     		movs	r0, #0
 603              	.LVL31:
 694:.\Generated_Source\PSoC5/USBUART_1.c ****     }
 695:.\Generated_Source\PSoC5/USBUART_1.c **** 
 696:.\Generated_Source\PSoC5/USBUART_1.c ****     return(res);
 697:.\Generated_Source\PSoC5/USBUART_1.c **** }
 604              		.loc 1 697 0
 605 0018 7047     		bx	lr
 606              	.L35:
 607 001a 00BF     		.align	2
 608              	.L34:
ARM GAS  C:\Users\pxc\AppData\Local\Temp\ccwzKeIq.s 			page 24


 609 001c 00000000 		.word	USBUART_1_configurationChanged
 610              		.cfi_endproc
 611              	.LFE7:
 612              		.size	USBUART_1_IsConfigurationChanged, .-USBUART_1_IsConfigurationChanged
 613              		.section	.text.USBUART_1_GetInterfaceSetting,"ax",%progbits
 614              		.align	2
 615              		.global	USBUART_1_GetInterfaceSetting
 616              		.thumb
 617              		.thumb_func
 618              		.type	USBUART_1_GetInterfaceSetting, %function
 619              	USBUART_1_GetInterfaceSetting:
 620              	.LFB8:
 698:.\Generated_Source\PSoC5/USBUART_1.c **** 
 699:.\Generated_Source\PSoC5/USBUART_1.c **** 
 700:.\Generated_Source\PSoC5/USBUART_1.c **** /*******************************************************************************
 701:.\Generated_Source\PSoC5/USBUART_1.c **** * Function Name: USBUART_1_GetInterfaceSetting
 702:.\Generated_Source\PSoC5/USBUART_1.c **** ********************************************************************************
 703:.\Generated_Source\PSoC5/USBUART_1.c **** *
 704:.\Generated_Source\PSoC5/USBUART_1.c **** * Summary:
 705:.\Generated_Source\PSoC5/USBUART_1.c **** *  Returns the alternate setting from current interface
 706:.\Generated_Source\PSoC5/USBUART_1.c **** *
 707:.\Generated_Source\PSoC5/USBUART_1.c **** * Parameters:
 708:.\Generated_Source\PSoC5/USBUART_1.c **** *  uint8 interfaceNumber, interface number
 709:.\Generated_Source\PSoC5/USBUART_1.c **** *
 710:.\Generated_Source\PSoC5/USBUART_1.c **** * Return:
 711:.\Generated_Source\PSoC5/USBUART_1.c **** *  Alternate setting.
 712:.\Generated_Source\PSoC5/USBUART_1.c **** *
 713:.\Generated_Source\PSoC5/USBUART_1.c **** *******************************************************************************/
 714:.\Generated_Source\PSoC5/USBUART_1.c **** uint8  USBUART_1_GetInterfaceSetting(uint8 interfaceNumber)
 715:.\Generated_Source\PSoC5/USBUART_1.c ****                                                     
 716:.\Generated_Source\PSoC5/USBUART_1.c **** {
 621              		.loc 1 716 0
 622              		.cfi_startproc
 623              		@ args = 0, pretend = 0, frame = 0
 624              		@ frame_needed = 0, uses_anonymous_args = 0
 625              		@ link register save eliminated.
 626              	.LVL32:
 717:.\Generated_Source\PSoC5/USBUART_1.c ****     return(USBUART_1_interfaceSetting[interfaceNumber]);
 627              		.loc 1 717 0
 628 0000 014B     		ldr	r3, .L37
 629 0002 185C     		ldrb	r0, [r3, r0]	@ zero_extendqisi2
 630              	.LVL33:
 718:.\Generated_Source\PSoC5/USBUART_1.c **** }
 631              		.loc 1 718 0
 632 0004 7047     		bx	lr
 633              	.L38:
 634 0006 00BF     		.align	2
 635              	.L37:
 636 0008 00000000 		.word	USBUART_1_interfaceSetting
 637              		.cfi_endproc
 638              	.LFE8:
 639              		.size	USBUART_1_GetInterfaceSetting, .-USBUART_1_GetInterfaceSetting
 640              		.section	.text.USBUART_1_GetEPState,"ax",%progbits
 641              		.align	2
 642              		.global	USBUART_1_GetEPState
 643              		.thumb
 644              		.thumb_func
ARM GAS  C:\Users\pxc\AppData\Local\Temp\ccwzKeIq.s 			page 25


 645              		.type	USBUART_1_GetEPState, %function
 646              	USBUART_1_GetEPState:
 647              	.LFB9:
 719:.\Generated_Source\PSoC5/USBUART_1.c **** 
 720:.\Generated_Source\PSoC5/USBUART_1.c **** 
 721:.\Generated_Source\PSoC5/USBUART_1.c **** /*******************************************************************************
 722:.\Generated_Source\PSoC5/USBUART_1.c **** * Function Name: USBUART_1_GetEPState
 723:.\Generated_Source\PSoC5/USBUART_1.c **** ********************************************************************************
 724:.\Generated_Source\PSoC5/USBUART_1.c **** *
 725:.\Generated_Source\PSoC5/USBUART_1.c **** * Summary:
 726:.\Generated_Source\PSoC5/USBUART_1.c **** *  Returned the state of the requested endpoint.
 727:.\Generated_Source\PSoC5/USBUART_1.c **** *
 728:.\Generated_Source\PSoC5/USBUART_1.c **** * Parameters:
 729:.\Generated_Source\PSoC5/USBUART_1.c **** *  epNumber: Endpoint Number
 730:.\Generated_Source\PSoC5/USBUART_1.c **** *
 731:.\Generated_Source\PSoC5/USBUART_1.c **** * Return:
 732:.\Generated_Source\PSoC5/USBUART_1.c **** *  State of the requested endpoint.
 733:.\Generated_Source\PSoC5/USBUART_1.c **** *
 734:.\Generated_Source\PSoC5/USBUART_1.c **** *******************************************************************************/
 735:.\Generated_Source\PSoC5/USBUART_1.c **** uint8 USBUART_1_GetEPState(uint8 epNumber) 
 736:.\Generated_Source\PSoC5/USBUART_1.c **** {
 648              		.loc 1 736 0
 649              		.cfi_startproc
 650              		@ args = 0, pretend = 0, frame = 0
 651              		@ frame_needed = 0, uses_anonymous_args = 0
 652              		@ link register save eliminated.
 653              	.LVL34:
 737:.\Generated_Source\PSoC5/USBUART_1.c ****     return(USBUART_1_EP[epNumber].apiEpState);
 654              		.loc 1 737 0
 655 0000 00EB4000 		add	r0, r0, r0, lsl #1
 656              	.LVL35:
 657 0004 8000     		lsls	r0, r0, #2
 658 0006 024B     		ldr	r3, .L40
 659 0008 1844     		add	r0, r0, r3
 660 000a 4078     		ldrb	r0, [r0, #1]	@ zero_extendqisi2
 738:.\Generated_Source\PSoC5/USBUART_1.c **** }
 661              		.loc 1 738 0
 662 000c 7047     		bx	lr
 663              	.L41:
 664 000e 00BF     		.align	2
 665              	.L40:
 666 0010 00000000 		.word	USBUART_1_EP
 667              		.cfi_endproc
 668              	.LFE9:
 669              		.size	USBUART_1_GetEPState, .-USBUART_1_GetEPState
 670              		.section	.text.USBUART_1_GetEPCount,"ax",%progbits
 671              		.align	2
 672              		.global	USBUART_1_GetEPCount
 673              		.thumb
 674              		.thumb_func
 675              		.type	USBUART_1_GetEPCount, %function
 676              	USBUART_1_GetEPCount:
 677              	.LFB10:
 739:.\Generated_Source\PSoC5/USBUART_1.c **** 
 740:.\Generated_Source\PSoC5/USBUART_1.c **** 
 741:.\Generated_Source\PSoC5/USBUART_1.c **** /*******************************************************************************
 742:.\Generated_Source\PSoC5/USBUART_1.c **** * Function Name: USBUART_1_GetEPCount
ARM GAS  C:\Users\pxc\AppData\Local\Temp\ccwzKeIq.s 			page 26


 743:.\Generated_Source\PSoC5/USBUART_1.c **** ********************************************************************************
 744:.\Generated_Source\PSoC5/USBUART_1.c **** *
 745:.\Generated_Source\PSoC5/USBUART_1.c **** * Summary:
 746:.\Generated_Source\PSoC5/USBUART_1.c **** *  This function supports Data Endpoints only(EP1-EP8).
 747:.\Generated_Source\PSoC5/USBUART_1.c **** *  Returns the transfer count for the requested endpoint.  The value from
 748:.\Generated_Source\PSoC5/USBUART_1.c **** *  the count registers includes 2 counts for the two byte checksum of the
 749:.\Generated_Source\PSoC5/USBUART_1.c **** *  packet.  This function subtracts the two counts.
 750:.\Generated_Source\PSoC5/USBUART_1.c **** *
 751:.\Generated_Source\PSoC5/USBUART_1.c **** * Parameters:
 752:.\Generated_Source\PSoC5/USBUART_1.c **** *  epNumber: Data Endpoint Number.
 753:.\Generated_Source\PSoC5/USBUART_1.c **** *            Valid values are between 1 and 8.
 754:.\Generated_Source\PSoC5/USBUART_1.c **** *
 755:.\Generated_Source\PSoC5/USBUART_1.c **** * Return:
 756:.\Generated_Source\PSoC5/USBUART_1.c **** *  Returns the current byte count from the specified endpoint or 0 for an
 757:.\Generated_Source\PSoC5/USBUART_1.c **** *  invalid endpoint.
 758:.\Generated_Source\PSoC5/USBUART_1.c **** *
 759:.\Generated_Source\PSoC5/USBUART_1.c **** *******************************************************************************/
 760:.\Generated_Source\PSoC5/USBUART_1.c **** uint16 USBUART_1_GetEPCount(uint8 epNumber) 
 761:.\Generated_Source\PSoC5/USBUART_1.c **** {
 678              		.loc 1 761 0
 679              		.cfi_startproc
 680              		@ args = 0, pretend = 0, frame = 0
 681              		@ frame_needed = 0, uses_anonymous_args = 0
 682              		@ link register save eliminated.
 683              	.LVL36:
 762:.\Generated_Source\PSoC5/USBUART_1.c ****     uint8 ri;
 763:.\Generated_Source\PSoC5/USBUART_1.c ****     uint16 result = 0u;
 764:.\Generated_Source\PSoC5/USBUART_1.c **** 
 765:.\Generated_Source\PSoC5/USBUART_1.c ****     if((epNumber > USBUART_1_EP0) && (epNumber < USBUART_1_MAX_EP))
 684              		.loc 1 765 0
 685 0000 0138     		subs	r0, r0, #1
 686              	.LVL37:
 687 0002 C0B2     		uxtb	r0, r0
 688 0004 0728     		cmp	r0, #7
 689 0006 0CD8     		bhi	.L44
 766:.\Generated_Source\PSoC5/USBUART_1.c ****     {
 767:.\Generated_Source\PSoC5/USBUART_1.c ****         ri = ((epNumber - USBUART_1_EP1) << USBUART_1_EPX_CNTX_ADDR_SHIFT);
 690              		.loc 1 767 0
 691 0008 0001     		lsls	r0, r0, #4
 692 000a C0B2     		uxtb	r0, r0
 693              	.LVL38:
 768:.\Generated_Source\PSoC5/USBUART_1.c **** 
 769:.\Generated_Source\PSoC5/USBUART_1.c ****         result = (uint8)(CY_GET_REG8((reg8 *)(USBUART_1_SIE_EP1_CNT0_IND + ri)) &
 694              		.loc 1 769 0
 695 000c 064B     		ldr	r3, .L45
 696 000e C25C     		ldrb	r2, [r0, r3]	@ zero_extendqisi2
 697 0010 02F00F02 		and	r2, r2, #15
 698              	.LVL39:
 770:.\Generated_Source\PSoC5/USBUART_1.c ****                           USBUART_1_EPX_CNT0_MASK);
 771:.\Generated_Source\PSoC5/USBUART_1.c ****         result = (result << 8u) | CY_GET_REG8((reg8 *)(USBUART_1_SIE_EP1_CNT1_IND + ri));
 699              		.loc 1 771 0
 700 0014 0133     		adds	r3, r3, #1
 701 0016 C35C     		ldrb	r3, [r0, r3]	@ zero_extendqisi2
 702 0018 43EA0220 		orr	r0, r3, r2, lsl #8
 703              	.LVL40:
 772:.\Generated_Source\PSoC5/USBUART_1.c ****         result -= USBUART_1_EPX_CNTX_CRC_COUNT;
 704              		.loc 1 772 0
ARM GAS  C:\Users\pxc\AppData\Local\Temp\ccwzKeIq.s 			page 27


 705 001c 0238     		subs	r0, r0, #2
 706              	.LVL41:
 707 001e 80B2     		uxth	r0, r0
 708              	.LVL42:
 709 0020 7047     		bx	lr
 710              	.LVL43:
 711              	.L44:
 763:.\Generated_Source\PSoC5/USBUART_1.c **** 
 712              		.loc 1 763 0
 713 0022 0020     		movs	r0, #0
 714              	.LVL44:
 773:.\Generated_Source\PSoC5/USBUART_1.c ****     }
 774:.\Generated_Source\PSoC5/USBUART_1.c ****     return(result);
 775:.\Generated_Source\PSoC5/USBUART_1.c **** }
 715              		.loc 1 775 0
 716 0024 7047     		bx	lr
 717              	.L46:
 718 0026 00BF     		.align	2
 719              	.L45:
 720 0028 0C600040 		.word	1073766412
 721              		.cfi_endproc
 722              	.LFE10:
 723              		.size	USBUART_1_GetEPCount, .-USBUART_1_GetEPCount
 724              		.section	.text.USBUART_1_LoadInEP,"ax",%progbits
 725              		.align	2
 726              		.global	USBUART_1_LoadInEP
 727              		.thumb
 728              		.thumb_func
 729              		.type	USBUART_1_LoadInEP, %function
 730              	USBUART_1_LoadInEP:
 731              	.LFB11:
 776:.\Generated_Source\PSoC5/USBUART_1.c **** 
 777:.\Generated_Source\PSoC5/USBUART_1.c **** 
 778:.\Generated_Source\PSoC5/USBUART_1.c **** #if(USBUART_1_EP_MM != USBUART_1__EP_MANUAL)
 779:.\Generated_Source\PSoC5/USBUART_1.c **** 
 780:.\Generated_Source\PSoC5/USBUART_1.c **** 
 781:.\Generated_Source\PSoC5/USBUART_1.c ****     /*******************************************************************************
 782:.\Generated_Source\PSoC5/USBUART_1.c ****     * Function Name: USBUART_1_InitEP_DMA
 783:.\Generated_Source\PSoC5/USBUART_1.c ****     ********************************************************************************
 784:.\Generated_Source\PSoC5/USBUART_1.c ****     *
 785:.\Generated_Source\PSoC5/USBUART_1.c ****     * Summary:
 786:.\Generated_Source\PSoC5/USBUART_1.c ****     *  This function allocates and initializes a DMA channel to be used by the
 787:.\Generated_Source\PSoC5/USBUART_1.c ****     *  USBUART_1_LoadInEP() or USBUART_1_ReadOutEP() APIs for data
 788:.\Generated_Source\PSoC5/USBUART_1.c ****     *  transfer.
 789:.\Generated_Source\PSoC5/USBUART_1.c ****     *
 790:.\Generated_Source\PSoC5/USBUART_1.c ****     * Parameters:
 791:.\Generated_Source\PSoC5/USBUART_1.c ****     *  epNumber: Contains the data endpoint number.
 792:.\Generated_Source\PSoC5/USBUART_1.c ****     *            Valid values are between 1 and 8.
 793:.\Generated_Source\PSoC5/USBUART_1.c ****     *  *pData: Pointer to a data array that is related to the EP transfers.
 794:.\Generated_Source\PSoC5/USBUART_1.c ****     *
 795:.\Generated_Source\PSoC5/USBUART_1.c ****     * Return:
 796:.\Generated_Source\PSoC5/USBUART_1.c ****     *  None.
 797:.\Generated_Source\PSoC5/USBUART_1.c ****     *
 798:.\Generated_Source\PSoC5/USBUART_1.c ****     * Reentrant:
 799:.\Generated_Source\PSoC5/USBUART_1.c ****     *  No.
 800:.\Generated_Source\PSoC5/USBUART_1.c ****     *
 801:.\Generated_Source\PSoC5/USBUART_1.c ****     *******************************************************************************/
ARM GAS  C:\Users\pxc\AppData\Local\Temp\ccwzKeIq.s 			page 28


 802:.\Generated_Source\PSoC5/USBUART_1.c ****     void USBUART_1_InitEP_DMA(uint8 epNumber, const uint8* pData)
 803:.\Generated_Source\PSoC5/USBUART_1.c ****                                                                     
 804:.\Generated_Source\PSoC5/USBUART_1.c ****     {
 805:.\Generated_Source\PSoC5/USBUART_1.c ****         uint16 src;
 806:.\Generated_Source\PSoC5/USBUART_1.c ****         uint16 dst;
 807:.\Generated_Source\PSoC5/USBUART_1.c ****         #if (CY_PSOC3)                  /* PSoC 3 */
 808:.\Generated_Source\PSoC5/USBUART_1.c ****             src = HI16(CYDEV_SRAM_BASE);
 809:.\Generated_Source\PSoC5/USBUART_1.c ****             dst = HI16(CYDEV_PERIPH_BASE);
 810:.\Generated_Source\PSoC5/USBUART_1.c ****             pData = pData;
 811:.\Generated_Source\PSoC5/USBUART_1.c ****         #else                           /* PSoC 5 */
 812:.\Generated_Source\PSoC5/USBUART_1.c ****             if((USBUART_1_EP[epNumber].addr & USBUART_1_DIR_IN) != 0u )
 813:.\Generated_Source\PSoC5/USBUART_1.c ****             {   /* for the IN EP source is the SRAM memory buffer */
 814:.\Generated_Source\PSoC5/USBUART_1.c ****                 src = HI16(pData);
 815:.\Generated_Source\PSoC5/USBUART_1.c ****                 dst = HI16(CYDEV_PERIPH_BASE);
 816:.\Generated_Source\PSoC5/USBUART_1.c ****             }
 817:.\Generated_Source\PSoC5/USBUART_1.c ****             else
 818:.\Generated_Source\PSoC5/USBUART_1.c ****             {   /* for the OUT EP source is the SIE register */
 819:.\Generated_Source\PSoC5/USBUART_1.c ****                 src = HI16(CYDEV_PERIPH_BASE);
 820:.\Generated_Source\PSoC5/USBUART_1.c ****                 dst = HI16(pData);
 821:.\Generated_Source\PSoC5/USBUART_1.c ****             }
 822:.\Generated_Source\PSoC5/USBUART_1.c ****         #endif  /*  C51 */
 823:.\Generated_Source\PSoC5/USBUART_1.c ****         switch(epNumber)
 824:.\Generated_Source\PSoC5/USBUART_1.c ****         {
 825:.\Generated_Source\PSoC5/USBUART_1.c ****             case USBUART_1_EP1:
 826:.\Generated_Source\PSoC5/USBUART_1.c ****                 #if(USBUART_1_DMA1_REMOVE == 0u)
 827:.\Generated_Source\PSoC5/USBUART_1.c ****                     USBUART_1_DmaChan[epNumber] = USBUART_1_ep1_DmaInitialize(
 828:.\Generated_Source\PSoC5/USBUART_1.c ****                         USBUART_1_DMA_BYTES_PER_BURST, USBUART_1_DMA_REQUEST_PER_BURST, src, dst);
 829:.\Generated_Source\PSoC5/USBUART_1.c ****                 #endif   /*  USBUART_1_DMA1_REMOVE */
 830:.\Generated_Source\PSoC5/USBUART_1.c ****                 break;
 831:.\Generated_Source\PSoC5/USBUART_1.c ****             case USBUART_1_EP2:
 832:.\Generated_Source\PSoC5/USBUART_1.c ****                 #if(USBUART_1_DMA2_REMOVE == 0u)
 833:.\Generated_Source\PSoC5/USBUART_1.c ****                     USBUART_1_DmaChan[epNumber] = USBUART_1_ep2_DmaInitialize(
 834:.\Generated_Source\PSoC5/USBUART_1.c ****                         USBUART_1_DMA_BYTES_PER_BURST, USBUART_1_DMA_REQUEST_PER_BURST, src, dst);
 835:.\Generated_Source\PSoC5/USBUART_1.c ****                 #endif   /*  USBUART_1_DMA2_REMOVE */
 836:.\Generated_Source\PSoC5/USBUART_1.c ****                 break;
 837:.\Generated_Source\PSoC5/USBUART_1.c ****             case USBUART_1_EP3:
 838:.\Generated_Source\PSoC5/USBUART_1.c ****                 #if(USBUART_1_DMA3_REMOVE == 0u)
 839:.\Generated_Source\PSoC5/USBUART_1.c ****                     USBUART_1_DmaChan[epNumber] = USBUART_1_ep3_DmaInitialize(
 840:.\Generated_Source\PSoC5/USBUART_1.c ****                         USBUART_1_DMA_BYTES_PER_BURST, USBUART_1_DMA_REQUEST_PER_BURST, src, dst);
 841:.\Generated_Source\PSoC5/USBUART_1.c ****                 #endif   /*  USBUART_1_DMA3_REMOVE */
 842:.\Generated_Source\PSoC5/USBUART_1.c ****                 break;
 843:.\Generated_Source\PSoC5/USBUART_1.c ****             case USBUART_1_EP4:
 844:.\Generated_Source\PSoC5/USBUART_1.c ****                 #if(USBUART_1_DMA4_REMOVE == 0u)
 845:.\Generated_Source\PSoC5/USBUART_1.c ****                     USBUART_1_DmaChan[epNumber] = USBUART_1_ep4_DmaInitialize(
 846:.\Generated_Source\PSoC5/USBUART_1.c ****                         USBUART_1_DMA_BYTES_PER_BURST, USBUART_1_DMA_REQUEST_PER_BURST, src, dst);
 847:.\Generated_Source\PSoC5/USBUART_1.c ****                 #endif   /*  USBUART_1_DMA4_REMOVE */
 848:.\Generated_Source\PSoC5/USBUART_1.c ****                 break;
 849:.\Generated_Source\PSoC5/USBUART_1.c ****             case USBUART_1_EP5:
 850:.\Generated_Source\PSoC5/USBUART_1.c ****                 #if(USBUART_1_DMA5_REMOVE == 0u)
 851:.\Generated_Source\PSoC5/USBUART_1.c ****                     USBUART_1_DmaChan[epNumber] = USBUART_1_ep5_DmaInitialize(
 852:.\Generated_Source\PSoC5/USBUART_1.c ****                         USBUART_1_DMA_BYTES_PER_BURST, USBUART_1_DMA_REQUEST_PER_BURST, src, dst);
 853:.\Generated_Source\PSoC5/USBUART_1.c ****                 #endif   /*  USBUART_1_DMA5_REMOVE */
 854:.\Generated_Source\PSoC5/USBUART_1.c ****                 break;
 855:.\Generated_Source\PSoC5/USBUART_1.c ****             case USBUART_1_EP6:
 856:.\Generated_Source\PSoC5/USBUART_1.c ****                 #if(USBUART_1_DMA6_REMOVE == 0u)
 857:.\Generated_Source\PSoC5/USBUART_1.c ****                     USBUART_1_DmaChan[epNumber] = USBUART_1_ep6_DmaInitialize(
 858:.\Generated_Source\PSoC5/USBUART_1.c ****                         USBUART_1_DMA_BYTES_PER_BURST, USBUART_1_DMA_REQUEST_PER_BURST, src, dst);
ARM GAS  C:\Users\pxc\AppData\Local\Temp\ccwzKeIq.s 			page 29


 859:.\Generated_Source\PSoC5/USBUART_1.c ****                 #endif   /*  USBUART_1_DMA6_REMOVE */
 860:.\Generated_Source\PSoC5/USBUART_1.c ****                 break;
 861:.\Generated_Source\PSoC5/USBUART_1.c ****             case USBUART_1_EP7:
 862:.\Generated_Source\PSoC5/USBUART_1.c ****                 #if(USBUART_1_DMA7_REMOVE == 0u)
 863:.\Generated_Source\PSoC5/USBUART_1.c ****                     USBUART_1_DmaChan[epNumber] = USBUART_1_ep7_DmaInitialize(
 864:.\Generated_Source\PSoC5/USBUART_1.c ****                         USBUART_1_DMA_BYTES_PER_BURST, USBUART_1_DMA_REQUEST_PER_BURST, src, dst);
 865:.\Generated_Source\PSoC5/USBUART_1.c ****                 #endif   /*  USBUART_1_DMA7_REMOVE */
 866:.\Generated_Source\PSoC5/USBUART_1.c ****                 break;
 867:.\Generated_Source\PSoC5/USBUART_1.c ****             case USBUART_1_EP8:
 868:.\Generated_Source\PSoC5/USBUART_1.c ****                 #if(USBUART_1_DMA8_REMOVE == 0u)
 869:.\Generated_Source\PSoC5/USBUART_1.c ****                     USBUART_1_DmaChan[epNumber] = USBUART_1_ep8_DmaInitialize(
 870:.\Generated_Source\PSoC5/USBUART_1.c ****                         USBUART_1_DMA_BYTES_PER_BURST, USBUART_1_DMA_REQUEST_PER_BURST, src, dst);
 871:.\Generated_Source\PSoC5/USBUART_1.c ****                 #endif   /*  USBUART_1_DMA8_REMOVE */
 872:.\Generated_Source\PSoC5/USBUART_1.c ****                 break;
 873:.\Generated_Source\PSoC5/USBUART_1.c ****             default:
 874:.\Generated_Source\PSoC5/USBUART_1.c ****                 /* Do not support EP0 DMA transfers */
 875:.\Generated_Source\PSoC5/USBUART_1.c ****                 break;
 876:.\Generated_Source\PSoC5/USBUART_1.c ****         }
 877:.\Generated_Source\PSoC5/USBUART_1.c ****         if((epNumber > USBUART_1_EP0) && (epNumber < USBUART_1_MAX_EP))
 878:.\Generated_Source\PSoC5/USBUART_1.c ****         {
 879:.\Generated_Source\PSoC5/USBUART_1.c ****             USBUART_1_DmaTd[epNumber] = CyDmaTdAllocate();
 880:.\Generated_Source\PSoC5/USBUART_1.c ****             #if ((USBUART_1_EP_MM == USBUART_1__EP_DMAAUTO) && (USBUART_1_EP_DMA_AUTO_OPT == 0u))
 881:.\Generated_Source\PSoC5/USBUART_1.c ****                 USBUART_1_DmaNextTd[epNumber] = CyDmaTdAllocate();
 882:.\Generated_Source\PSoC5/USBUART_1.c ****             #endif /*  ((USBUART_1_EP_MM == USBUART_1__EP_DMAAUTO) && (USBUART_1_EP_DMA_AUTO_OPT ==
 883:.\Generated_Source\PSoC5/USBUART_1.c **** 
 884:.\Generated_Source\PSoC5/USBUART_1.c ****         }
 885:.\Generated_Source\PSoC5/USBUART_1.c ****     }
 886:.\Generated_Source\PSoC5/USBUART_1.c **** 
 887:.\Generated_Source\PSoC5/USBUART_1.c **** 
 888:.\Generated_Source\PSoC5/USBUART_1.c ****     /*******************************************************************************
 889:.\Generated_Source\PSoC5/USBUART_1.c ****     * Function Name: USBUART_1_Stop_DMA
 890:.\Generated_Source\PSoC5/USBUART_1.c ****     ********************************************************************************
 891:.\Generated_Source\PSoC5/USBUART_1.c ****     *
 892:.\Generated_Source\PSoC5/USBUART_1.c ****     * Summary: Stops and free DMA
 893:.\Generated_Source\PSoC5/USBUART_1.c ****     *
 894:.\Generated_Source\PSoC5/USBUART_1.c ****     * Parameters:
 895:.\Generated_Source\PSoC5/USBUART_1.c ****     *  epNumber: Contains the data endpoint number or
 896:.\Generated_Source\PSoC5/USBUART_1.c ****     *           USBUART_1_MAX_EP to stop all DMAs
 897:.\Generated_Source\PSoC5/USBUART_1.c ****     *
 898:.\Generated_Source\PSoC5/USBUART_1.c ****     * Return:
 899:.\Generated_Source\PSoC5/USBUART_1.c ****     *  None.
 900:.\Generated_Source\PSoC5/USBUART_1.c ****     *
 901:.\Generated_Source\PSoC5/USBUART_1.c ****     * Reentrant:
 902:.\Generated_Source\PSoC5/USBUART_1.c ****     *  No.
 903:.\Generated_Source\PSoC5/USBUART_1.c ****     *
 904:.\Generated_Source\PSoC5/USBUART_1.c ****     *******************************************************************************/
 905:.\Generated_Source\PSoC5/USBUART_1.c ****     void USBUART_1_Stop_DMA(uint8 epNumber) 
 906:.\Generated_Source\PSoC5/USBUART_1.c ****     {
 907:.\Generated_Source\PSoC5/USBUART_1.c ****         uint8 i;
 908:.\Generated_Source\PSoC5/USBUART_1.c ****         i = (epNumber < USBUART_1_MAX_EP) ? epNumber : USBUART_1_EP1;
 909:.\Generated_Source\PSoC5/USBUART_1.c ****         do
 910:.\Generated_Source\PSoC5/USBUART_1.c ****         {
 911:.\Generated_Source\PSoC5/USBUART_1.c ****             if(USBUART_1_DmaTd[i] != DMA_INVALID_TD)
 912:.\Generated_Source\PSoC5/USBUART_1.c ****             {
 913:.\Generated_Source\PSoC5/USBUART_1.c ****                 (void) CyDmaChDisable(USBUART_1_DmaChan[i]);
 914:.\Generated_Source\PSoC5/USBUART_1.c ****                 CyDmaTdFree(USBUART_1_DmaTd[i]);
 915:.\Generated_Source\PSoC5/USBUART_1.c ****                 USBUART_1_DmaTd[i] = DMA_INVALID_TD;
ARM GAS  C:\Users\pxc\AppData\Local\Temp\ccwzKeIq.s 			page 30


 916:.\Generated_Source\PSoC5/USBUART_1.c ****             }
 917:.\Generated_Source\PSoC5/USBUART_1.c ****             #if ((USBUART_1_EP_MM == USBUART_1__EP_DMAAUTO) && (USBUART_1_EP_DMA_AUTO_OPT == 0u))
 918:.\Generated_Source\PSoC5/USBUART_1.c ****                 if(USBUART_1_DmaNextTd[i] != DMA_INVALID_TD)
 919:.\Generated_Source\PSoC5/USBUART_1.c ****                 {
 920:.\Generated_Source\PSoC5/USBUART_1.c ****                     CyDmaTdFree(USBUART_1_DmaNextTd[i]);
 921:.\Generated_Source\PSoC5/USBUART_1.c ****                     USBUART_1_DmaNextTd[i] = DMA_INVALID_TD;
 922:.\Generated_Source\PSoC5/USBUART_1.c ****                 }
 923:.\Generated_Source\PSoC5/USBUART_1.c ****             #endif /* ((USBUART_1_EP_MM == USBUART_1__EP_DMAAUTO) && (USBUART_1_EP_DMA_AUTO_OPT == 
 924:.\Generated_Source\PSoC5/USBUART_1.c ****             i++;
 925:.\Generated_Source\PSoC5/USBUART_1.c ****         }while((i < USBUART_1_MAX_EP) && (epNumber == USBUART_1_MAX_EP));
 926:.\Generated_Source\PSoC5/USBUART_1.c ****     }
 927:.\Generated_Source\PSoC5/USBUART_1.c **** 
 928:.\Generated_Source\PSoC5/USBUART_1.c **** #endif /*  USBUART_1_EP_MM != USBUART_1__EP_MANUAL */
 929:.\Generated_Source\PSoC5/USBUART_1.c **** 
 930:.\Generated_Source\PSoC5/USBUART_1.c **** 
 931:.\Generated_Source\PSoC5/USBUART_1.c **** #if ((USBUART_1_EP_MM == USBUART_1__EP_DMAAUTO) && (USBUART_1_EP_DMA_AUTO_OPT == 0u))
 932:.\Generated_Source\PSoC5/USBUART_1.c **** 
 933:.\Generated_Source\PSoC5/USBUART_1.c **** 
 934:.\Generated_Source\PSoC5/USBUART_1.c ****     /*******************************************************************************
 935:.\Generated_Source\PSoC5/USBUART_1.c ****     * Function Name: USBUART_1_LoadNextInEP
 936:.\Generated_Source\PSoC5/USBUART_1.c ****     ********************************************************************************
 937:.\Generated_Source\PSoC5/USBUART_1.c ****     *
 938:.\Generated_Source\PSoC5/USBUART_1.c ****     * Summary:
 939:.\Generated_Source\PSoC5/USBUART_1.c ****     *  This internal function is used for IN endpoint DMA reconfiguration in
 940:.\Generated_Source\PSoC5/USBUART_1.c ****     *  Auto DMA mode.
 941:.\Generated_Source\PSoC5/USBUART_1.c ****     *
 942:.\Generated_Source\PSoC5/USBUART_1.c ****     * Parameters:
 943:.\Generated_Source\PSoC5/USBUART_1.c ****     *  epNumber: Contains the data endpoint number.
 944:.\Generated_Source\PSoC5/USBUART_1.c ****     *  mode:   0 - Configure DMA to send the the rest of data.
 945:.\Generated_Source\PSoC5/USBUART_1.c ****     *          1 - Configure DMA to repeat 2 last bytes of the first burst.
 946:.\Generated_Source\PSoC5/USBUART_1.c ****     *
 947:.\Generated_Source\PSoC5/USBUART_1.c ****     * Return:
 948:.\Generated_Source\PSoC5/USBUART_1.c ****     *  None.
 949:.\Generated_Source\PSoC5/USBUART_1.c ****     *
 950:.\Generated_Source\PSoC5/USBUART_1.c ****     *******************************************************************************/
 951:.\Generated_Source\PSoC5/USBUART_1.c ****     void USBUART_1_LoadNextInEP(uint8 epNumber, uint8 mode) 
 952:.\Generated_Source\PSoC5/USBUART_1.c ****     {
 953:.\Generated_Source\PSoC5/USBUART_1.c ****         reg16 *convert;
 954:.\Generated_Source\PSoC5/USBUART_1.c **** 
 955:.\Generated_Source\PSoC5/USBUART_1.c ****         if(mode == 0u)
 956:.\Generated_Source\PSoC5/USBUART_1.c ****         {
 957:.\Generated_Source\PSoC5/USBUART_1.c ****             /* Configure DMA to send the the rest of data */
 958:.\Generated_Source\PSoC5/USBUART_1.c ****             /* CyDmaTdSetConfiguration API is optimised to change only transfer length and configur
 959:.\Generated_Source\PSoC5/USBUART_1.c ****             convert = (reg16 *) &CY_DMA_TDMEM_STRUCT_PTR[USBUART_1_DmaTd[epNumber]].TD0[0u];
 960:.\Generated_Source\PSoC5/USBUART_1.c ****             /* Set transfer length */
 961:.\Generated_Source\PSoC5/USBUART_1.c ****             CY_SET_REG16(convert, USBUART_1_inLength[epNumber] - USBUART_1_DMA_BYTES_PER_BURST);
 962:.\Generated_Source\PSoC5/USBUART_1.c ****             /* CyDmaTdSetAddress API is optimized to change only source address */
 963:.\Generated_Source\PSoC5/USBUART_1.c ****             convert = (reg16 *) &CY_DMA_TDMEM_STRUCT_PTR[USBUART_1_DmaTd[epNumber]].TD1[0u];
 964:.\Generated_Source\PSoC5/USBUART_1.c ****             CY_SET_REG16(convert, LO16((uint32)USBUART_1_inDataPointer[epNumber] +
 965:.\Generated_Source\PSoC5/USBUART_1.c ****                                             USBUART_1_DMA_BYTES_PER_BURST));
 966:.\Generated_Source\PSoC5/USBUART_1.c ****             USBUART_1_inBufFull[epNumber] = 1u;
 967:.\Generated_Source\PSoC5/USBUART_1.c ****         }
 968:.\Generated_Source\PSoC5/USBUART_1.c ****         else
 969:.\Generated_Source\PSoC5/USBUART_1.c ****         {
 970:.\Generated_Source\PSoC5/USBUART_1.c ****             /* Configure DMA to repeat 2 last bytes of the first burst. */
 971:.\Generated_Source\PSoC5/USBUART_1.c ****             /* CyDmaTdSetConfiguration API is optimised to change only transfer length and configur
 972:.\Generated_Source\PSoC5/USBUART_1.c ****             convert = (reg16 *) &CY_DMA_TDMEM_STRUCT_PTR[USBUART_1_DmaTd[epNumber]].TD0[0u];
ARM GAS  C:\Users\pxc\AppData\Local\Temp\ccwzKeIq.s 			page 31


 973:.\Generated_Source\PSoC5/USBUART_1.c ****             /* Set transfer length */
 974:.\Generated_Source\PSoC5/USBUART_1.c ****             CY_SET_REG16(convert, USBUART_1_DMA_BYTES_REPEAT);
 975:.\Generated_Source\PSoC5/USBUART_1.c ****             /* CyDmaTdSetAddress API is optimized to change only source address */
 976:.\Generated_Source\PSoC5/USBUART_1.c ****             convert = (reg16 *) &CY_DMA_TDMEM_STRUCT_PTR[USBUART_1_DmaTd[epNumber]].TD1[0u];
 977:.\Generated_Source\PSoC5/USBUART_1.c ****             CY_SET_REG16(convert,  LO16((uint32)USBUART_1_inDataPointer[epNumber] +
 978:.\Generated_Source\PSoC5/USBUART_1.c ****                                    USBUART_1_DMA_BYTES_PER_BURST - USBUART_1_DMA_BYTES_REPEAT));
 979:.\Generated_Source\PSoC5/USBUART_1.c ****         }
 980:.\Generated_Source\PSoC5/USBUART_1.c **** 
 981:.\Generated_Source\PSoC5/USBUART_1.c ****         /* CyDmaChSetInitialTd API is optimised to init TD */
 982:.\Generated_Source\PSoC5/USBUART_1.c ****         CY_DMA_CH_STRUCT_PTR[USBUART_1_DmaChan[epNumber]].basic_status[1u] = USBUART_1_DmaTd[epNumb
 983:.\Generated_Source\PSoC5/USBUART_1.c ****     }
 984:.\Generated_Source\PSoC5/USBUART_1.c **** #endif /* ((USBUART_1_EP_MM == USBUART_1__EP_DMAAUTO) && (USBUART_1_EP_DMA_AUTO_OPT == 0u)) */
 985:.\Generated_Source\PSoC5/USBUART_1.c **** 
 986:.\Generated_Source\PSoC5/USBUART_1.c **** 
 987:.\Generated_Source\PSoC5/USBUART_1.c **** /*******************************************************************************
 988:.\Generated_Source\PSoC5/USBUART_1.c **** * Function Name: USBUART_1_LoadInEP
 989:.\Generated_Source\PSoC5/USBUART_1.c **** ********************************************************************************
 990:.\Generated_Source\PSoC5/USBUART_1.c **** *
 991:.\Generated_Source\PSoC5/USBUART_1.c **** * Summary:
 992:.\Generated_Source\PSoC5/USBUART_1.c **** *  Loads and enables the specified USB data endpoint for an IN transfer.
 993:.\Generated_Source\PSoC5/USBUART_1.c **** *
 994:.\Generated_Source\PSoC5/USBUART_1.c **** * Parameters:
 995:.\Generated_Source\PSoC5/USBUART_1.c **** *  epNumber: Contains the data endpoint number.
 996:.\Generated_Source\PSoC5/USBUART_1.c **** *            Valid values are between 1 and 8.
 997:.\Generated_Source\PSoC5/USBUART_1.c **** *  *pData: A pointer to a data array from which the data for the endpoint space
 998:.\Generated_Source\PSoC5/USBUART_1.c **** *          is loaded.
 999:.\Generated_Source\PSoC5/USBUART_1.c **** *  length: The number of bytes to transfer from the array and then send as a
1000:.\Generated_Source\PSoC5/USBUART_1.c **** *          result of an IN request. Valid values are between 0 and 512.
1001:.\Generated_Source\PSoC5/USBUART_1.c **** *
1002:.\Generated_Source\PSoC5/USBUART_1.c **** * Return:
1003:.\Generated_Source\PSoC5/USBUART_1.c **** *  None.
1004:.\Generated_Source\PSoC5/USBUART_1.c **** *
1005:.\Generated_Source\PSoC5/USBUART_1.c **** * Reentrant:
1006:.\Generated_Source\PSoC5/USBUART_1.c **** *  No.
1007:.\Generated_Source\PSoC5/USBUART_1.c **** *
1008:.\Generated_Source\PSoC5/USBUART_1.c **** *******************************************************************************/
1009:.\Generated_Source\PSoC5/USBUART_1.c **** void USBUART_1_LoadInEP(uint8 epNumber, const uint8 pData[], uint16 length)
1010:.\Generated_Source\PSoC5/USBUART_1.c ****                                                                         
1011:.\Generated_Source\PSoC5/USBUART_1.c **** {
 732              		.loc 1 1011 0
 733              		.cfi_startproc
 734              		@ args = 0, pretend = 0, frame = 0
 735              		@ frame_needed = 0, uses_anonymous_args = 0
 736              		@ link register save eliminated.
 737              	.LVL45:
 738 0000 70B4     		push	{r4, r5, r6}
 739              		.cfi_def_cfa_offset 12
 740              		.cfi_offset 4, -12
 741              		.cfi_offset 5, -8
 742              		.cfi_offset 6, -4
1012:.\Generated_Source\PSoC5/USBUART_1.c ****     uint8 ri;
1013:.\Generated_Source\PSoC5/USBUART_1.c ****     reg8 *p;
1014:.\Generated_Source\PSoC5/USBUART_1.c ****     #if(USBUART_1_EP_MM == USBUART_1__EP_MANUAL)
1015:.\Generated_Source\PSoC5/USBUART_1.c ****         uint16 i;
1016:.\Generated_Source\PSoC5/USBUART_1.c ****     #endif /*  USBUART_1_EP_MM == USBUART_1__EP_MANUAL */
1017:.\Generated_Source\PSoC5/USBUART_1.c **** 
1018:.\Generated_Source\PSoC5/USBUART_1.c ****     if((epNumber > USBUART_1_EP0) && (epNumber < USBUART_1_MAX_EP))
ARM GAS  C:\Users\pxc\AppData\Local\Temp\ccwzKeIq.s 			page 32


 743              		.loc 1 1018 0
 744 0002 451E     		subs	r5, r0, #1
 745 0004 EDB2     		uxtb	r5, r5
 746 0006 072D     		cmp	r5, #7
 747 0008 38D8     		bhi	.L47
1019:.\Generated_Source\PSoC5/USBUART_1.c ****     {
1020:.\Generated_Source\PSoC5/USBUART_1.c ****         ri = ((epNumber - USBUART_1_EP1) << USBUART_1_EPX_CNTX_ADDR_SHIFT);
 748              		.loc 1 1020 0
 749 000a 2D01     		lsls	r5, r5, #4
 750 000c EDB2     		uxtb	r5, r5
1021:.\Generated_Source\PSoC5/USBUART_1.c ****         p = (reg8 *)(USBUART_1_ARB_RW1_DR_IND + ri);
 751              		.loc 1 1021 0
 752 000e 1C4E     		ldr	r6, .L55
 753 0010 2E44     		add	r6, r6, r5
 754              	.LVL46:
1022:.\Generated_Source\PSoC5/USBUART_1.c **** 
1023:.\Generated_Source\PSoC5/USBUART_1.c ****         #if(USBUART_1_EP_MM != USBUART_1__EP_DMAAUTO)
1024:.\Generated_Source\PSoC5/USBUART_1.c ****             /* Limits length to available buffer space, auto MM could send packets up to 1024 bytes
1025:.\Generated_Source\PSoC5/USBUART_1.c ****             if(length > (USBUART_1_EPX_DATA_BUF_MAX - USBUART_1_EP[epNumber].buffOffset))
 755              		.loc 1 1025 0
 756 0012 00EB4003 		add	r3, r0, r0, lsl #1
 757 0016 9B00     		lsls	r3, r3, #2
 758 0018 1A4C     		ldr	r4, .L55+4
 759 001a 2344     		add	r3, r3, r4
 760 001c DB88     		ldrh	r3, [r3, #6]
 761 001e 9BB2     		uxth	r3, r3
 762 0020 C3F50073 		rsb	r3, r3, #512
 763 0024 9A42     		cmp	r2, r3
 764 0026 07D9     		bls	.L49
1026:.\Generated_Source\PSoC5/USBUART_1.c ****             {
1027:.\Generated_Source\PSoC5/USBUART_1.c ****                 length = USBUART_1_EPX_DATA_BUF_MAX - USBUART_1_EP[epNumber].buffOffset;
 765              		.loc 1 1027 0
 766 0028 00EB4003 		add	r3, r0, r0, lsl #1
 767 002c 9B00     		lsls	r3, r3, #2
 768 002e 2344     		add	r3, r3, r4
 769 0030 DA88     		ldrh	r2, [r3, #6]
 770              	.LVL47:
 771 0032 C2F50072 		rsb	r2, r2, #512
 772 0036 92B2     		uxth	r2, r2
 773              	.LVL48:
 774              	.L49:
1028:.\Generated_Source\PSoC5/USBUART_1.c ****             }
1029:.\Generated_Source\PSoC5/USBUART_1.c ****         #endif /*  USBUART_1_EP_MM != USBUART_1__EP_DMAAUTO */
1030:.\Generated_Source\PSoC5/USBUART_1.c **** 
1031:.\Generated_Source\PSoC5/USBUART_1.c ****         /* Set the count and data toggle */
1032:.\Generated_Source\PSoC5/USBUART_1.c ****         CY_SET_REG8((reg8 *)(USBUART_1_SIE_EP1_CNT0_IND + ri),
 775              		.loc 1 1032 0
 776 0038 00EB4003 		add	r3, r0, r0, lsl #1
 777 003c 9B00     		lsls	r3, r3, #2
 778 003e 114C     		ldr	r4, .L55+4
 779 0040 2344     		add	r3, r3, r4
 780 0042 DB78     		ldrb	r3, [r3, #3]	@ zero_extendqisi2
 781 0044 43EA1223 		orr	r3, r3, r2, lsr #8
 782 0048 0F4C     		ldr	r4, .L55+8
 783 004a 2B55     		strb	r3, [r5, r4]
1033:.\Generated_Source\PSoC5/USBUART_1.c ****                             (length >> 8u) | (USBUART_1_EP[epNumber].epToggle));
1034:.\Generated_Source\PSoC5/USBUART_1.c ****         CY_SET_REG8((reg8 *)(USBUART_1_SIE_EP1_CNT1_IND + ri),  length & 0xFFu);
ARM GAS  C:\Users\pxc\AppData\Local\Temp\ccwzKeIq.s 			page 33


 784              		.loc 1 1034 0
 785 004c D3B2     		uxtb	r3, r2
 786 004e 0134     		adds	r4, r4, #1
 787 0050 2B55     		strb	r3, [r5, r4]
1035:.\Generated_Source\PSoC5/USBUART_1.c **** 
1036:.\Generated_Source\PSoC5/USBUART_1.c ****         #if(USBUART_1_EP_MM == USBUART_1__EP_MANUAL)
1037:.\Generated_Source\PSoC5/USBUART_1.c ****             if(pData != NULL)
 788              		.loc 1 1037 0
 789 0052 29B9     		cbnz	r1, .L53
 790 0054 07E0     		b	.L51
 791              	.LVL49:
 792              	.L52:
1038:.\Generated_Source\PSoC5/USBUART_1.c ****             {
1039:.\Generated_Source\PSoC5/USBUART_1.c ****                 /* Copy the data using the arbiter data register */
1040:.\Generated_Source\PSoC5/USBUART_1.c ****                 for (i = 0u; i < length; i++)
1041:.\Generated_Source\PSoC5/USBUART_1.c ****                 {
1042:.\Generated_Source\PSoC5/USBUART_1.c ****                     CY_SET_REG8(p, pData[i]);
 793              		.loc 1 1042 0 discriminator 3
 794 0056 CC5C     		ldrb	r4, [r1, r3]	@ zero_extendqisi2
 795 0058 3470     		strb	r4, [r6]
1040:.\Generated_Source\PSoC5/USBUART_1.c ****                 {
 796              		.loc 1 1040 0 discriminator 3
 797 005a 0133     		adds	r3, r3, #1
 798              	.LVL50:
 799 005c 9BB2     		uxth	r3, r3
 800              	.LVL51:
 801 005e 00E0     		b	.L50
 802              	.LVL52:
 803              	.L53:
 804 0060 0023     		movs	r3, #0
 805              	.L50:
 806              	.LVL53:
1040:.\Generated_Source\PSoC5/USBUART_1.c ****                 {
 807              		.loc 1 1040 0 is_stmt 0 discriminator 1
 808 0062 9342     		cmp	r3, r2
 809 0064 F7D3     		bcc	.L52
 810              	.LVL54:
 811              	.L51:
1043:.\Generated_Source\PSoC5/USBUART_1.c ****                 }
1044:.\Generated_Source\PSoC5/USBUART_1.c ****             }
1045:.\Generated_Source\PSoC5/USBUART_1.c ****             USBUART_1_EP[epNumber].apiEpState = USBUART_1_NO_EVENT_PENDING;
 812              		.loc 1 1045 0 is_stmt 1
 813 0066 074A     		ldr	r2, .L55+4
 814              	.LVL55:
 815 0068 4100     		lsls	r1, r0, #1
 816              	.LVL56:
 817 006a 0B18     		adds	r3, r1, r0
 818 006c 9B00     		lsls	r3, r3, #2
 819 006e 1344     		add	r3, r3, r2
 820 0070 0024     		movs	r4, #0
 821 0072 5C70     		strb	r4, [r3, #1]
1046:.\Generated_Source\PSoC5/USBUART_1.c ****             /* Write the Mode register */
1047:.\Generated_Source\PSoC5/USBUART_1.c ****             CY_SET_REG8((reg8 *)(USBUART_1_SIE_EP1_CR0_IND + ri), USBUART_1_EP[epNumber].epMode);
 822              		.loc 1 1047 0
 823 0074 5B79     		ldrb	r3, [r3, #5]	@ zero_extendqisi2
 824 0076 DBB2     		uxtb	r3, r3
 825 0078 044A     		ldr	r2, .L55+12
ARM GAS  C:\Users\pxc\AppData\Local\Temp\ccwzKeIq.s 			page 34


 826 007a AB54     		strb	r3, [r5, r2]
 827              	.LVL57:
 828              	.L47:
1048:.\Generated_Source\PSoC5/USBUART_1.c ****         #else
1049:.\Generated_Source\PSoC5/USBUART_1.c ****             /* Init DMA if it was not initialized */
1050:.\Generated_Source\PSoC5/USBUART_1.c ****             if (USBUART_1_DmaTd[epNumber] == DMA_INVALID_TD)
1051:.\Generated_Source\PSoC5/USBUART_1.c ****             {
1052:.\Generated_Source\PSoC5/USBUART_1.c ****                 USBUART_1_InitEP_DMA(epNumber, pData);
1053:.\Generated_Source\PSoC5/USBUART_1.c ****             }
1054:.\Generated_Source\PSoC5/USBUART_1.c ****         #endif /*  USBUART_1_EP_MM == USBUART_1__EP_MANUAL */
1055:.\Generated_Source\PSoC5/USBUART_1.c **** 
1056:.\Generated_Source\PSoC5/USBUART_1.c ****         #if(USBUART_1_EP_MM == USBUART_1__EP_DMAMANUAL)
1057:.\Generated_Source\PSoC5/USBUART_1.c ****             USBUART_1_EP[epNumber].apiEpState = USBUART_1_NO_EVENT_PENDING;
1058:.\Generated_Source\PSoC5/USBUART_1.c ****             if ((pData != NULL) && (length > 0u))
1059:.\Generated_Source\PSoC5/USBUART_1.c ****             {
1060:.\Generated_Source\PSoC5/USBUART_1.c ****                 /* Enable DMA in mode2 for transferring data */
1061:.\Generated_Source\PSoC5/USBUART_1.c ****                 (void) CyDmaChDisable(USBUART_1_DmaChan[epNumber]);
1062:.\Generated_Source\PSoC5/USBUART_1.c ****                 (void) CyDmaTdSetConfiguration(USBUART_1_DmaTd[epNumber], length, CY_DMA_DISABLE_TD
1063:.\Generated_Source\PSoC5/USBUART_1.c ****                                                                                  TD_TERMIN_EN | TD_
1064:.\Generated_Source\PSoC5/USBUART_1.c ****                 (void) CyDmaTdSetAddress(USBUART_1_DmaTd[epNumber],  LO16((uint32)pData), LO16((uin
1065:.\Generated_Source\PSoC5/USBUART_1.c ****                 /* Enable the DMA */
1066:.\Generated_Source\PSoC5/USBUART_1.c ****                 (void) CyDmaChSetInitialTd(USBUART_1_DmaChan[epNumber], USBUART_1_DmaTd[epNumber]);
1067:.\Generated_Source\PSoC5/USBUART_1.c ****                 (void) CyDmaChEnable(USBUART_1_DmaChan[epNumber], 1u);
1068:.\Generated_Source\PSoC5/USBUART_1.c ****                 /* Generate DMA request */
1069:.\Generated_Source\PSoC5/USBUART_1.c ****                 * (reg8 *)(USBUART_1_ARB_EP1_CFG_IND + ri) |= USBUART_1_ARB_EPX_CFG_DMA_REQ;
1070:.\Generated_Source\PSoC5/USBUART_1.c ****                 * (reg8 *)(USBUART_1_ARB_EP1_CFG_IND + ri) &= ((uint8)(~USBUART_1_ARB_EPX_CFG_DMA_R
1071:.\Generated_Source\PSoC5/USBUART_1.c ****                 /* Mode register will be written in arb ISR after DMA transfer complete */
1072:.\Generated_Source\PSoC5/USBUART_1.c ****             }
1073:.\Generated_Source\PSoC5/USBUART_1.c ****             else
1074:.\Generated_Source\PSoC5/USBUART_1.c ****             {
1075:.\Generated_Source\PSoC5/USBUART_1.c ****                 /* When zero-length packet - write the Mode register directly */
1076:.\Generated_Source\PSoC5/USBUART_1.c ****                 CY_SET_REG8((reg8 *)(USBUART_1_SIE_EP1_CR0_IND + ri), USBUART_1_EP[epNumber].epMode
1077:.\Generated_Source\PSoC5/USBUART_1.c ****             }
1078:.\Generated_Source\PSoC5/USBUART_1.c ****         #endif /*  USBUART_1_EP_MM == USBUART_1__EP_DMAMANUAL */
1079:.\Generated_Source\PSoC5/USBUART_1.c **** 
1080:.\Generated_Source\PSoC5/USBUART_1.c ****         #if(USBUART_1_EP_MM == USBUART_1__EP_DMAAUTO)
1081:.\Generated_Source\PSoC5/USBUART_1.c ****             if (pData != NULL)
1082:.\Generated_Source\PSoC5/USBUART_1.c ****             {
1083:.\Generated_Source\PSoC5/USBUART_1.c ****                 /* Enable DMA in mode3 for transferring data */
1084:.\Generated_Source\PSoC5/USBUART_1.c ****                 (void) CyDmaChDisable(USBUART_1_DmaChan[epNumber]);
1085:.\Generated_Source\PSoC5/USBUART_1.c ****             #if (USBUART_1_EP_DMA_AUTO_OPT == 0u)
1086:.\Generated_Source\PSoC5/USBUART_1.c ****                 USBUART_1_inLength[epNumber] = length;
1087:.\Generated_Source\PSoC5/USBUART_1.c ****                 USBUART_1_inDataPointer[epNumber] = pData;
1088:.\Generated_Source\PSoC5/USBUART_1.c ****                 /* Configure DMA to send the data only for the first burst */
1089:.\Generated_Source\PSoC5/USBUART_1.c ****                 (void) CyDmaTdSetConfiguration(USBUART_1_DmaTd[epNumber],
1090:.\Generated_Source\PSoC5/USBUART_1.c ****                     (length > USBUART_1_DMA_BYTES_PER_BURST) ? USBUART_1_DMA_BYTES_PER_BURST : leng
1091:.\Generated_Source\PSoC5/USBUART_1.c ****                     USBUART_1_DmaNextTd[epNumber], TD_TERMIN_EN | TD_INC_SRC_ADR);
1092:.\Generated_Source\PSoC5/USBUART_1.c ****                 (void) CyDmaTdSetAddress(USBUART_1_DmaTd[epNumber],  LO16((uint32)pData), LO16((uin
1093:.\Generated_Source\PSoC5/USBUART_1.c ****                 /* The second TD will be executed only when the first one fails.
1094:.\Generated_Source\PSoC5/USBUART_1.c ****                 *  The intention of this TD is to generate NRQ interrupt
1095:.\Generated_Source\PSoC5/USBUART_1.c ****                 *  and repeat 2 last bytes of the first burst.
1096:.\Generated_Source\PSoC5/USBUART_1.c ****                 */
1097:.\Generated_Source\PSoC5/USBUART_1.c ****                 (void) CyDmaTdSetConfiguration(USBUART_1_DmaNextTd[epNumber], 1u,
1098:.\Generated_Source\PSoC5/USBUART_1.c ****                                                USBUART_1_DmaNextTd[epNumber],
1099:.\Generated_Source\PSoC5/USBUART_1.c ****                                                USBUART_1_epX_TD_TERMOUT_EN[epNumber]);
1100:.\Generated_Source\PSoC5/USBUART_1.c ****                 /* Configure DmaNextTd to clear Data ready status */
1101:.\Generated_Source\PSoC5/USBUART_1.c ****                 (void) CyDmaTdSetAddress(USBUART_1_DmaNextTd[epNumber],  LO16((uint32)&clearInDataR
ARM GAS  C:\Users\pxc\AppData\Local\Temp\ccwzKeIq.s 			page 35


1102:.\Generated_Source\PSoC5/USBUART_1.c ****                                                                 LO16((uint32)(USBUART_1_ARB_EP1_CFG
1103:.\Generated_Source\PSoC5/USBUART_1.c ****             #else /* Configure DMA to send all data*/
1104:.\Generated_Source\PSoC5/USBUART_1.c ****                 (void) CyDmaTdSetConfiguration(USBUART_1_DmaTd[epNumber], length,
1105:.\Generated_Source\PSoC5/USBUART_1.c ****                                                USBUART_1_DmaTd[epNumber], TD_TERMIN_EN | TD_INC_SRC
1106:.\Generated_Source\PSoC5/USBUART_1.c ****                 (void) CyDmaTdSetAddress(USBUART_1_DmaTd[epNumber],  LO16((uint32)pData), LO16((uin
1107:.\Generated_Source\PSoC5/USBUART_1.c ****             #endif /* USBUART_1_EP_DMA_AUTO_OPT == 0u */
1108:.\Generated_Source\PSoC5/USBUART_1.c **** 
1109:.\Generated_Source\PSoC5/USBUART_1.c ****                 /* Clear Any potential pending DMA requests before starting the DMA channel to tran
1110:.\Generated_Source\PSoC5/USBUART_1.c ****                 (void) CyDmaClearPendingDrq(USBUART_1_DmaChan[epNumber]);
1111:.\Generated_Source\PSoC5/USBUART_1.c ****                 /* Enable the DMA */
1112:.\Generated_Source\PSoC5/USBUART_1.c ****                 (void) CyDmaChSetInitialTd(USBUART_1_DmaChan[epNumber], USBUART_1_DmaTd[epNumber]);
1113:.\Generated_Source\PSoC5/USBUART_1.c ****                 (void) CyDmaChEnable(USBUART_1_DmaChan[epNumber], 1u);
1114:.\Generated_Source\PSoC5/USBUART_1.c ****             }
1115:.\Generated_Source\PSoC5/USBUART_1.c ****             else
1116:.\Generated_Source\PSoC5/USBUART_1.c ****             {
1117:.\Generated_Source\PSoC5/USBUART_1.c ****                 USBUART_1_EP[epNumber].apiEpState = USBUART_1_NO_EVENT_PENDING;
1118:.\Generated_Source\PSoC5/USBUART_1.c ****                 if(length > 0u)
1119:.\Generated_Source\PSoC5/USBUART_1.c ****                 {
1120:.\Generated_Source\PSoC5/USBUART_1.c ****                 #if (USBUART_1_EP_DMA_AUTO_OPT == 0u)
1121:.\Generated_Source\PSoC5/USBUART_1.c ****                     USBUART_1_inLength[epNumber] = length;
1122:.\Generated_Source\PSoC5/USBUART_1.c ****                     USBUART_1_inBufFull[epNumber] = 0u;
1123:.\Generated_Source\PSoC5/USBUART_1.c ****                     (void) CyDmaChDisable(USBUART_1_DmaChan[epNumber]);
1124:.\Generated_Source\PSoC5/USBUART_1.c ****                     /* Configure DMA to send the data only for the first burst */
1125:.\Generated_Source\PSoC5/USBUART_1.c ****                     (void) CyDmaTdSetConfiguration(
1126:.\Generated_Source\PSoC5/USBUART_1.c ****                         USBUART_1_DmaTd[epNumber], (length > USBUART_1_DMA_BYTES_PER_BURST) ?
1127:.\Generated_Source\PSoC5/USBUART_1.c ****                         USBUART_1_DMA_BYTES_PER_BURST : length,
1128:.\Generated_Source\PSoC5/USBUART_1.c ****                         USBUART_1_DmaNextTd[epNumber], TD_TERMIN_EN | TD_INC_SRC_ADR );
1129:.\Generated_Source\PSoC5/USBUART_1.c ****                     (void) CyDmaTdSetAddress(USBUART_1_DmaTd[epNumber],
1130:.\Generated_Source\PSoC5/USBUART_1.c ****                                              LO16((uint32)USBUART_1_inDataPointer[epNumber]), LO16(
1131:.\Generated_Source\PSoC5/USBUART_1.c ****                     /* Clear Any potential pending DMA requests before starting the DMA channel to 
1132:.\Generated_Source\PSoC5/USBUART_1.c ****                     (void) CyDmaClearPendingDrq(USBUART_1_DmaChan[epNumber]);
1133:.\Generated_Source\PSoC5/USBUART_1.c ****                     /* Enable the DMA */
1134:.\Generated_Source\PSoC5/USBUART_1.c ****                     (void) CyDmaChSetInitialTd(USBUART_1_DmaChan[epNumber], USBUART_1_DmaTd[epNumbe
1135:.\Generated_Source\PSoC5/USBUART_1.c ****                     (void) CyDmaChEnable(USBUART_1_DmaChan[epNumber], 1u);
1136:.\Generated_Source\PSoC5/USBUART_1.c ****                 #endif /* (USBUART_1_EP_DMA_AUTO_OPT == 0u) */
1137:.\Generated_Source\PSoC5/USBUART_1.c **** 
1138:.\Generated_Source\PSoC5/USBUART_1.c ****                     /* Set Data ready status, This will generate DMA request */
1139:.\Generated_Source\PSoC5/USBUART_1.c ****                     #ifndef USBUART_1_MANUAL_IN_EP_ARM
1140:.\Generated_Source\PSoC5/USBUART_1.c ****                         * (reg8 *)(USBUART_1_ARB_EP1_CFG_IND + ri) |= USBUART_1_ARB_EPX_CFG_IN_DATA
1141:.\Generated_Source\PSoC5/USBUART_1.c ****                     #endif  /* USBUART_1_MANUAL_IN_EP_ARM */
1142:.\Generated_Source\PSoC5/USBUART_1.c ****                     /* Mode register will be written in arb ISR(In Buffer Full) after first DMA tra
1143:.\Generated_Source\PSoC5/USBUART_1.c ****                 }
1144:.\Generated_Source\PSoC5/USBUART_1.c ****                 else
1145:.\Generated_Source\PSoC5/USBUART_1.c ****                 {
1146:.\Generated_Source\PSoC5/USBUART_1.c ****                     /* When zero-length packet - write the Mode register directly */
1147:.\Generated_Source\PSoC5/USBUART_1.c ****                     CY_SET_REG8((reg8 *)(USBUART_1_SIE_EP1_CR0_IND + ri), USBUART_1_EP[epNumber].ep
1148:.\Generated_Source\PSoC5/USBUART_1.c ****                 }
1149:.\Generated_Source\PSoC5/USBUART_1.c ****             }
1150:.\Generated_Source\PSoC5/USBUART_1.c ****         #endif /*  USBUART_1_EP_MM == USBUART_1__EP_DMAAUTO */
1151:.\Generated_Source\PSoC5/USBUART_1.c ****     }
1152:.\Generated_Source\PSoC5/USBUART_1.c **** }
 829              		.loc 1 1152 0
 830 007c 70BC     		pop	{r4, r5, r6}
 831              		.cfi_restore 6
 832              		.cfi_restore 5
 833              		.cfi_restore 4
 834              		.cfi_def_cfa_offset 0
ARM GAS  C:\Users\pxc\AppData\Local\Temp\ccwzKeIq.s 			page 36


 835 007e 7047     		bx	lr
 836              	.L56:
 837              		.align	2
 838              	.L55:
 839 0080 88600040 		.word	1073766536
 840 0084 00000000 		.word	USBUART_1_EP
 841 0088 0C600040 		.word	1073766412
 842 008c 0E600040 		.word	1073766414
 843              		.cfi_endproc
 844              	.LFE11:
 845              		.size	USBUART_1_LoadInEP, .-USBUART_1_LoadInEP
 846              		.section	.text.USBUART_1_EnableOutEP,"ax",%progbits
 847              		.align	2
 848              		.global	USBUART_1_EnableOutEP
 849              		.thumb
 850              		.thumb_func
 851              		.type	USBUART_1_EnableOutEP, %function
 852              	USBUART_1_EnableOutEP:
 853              	.LFB13:
1153:.\Generated_Source\PSoC5/USBUART_1.c **** 
1154:.\Generated_Source\PSoC5/USBUART_1.c **** 
1155:.\Generated_Source\PSoC5/USBUART_1.c **** /*******************************************************************************
1156:.\Generated_Source\PSoC5/USBUART_1.c **** * Function Name: USBUART_1_ReadOutEP
1157:.\Generated_Source\PSoC5/USBUART_1.c **** ********************************************************************************
1158:.\Generated_Source\PSoC5/USBUART_1.c **** *
1159:.\Generated_Source\PSoC5/USBUART_1.c **** * Summary:
1160:.\Generated_Source\PSoC5/USBUART_1.c **** *  Read data from an endpoint.  The application must call
1161:.\Generated_Source\PSoC5/USBUART_1.c **** *  USBUART_1_GetEPState to see if an event is pending.
1162:.\Generated_Source\PSoC5/USBUART_1.c **** *
1163:.\Generated_Source\PSoC5/USBUART_1.c **** * Parameters:
1164:.\Generated_Source\PSoC5/USBUART_1.c **** *  epNumber: Contains the data endpoint number.
1165:.\Generated_Source\PSoC5/USBUART_1.c **** *            Valid values are between 1 and 8.
1166:.\Generated_Source\PSoC5/USBUART_1.c **** *  pData: A pointer to a data array from which the data for the endpoint space
1167:.\Generated_Source\PSoC5/USBUART_1.c **** *         is loaded.
1168:.\Generated_Source\PSoC5/USBUART_1.c **** *  length: The number of bytes to transfer from the USB Out endpoint and loads
1169:.\Generated_Source\PSoC5/USBUART_1.c **** *          it into data array. Valid values are between 0 and 1023. The function
1170:.\Generated_Source\PSoC5/USBUART_1.c **** *          moves fewer than the requested number of bytes if the host sends
1171:.\Generated_Source\PSoC5/USBUART_1.c **** *          fewer bytes than requested.
1172:.\Generated_Source\PSoC5/USBUART_1.c **** *
1173:.\Generated_Source\PSoC5/USBUART_1.c **** * Returns:
1174:.\Generated_Source\PSoC5/USBUART_1.c **** *  Number of bytes received, 0 for an invalid endpoint.
1175:.\Generated_Source\PSoC5/USBUART_1.c **** *
1176:.\Generated_Source\PSoC5/USBUART_1.c **** * Reentrant:
1177:.\Generated_Source\PSoC5/USBUART_1.c **** *  No.
1178:.\Generated_Source\PSoC5/USBUART_1.c **** *
1179:.\Generated_Source\PSoC5/USBUART_1.c **** *******************************************************************************/
1180:.\Generated_Source\PSoC5/USBUART_1.c **** uint16 USBUART_1_ReadOutEP(uint8 epNumber, uint8 pData[], uint16 length)
1181:.\Generated_Source\PSoC5/USBUART_1.c ****                                                                         
1182:.\Generated_Source\PSoC5/USBUART_1.c **** {
1183:.\Generated_Source\PSoC5/USBUART_1.c ****     uint8 ri;
1184:.\Generated_Source\PSoC5/USBUART_1.c ****     reg8 *p;
1185:.\Generated_Source\PSoC5/USBUART_1.c ****     #if(USBUART_1_EP_MM == USBUART_1__EP_MANUAL)
1186:.\Generated_Source\PSoC5/USBUART_1.c ****         uint16 i;
1187:.\Generated_Source\PSoC5/USBUART_1.c ****     #endif /*  USBUART_1_EP_MM == USBUART_1__EP_MANUAL */
1188:.\Generated_Source\PSoC5/USBUART_1.c ****     #if(USBUART_1_EP_MM != USBUART_1__EP_DMAAUTO)
1189:.\Generated_Source\PSoC5/USBUART_1.c ****         uint16 xferCount;
1190:.\Generated_Source\PSoC5/USBUART_1.c ****     #endif /*  USBUART_1_EP_MM != USBUART_1__EP_DMAAUTO */
ARM GAS  C:\Users\pxc\AppData\Local\Temp\ccwzKeIq.s 			page 37


1191:.\Generated_Source\PSoC5/USBUART_1.c **** 
1192:.\Generated_Source\PSoC5/USBUART_1.c ****     if((epNumber > USBUART_1_EP0) && (epNumber < USBUART_1_MAX_EP) && (pData != NULL))
1193:.\Generated_Source\PSoC5/USBUART_1.c ****     {
1194:.\Generated_Source\PSoC5/USBUART_1.c ****         ri = ((epNumber - USBUART_1_EP1) << USBUART_1_EPX_CNTX_ADDR_SHIFT);
1195:.\Generated_Source\PSoC5/USBUART_1.c ****         p = (reg8 *)(USBUART_1_ARB_RW1_DR_IND + ri);
1196:.\Generated_Source\PSoC5/USBUART_1.c **** 
1197:.\Generated_Source\PSoC5/USBUART_1.c ****         #if(USBUART_1_EP_MM != USBUART_1__EP_DMAAUTO)
1198:.\Generated_Source\PSoC5/USBUART_1.c ****             /* Determine which is smaller the requested data or the available data */
1199:.\Generated_Source\PSoC5/USBUART_1.c ****             xferCount = USBUART_1_GetEPCount(epNumber);
1200:.\Generated_Source\PSoC5/USBUART_1.c ****             if (length > xferCount)
1201:.\Generated_Source\PSoC5/USBUART_1.c ****             {
1202:.\Generated_Source\PSoC5/USBUART_1.c ****                 length = xferCount;
1203:.\Generated_Source\PSoC5/USBUART_1.c ****             }
1204:.\Generated_Source\PSoC5/USBUART_1.c ****         #endif /*  USBUART_1_EP_MM != USBUART_1__EP_DMAAUTO */
1205:.\Generated_Source\PSoC5/USBUART_1.c **** 
1206:.\Generated_Source\PSoC5/USBUART_1.c ****         #if(USBUART_1_EP_MM == USBUART_1__EP_MANUAL)
1207:.\Generated_Source\PSoC5/USBUART_1.c ****             /* Copy the data using the arbiter data register */
1208:.\Generated_Source\PSoC5/USBUART_1.c ****             for (i = 0u; i < length; i++)
1209:.\Generated_Source\PSoC5/USBUART_1.c ****             {
1210:.\Generated_Source\PSoC5/USBUART_1.c ****                 pData[i] = CY_GET_REG8(p);
1211:.\Generated_Source\PSoC5/USBUART_1.c ****             }
1212:.\Generated_Source\PSoC5/USBUART_1.c **** 
1213:.\Generated_Source\PSoC5/USBUART_1.c ****             /* (re)arming of OUT endpoint */
1214:.\Generated_Source\PSoC5/USBUART_1.c ****             USBUART_1_EnableOutEP(epNumber);
1215:.\Generated_Source\PSoC5/USBUART_1.c ****         #else
1216:.\Generated_Source\PSoC5/USBUART_1.c ****             /*Init DMA if it was not initialized */
1217:.\Generated_Source\PSoC5/USBUART_1.c ****             if(USBUART_1_DmaTd[epNumber] == DMA_INVALID_TD)
1218:.\Generated_Source\PSoC5/USBUART_1.c ****             {
1219:.\Generated_Source\PSoC5/USBUART_1.c ****                 USBUART_1_InitEP_DMA(epNumber, pData);
1220:.\Generated_Source\PSoC5/USBUART_1.c ****             }
1221:.\Generated_Source\PSoC5/USBUART_1.c **** 
1222:.\Generated_Source\PSoC5/USBUART_1.c ****         #endif /*  USBUART_1_EP_MM == USBUART_1__EP_MANUAL */
1223:.\Generated_Source\PSoC5/USBUART_1.c **** 
1224:.\Generated_Source\PSoC5/USBUART_1.c ****         #if(USBUART_1_EP_MM == USBUART_1__EP_DMAMANUAL)
1225:.\Generated_Source\PSoC5/USBUART_1.c ****             /* Enable DMA in mode2 for transferring data */
1226:.\Generated_Source\PSoC5/USBUART_1.c ****             (void) CyDmaChDisable(USBUART_1_DmaChan[epNumber]);
1227:.\Generated_Source\PSoC5/USBUART_1.c ****             (void) CyDmaTdSetConfiguration(USBUART_1_DmaTd[epNumber], length, CY_DMA_DISABLE_TD,
1228:.\Generated_Source\PSoC5/USBUART_1.c ****                                                                                 TD_TERMIN_EN | TD_I
1229:.\Generated_Source\PSoC5/USBUART_1.c ****             (void) CyDmaTdSetAddress(USBUART_1_DmaTd[epNumber],  LO16((uint32)p), LO16((uint32)pDat
1230:.\Generated_Source\PSoC5/USBUART_1.c ****             /* Enable the DMA */
1231:.\Generated_Source\PSoC5/USBUART_1.c ****             (void) CyDmaChSetInitialTd(USBUART_1_DmaChan[epNumber], USBUART_1_DmaTd[epNumber]);
1232:.\Generated_Source\PSoC5/USBUART_1.c ****             (void) CyDmaChEnable(USBUART_1_DmaChan[epNumber], 1u);
1233:.\Generated_Source\PSoC5/USBUART_1.c **** 
1234:.\Generated_Source\PSoC5/USBUART_1.c ****             /* Generate DMA request */
1235:.\Generated_Source\PSoC5/USBUART_1.c ****             * (reg8 *)(USBUART_1_ARB_EP1_CFG_IND + ri) |= USBUART_1_ARB_EPX_CFG_DMA_REQ;
1236:.\Generated_Source\PSoC5/USBUART_1.c ****             * (reg8 *)(USBUART_1_ARB_EP1_CFG_IND + ri) &= ((uint8)(~USBUART_1_ARB_EPX_CFG_DMA_REQ))
1237:.\Generated_Source\PSoC5/USBUART_1.c ****             /* Out EP will be (re)armed in arb ISR after transfer complete */
1238:.\Generated_Source\PSoC5/USBUART_1.c ****         #endif /*  USBUART_1_EP_MM == USBUART_1__EP_DMAMANUAL */
1239:.\Generated_Source\PSoC5/USBUART_1.c **** 
1240:.\Generated_Source\PSoC5/USBUART_1.c ****         #if(USBUART_1_EP_MM == USBUART_1__EP_DMAAUTO)
1241:.\Generated_Source\PSoC5/USBUART_1.c ****             /* Enable DMA in mode3 for transferring data */
1242:.\Generated_Source\PSoC5/USBUART_1.c ****             (void) CyDmaChDisable(USBUART_1_DmaChan[epNumber]);
1243:.\Generated_Source\PSoC5/USBUART_1.c ****             (void) CyDmaTdSetConfiguration(USBUART_1_DmaTd[epNumber], length, USBUART_1_DmaTd[epNum
1244:.\Generated_Source\PSoC5/USBUART_1.c ****                                                                                 TD_TERMIN_EN | TD_I
1245:.\Generated_Source\PSoC5/USBUART_1.c ****             (void) CyDmaTdSetAddress(USBUART_1_DmaTd[epNumber],  LO16((uint32)p), LO16((uint32)pDat
1246:.\Generated_Source\PSoC5/USBUART_1.c **** 
1247:.\Generated_Source\PSoC5/USBUART_1.c ****             /* Clear Any potential pending DMA requests before starting the DMA channel to transfer
ARM GAS  C:\Users\pxc\AppData\Local\Temp\ccwzKeIq.s 			page 38


1248:.\Generated_Source\PSoC5/USBUART_1.c ****             (void) CyDmaClearPendingDrq(USBUART_1_DmaChan[epNumber]);
1249:.\Generated_Source\PSoC5/USBUART_1.c ****             /* Enable the DMA */
1250:.\Generated_Source\PSoC5/USBUART_1.c ****             (void) CyDmaChSetInitialTd(USBUART_1_DmaChan[epNumber], USBUART_1_DmaTd[epNumber]);
1251:.\Generated_Source\PSoC5/USBUART_1.c ****             (void) CyDmaChEnable(USBUART_1_DmaChan[epNumber], 1u);
1252:.\Generated_Source\PSoC5/USBUART_1.c ****             /* Out EP will be (re)armed in arb ISR after transfer complete */
1253:.\Generated_Source\PSoC5/USBUART_1.c ****         #endif /*  USBUART_1_EP_MM == USBUART_1__EP_DMAAUTO */
1254:.\Generated_Source\PSoC5/USBUART_1.c **** 
1255:.\Generated_Source\PSoC5/USBUART_1.c ****     }
1256:.\Generated_Source\PSoC5/USBUART_1.c ****     else
1257:.\Generated_Source\PSoC5/USBUART_1.c ****     {
1258:.\Generated_Source\PSoC5/USBUART_1.c ****         length = 0u;
1259:.\Generated_Source\PSoC5/USBUART_1.c ****     }
1260:.\Generated_Source\PSoC5/USBUART_1.c **** 
1261:.\Generated_Source\PSoC5/USBUART_1.c ****     return(length);
1262:.\Generated_Source\PSoC5/USBUART_1.c **** }
1263:.\Generated_Source\PSoC5/USBUART_1.c **** 
1264:.\Generated_Source\PSoC5/USBUART_1.c **** 
1265:.\Generated_Source\PSoC5/USBUART_1.c **** /*******************************************************************************
1266:.\Generated_Source\PSoC5/USBUART_1.c **** * Function Name: USBUART_1_EnableOutEP
1267:.\Generated_Source\PSoC5/USBUART_1.c **** ********************************************************************************
1268:.\Generated_Source\PSoC5/USBUART_1.c **** *
1269:.\Generated_Source\PSoC5/USBUART_1.c **** * Summary:
1270:.\Generated_Source\PSoC5/USBUART_1.c **** *  This function enables an OUT endpoint.  It should not be
1271:.\Generated_Source\PSoC5/USBUART_1.c **** *  called for an IN endpoint.
1272:.\Generated_Source\PSoC5/USBUART_1.c **** *
1273:.\Generated_Source\PSoC5/USBUART_1.c **** * Parameters:
1274:.\Generated_Source\PSoC5/USBUART_1.c **** *  epNumber: Endpoint Number
1275:.\Generated_Source\PSoC5/USBUART_1.c **** *            Valid values are between 1 and 8.
1276:.\Generated_Source\PSoC5/USBUART_1.c **** *
1277:.\Generated_Source\PSoC5/USBUART_1.c **** * Return:
1278:.\Generated_Source\PSoC5/USBUART_1.c **** *   None.
1279:.\Generated_Source\PSoC5/USBUART_1.c **** *
1280:.\Generated_Source\PSoC5/USBUART_1.c **** * Global variables:
1281:.\Generated_Source\PSoC5/USBUART_1.c **** *  USBUART_1_EP[epNumber].apiEpState - set to NO_EVENT_PENDING
1282:.\Generated_Source\PSoC5/USBUART_1.c **** *
1283:.\Generated_Source\PSoC5/USBUART_1.c **** * Reentrant:
1284:.\Generated_Source\PSoC5/USBUART_1.c **** *  No.
1285:.\Generated_Source\PSoC5/USBUART_1.c **** *
1286:.\Generated_Source\PSoC5/USBUART_1.c **** *******************************************************************************/
1287:.\Generated_Source\PSoC5/USBUART_1.c **** void USBUART_1_EnableOutEP(uint8 epNumber) 
1288:.\Generated_Source\PSoC5/USBUART_1.c **** {
 854              		.loc 1 1288 0
 855              		.cfi_startproc
 856              		@ args = 0, pretend = 0, frame = 0
 857              		@ frame_needed = 0, uses_anonymous_args = 0
 858              		@ link register save eliminated.
 859              	.LVL58:
1289:.\Generated_Source\PSoC5/USBUART_1.c ****     uint8 ri;
1290:.\Generated_Source\PSoC5/USBUART_1.c **** 
1291:.\Generated_Source\PSoC5/USBUART_1.c ****     if((epNumber > USBUART_1_EP0) && (epNumber < USBUART_1_MAX_EP))
 860              		.loc 1 1291 0
 861 0000 431E     		subs	r3, r0, #1
 862 0002 DBB2     		uxtb	r3, r3
 863 0004 072B     		cmp	r3, #7
 864 0006 0ED8     		bhi	.L61
1288:.\Generated_Source\PSoC5/USBUART_1.c ****     uint8 ri;
 865              		.loc 1 1288 0
ARM GAS  C:\Users\pxc\AppData\Local\Temp\ccwzKeIq.s 			page 39


 866 0008 30B4     		push	{r4, r5}
 867              		.cfi_def_cfa_offset 8
 868              		.cfi_offset 4, -8
 869              		.cfi_offset 5, -4
1292:.\Generated_Source\PSoC5/USBUART_1.c ****     {
1293:.\Generated_Source\PSoC5/USBUART_1.c ****         ri = ((epNumber - USBUART_1_EP1) << USBUART_1_EPX_CNTX_ADDR_SHIFT);
 870              		.loc 1 1293 0
 871 000a 1B01     		lsls	r3, r3, #4
 872 000c DBB2     		uxtb	r3, r3
 873              	.LVL59:
1294:.\Generated_Source\PSoC5/USBUART_1.c ****         USBUART_1_EP[epNumber].apiEpState = USBUART_1_NO_EVENT_PENDING;
 874              		.loc 1 1294 0
 875 000e 0649     		ldr	r1, .L62
 876 0010 4400     		lsls	r4, r0, #1
 877 0012 2218     		adds	r2, r4, r0
 878 0014 9200     		lsls	r2, r2, #2
 879 0016 0A44     		add	r2, r2, r1
 880 0018 0025     		movs	r5, #0
 881 001a 5570     		strb	r5, [r2, #1]
1295:.\Generated_Source\PSoC5/USBUART_1.c ****         /* Write the Mode register */
1296:.\Generated_Source\PSoC5/USBUART_1.c ****         CY_SET_REG8((reg8 *)(USBUART_1_SIE_EP1_CR0_IND + ri), USBUART_1_EP[epNumber].epMode);
 882              		.loc 1 1296 0
 883 001c 5279     		ldrb	r2, [r2, #5]	@ zero_extendqisi2
 884 001e D2B2     		uxtb	r2, r2
 885 0020 0249     		ldr	r1, .L62+4
 886 0022 5A54     		strb	r2, [r3, r1]
1297:.\Generated_Source\PSoC5/USBUART_1.c ****     }
1298:.\Generated_Source\PSoC5/USBUART_1.c **** }
 887              		.loc 1 1298 0
 888 0024 30BC     		pop	{r4, r5}
 889              		.cfi_restore 5
 890              		.cfi_restore 4
 891              		.cfi_def_cfa_offset 0
 892              	.LVL60:
 893              	.L61:
 894 0026 7047     		bx	lr
 895              	.L63:
 896              		.align	2
 897              	.L62:
 898 0028 00000000 		.word	USBUART_1_EP
 899 002c 0E600040 		.word	1073766414
 900              		.cfi_endproc
 901              	.LFE13:
 902              		.size	USBUART_1_EnableOutEP, .-USBUART_1_EnableOutEP
 903              		.section	.text.USBUART_1_ReadOutEP,"ax",%progbits
 904              		.align	2
 905              		.global	USBUART_1_ReadOutEP
 906              		.thumb
 907              		.thumb_func
 908              		.type	USBUART_1_ReadOutEP, %function
 909              	USBUART_1_ReadOutEP:
 910              	.LFB12:
1182:.\Generated_Source\PSoC5/USBUART_1.c ****     uint8 ri;
 911              		.loc 1 1182 0
 912              		.cfi_startproc
 913              		@ args = 0, pretend = 0, frame = 0
 914              		@ frame_needed = 0, uses_anonymous_args = 0
ARM GAS  C:\Users\pxc\AppData\Local\Temp\ccwzKeIq.s 			page 40


 915              	.LVL61:
 916 0000 2DE9F041 		push	{r4, r5, r6, r7, r8, lr}
 917              		.cfi_def_cfa_offset 24
 918              		.cfi_offset 4, -24
 919              		.cfi_offset 5, -20
 920              		.cfi_offset 6, -16
 921              		.cfi_offset 7, -12
 922              		.cfi_offset 8, -8
 923              		.cfi_offset 14, -4
1192:.\Generated_Source\PSoC5/USBUART_1.c ****     {
 924              		.loc 1 1192 0
 925 0004 431E     		subs	r3, r0, #1
 926 0006 DBB2     		uxtb	r3, r3
 927 0008 072B     		cmp	r3, #7
 928 000a 19D8     		bhi	.L69
1192:.\Generated_Source\PSoC5/USBUART_1.c ****     {
 929              		.loc 1 1192 0 is_stmt 0 discriminator 1
 930 000c D1B1     		cbz	r1, .L70
 931 000e 9046     		mov	r8, r2
 932 0010 0D46     		mov	r5, r1
 933 0012 0646     		mov	r6, r0
1194:.\Generated_Source\PSoC5/USBUART_1.c ****         p = (reg8 *)(USBUART_1_ARB_RW1_DR_IND + ri);
 934              		.loc 1 1194 0 is_stmt 1
 935 0014 1B01     		lsls	r3, r3, #4
 936 0016 DBB2     		uxtb	r3, r3
 937              	.LVL62:
1195:.\Generated_Source\PSoC5/USBUART_1.c **** 
 938              		.loc 1 1195 0
 939 0018 0C4F     		ldr	r7, .L72
 940 001a 1F44     		add	r7, r7, r3
 941              	.LVL63:
1199:.\Generated_Source\PSoC5/USBUART_1.c ****             if (length > xferCount)
 942              		.loc 1 1199 0
 943 001c FFF7FEFF 		bl	USBUART_1_GetEPCount
 944              	.LVL64:
 945 0020 0446     		mov	r4, r0
 946              	.LVL65:
1200:.\Generated_Source\PSoC5/USBUART_1.c ****             {
 947              		.loc 1 1200 0
 948 0022 8045     		cmp	r8, r0
 949 0024 00D8     		bhi	.L66
 950 0026 4446     		mov	r4, r8
 951              	.L66:
 952              	.LVL66:
1208:.\Generated_Source\PSoC5/USBUART_1.c ****             {
 953              		.loc 1 1208 0
 954 0028 0023     		movs	r3, #0
 955 002a 03E0     		b	.L67
 956              	.LVL67:
 957              	.L68:
1210:.\Generated_Source\PSoC5/USBUART_1.c ****             }
 958              		.loc 1 1210 0 discriminator 3
 959 002c 3A78     		ldrb	r2, [r7]	@ zero_extendqisi2
 960 002e EA54     		strb	r2, [r5, r3]
1208:.\Generated_Source\PSoC5/USBUART_1.c ****             {
 961              		.loc 1 1208 0 discriminator 3
 962 0030 0133     		adds	r3, r3, #1
ARM GAS  C:\Users\pxc\AppData\Local\Temp\ccwzKeIq.s 			page 41


 963              	.LVL68:
 964 0032 9BB2     		uxth	r3, r3
 965              	.LVL69:
 966              	.L67:
1208:.\Generated_Source\PSoC5/USBUART_1.c ****             {
 967              		.loc 1 1208 0 is_stmt 0 discriminator 1
 968 0034 A342     		cmp	r3, r4
 969 0036 F9D3     		bcc	.L68
1214:.\Generated_Source\PSoC5/USBUART_1.c ****         #else
 970              		.loc 1 1214 0 is_stmt 1
 971 0038 3046     		mov	r0, r6
 972              	.LVL70:
 973 003a FFF7FEFF 		bl	USBUART_1_EnableOutEP
 974              	.LVL71:
 975 003e 02E0     		b	.L65
 976              	.LVL72:
 977              	.L69:
1258:.\Generated_Source\PSoC5/USBUART_1.c ****     }
 978              		.loc 1 1258 0
 979 0040 0024     		movs	r4, #0
 980 0042 00E0     		b	.L65
 981              	.L70:
 982 0044 0024     		movs	r4, #0
 983              	.LVL73:
 984              	.L65:
1262:.\Generated_Source\PSoC5/USBUART_1.c **** 
 985              		.loc 1 1262 0
 986 0046 2046     		mov	r0, r4
 987 0048 BDE8F081 		pop	{r4, r5, r6, r7, r8, pc}
 988              	.LVL74:
 989              	.L73:
 990              		.align	2
 991              	.L72:
 992 004c 88600040 		.word	1073766536
 993              		.cfi_endproc
 994              	.LFE12:
 995              		.size	USBUART_1_ReadOutEP, .-USBUART_1_ReadOutEP
 996              		.section	.text.USBUART_1_DisableOutEP,"ax",%progbits
 997              		.align	2
 998              		.global	USBUART_1_DisableOutEP
 999              		.thumb
 1000              		.thumb_func
 1001              		.type	USBUART_1_DisableOutEP, %function
 1002              	USBUART_1_DisableOutEP:
 1003              	.LFB14:
1299:.\Generated_Source\PSoC5/USBUART_1.c **** 
1300:.\Generated_Source\PSoC5/USBUART_1.c **** 
1301:.\Generated_Source\PSoC5/USBUART_1.c **** /*******************************************************************************
1302:.\Generated_Source\PSoC5/USBUART_1.c **** * Function Name: USBUART_1_DisableOutEP
1303:.\Generated_Source\PSoC5/USBUART_1.c **** ********************************************************************************
1304:.\Generated_Source\PSoC5/USBUART_1.c **** *
1305:.\Generated_Source\PSoC5/USBUART_1.c **** * Summary:
1306:.\Generated_Source\PSoC5/USBUART_1.c **** *  This function disables an OUT endpoint.  It should not be
1307:.\Generated_Source\PSoC5/USBUART_1.c **** *  called for an IN endpoint.
1308:.\Generated_Source\PSoC5/USBUART_1.c **** *
1309:.\Generated_Source\PSoC5/USBUART_1.c **** * Parameters:
1310:.\Generated_Source\PSoC5/USBUART_1.c **** *  epNumber: Endpoint Number
ARM GAS  C:\Users\pxc\AppData\Local\Temp\ccwzKeIq.s 			page 42


1311:.\Generated_Source\PSoC5/USBUART_1.c **** *            Valid values are between 1 and 8.
1312:.\Generated_Source\PSoC5/USBUART_1.c **** *
1313:.\Generated_Source\PSoC5/USBUART_1.c **** * Return:
1314:.\Generated_Source\PSoC5/USBUART_1.c **** *  None.
1315:.\Generated_Source\PSoC5/USBUART_1.c **** *
1316:.\Generated_Source\PSoC5/USBUART_1.c **** *******************************************************************************/
1317:.\Generated_Source\PSoC5/USBUART_1.c **** void USBUART_1_DisableOutEP(uint8 epNumber) 
1318:.\Generated_Source\PSoC5/USBUART_1.c **** {
 1004              		.loc 1 1318 0
 1005              		.cfi_startproc
 1006              		@ args = 0, pretend = 0, frame = 0
 1007              		@ frame_needed = 0, uses_anonymous_args = 0
 1008              		@ link register save eliminated.
 1009              	.LVL75:
1319:.\Generated_Source\PSoC5/USBUART_1.c ****     uint8 ri ;
1320:.\Generated_Source\PSoC5/USBUART_1.c **** 
1321:.\Generated_Source\PSoC5/USBUART_1.c ****     if((epNumber > USBUART_1_EP0) && (epNumber < USBUART_1_MAX_EP))
 1010              		.loc 1 1321 0
 1011 0000 0138     		subs	r0, r0, #1
 1012              	.LVL76:
 1013 0002 C0B2     		uxtb	r0, r0
 1014 0004 0728     		cmp	r0, #7
 1015 0006 04D8     		bhi	.L74
1322:.\Generated_Source\PSoC5/USBUART_1.c ****     {
1323:.\Generated_Source\PSoC5/USBUART_1.c ****         ri = ((epNumber - USBUART_1_EP1) << USBUART_1_EPX_CNTX_ADDR_SHIFT);
 1016              		.loc 1 1323 0
 1017 0008 0001     		lsls	r0, r0, #4
 1018 000a C0B2     		uxtb	r0, r0
 1019              	.LVL77:
1324:.\Generated_Source\PSoC5/USBUART_1.c ****         /* Write the Mode register */
1325:.\Generated_Source\PSoC5/USBUART_1.c ****         CY_SET_REG8((reg8 *)(USBUART_1_SIE_EP1_CR0_IND + ri), USBUART_1_MODE_NAK_OUT);
 1020              		.loc 1 1325 0
 1021 000c 0822     		movs	r2, #8
 1022 000e 014B     		ldr	r3, .L76
 1023 0010 C254     		strb	r2, [r0, r3]
 1024              	.LVL78:
 1025              	.L74:
 1026 0012 7047     		bx	lr
 1027              	.L77:
 1028              		.align	2
 1029              	.L76:
 1030 0014 0E600040 		.word	1073766414
 1031              		.cfi_endproc
 1032              	.LFE14:
 1033              		.size	USBUART_1_DisableOutEP, .-USBUART_1_DisableOutEP
 1034              		.section	.text.USBUART_1_Force,"ax",%progbits
 1035              		.align	2
 1036              		.global	USBUART_1_Force
 1037              		.thumb
 1038              		.thumb_func
 1039              		.type	USBUART_1_Force, %function
 1040              	USBUART_1_Force:
 1041              	.LFB15:
1326:.\Generated_Source\PSoC5/USBUART_1.c ****     }
1327:.\Generated_Source\PSoC5/USBUART_1.c **** }
1328:.\Generated_Source\PSoC5/USBUART_1.c **** 
1329:.\Generated_Source\PSoC5/USBUART_1.c **** 
ARM GAS  C:\Users\pxc\AppData\Local\Temp\ccwzKeIq.s 			page 43


1330:.\Generated_Source\PSoC5/USBUART_1.c **** /*******************************************************************************
1331:.\Generated_Source\PSoC5/USBUART_1.c **** * Function Name: USBUART_1_Force
1332:.\Generated_Source\PSoC5/USBUART_1.c **** ********************************************************************************
1333:.\Generated_Source\PSoC5/USBUART_1.c **** *
1334:.\Generated_Source\PSoC5/USBUART_1.c **** * Summary:
1335:.\Generated_Source\PSoC5/USBUART_1.c **** *  Forces the bus state
1336:.\Generated_Source\PSoC5/USBUART_1.c **** *
1337:.\Generated_Source\PSoC5/USBUART_1.c **** * Parameters:
1338:.\Generated_Source\PSoC5/USBUART_1.c **** *  bState
1339:.\Generated_Source\PSoC5/USBUART_1.c **** *    USBUART_1_FORCE_J
1340:.\Generated_Source\PSoC5/USBUART_1.c **** *    USBUART_1_FORCE_K
1341:.\Generated_Source\PSoC5/USBUART_1.c **** *    USBUART_1_FORCE_SE0
1342:.\Generated_Source\PSoC5/USBUART_1.c **** *    USBUART_1_FORCE_NONE
1343:.\Generated_Source\PSoC5/USBUART_1.c **** *
1344:.\Generated_Source\PSoC5/USBUART_1.c **** * Return:
1345:.\Generated_Source\PSoC5/USBUART_1.c **** *  None.
1346:.\Generated_Source\PSoC5/USBUART_1.c **** *
1347:.\Generated_Source\PSoC5/USBUART_1.c **** *******************************************************************************/
1348:.\Generated_Source\PSoC5/USBUART_1.c **** void USBUART_1_Force(uint8 bState) 
1349:.\Generated_Source\PSoC5/USBUART_1.c **** {
 1042              		.loc 1 1349 0
 1043              		.cfi_startproc
 1044              		@ args = 0, pretend = 0, frame = 0
 1045              		@ frame_needed = 0, uses_anonymous_args = 0
 1046              		@ link register save eliminated.
 1047              	.LVL79:
1350:.\Generated_Source\PSoC5/USBUART_1.c ****     CY_SET_REG8(USBUART_1_USBIO_CR0_PTR, bState);
 1048              		.loc 1 1350 0
 1049 0000 014B     		ldr	r3, .L79
 1050 0002 1870     		strb	r0, [r3]
 1051 0004 7047     		bx	lr
 1052              	.L80:
 1053 0006 00BF     		.align	2
 1054              	.L79:
 1055 0008 10600040 		.word	1073766416
 1056              		.cfi_endproc
 1057              	.LFE15:
 1058              		.size	USBUART_1_Force, .-USBUART_1_Force
 1059              		.section	.text.USBUART_1_GetEPAckState,"ax",%progbits
 1060              		.align	2
 1061              		.global	USBUART_1_GetEPAckState
 1062              		.thumb
 1063              		.thumb_func
 1064              		.type	USBUART_1_GetEPAckState, %function
 1065              	USBUART_1_GetEPAckState:
 1066              	.LFB16:
1351:.\Generated_Source\PSoC5/USBUART_1.c **** }
1352:.\Generated_Source\PSoC5/USBUART_1.c **** 
1353:.\Generated_Source\PSoC5/USBUART_1.c **** 
1354:.\Generated_Source\PSoC5/USBUART_1.c **** /*******************************************************************************
1355:.\Generated_Source\PSoC5/USBUART_1.c **** * Function Name: USBUART_1_GetEPAckState
1356:.\Generated_Source\PSoC5/USBUART_1.c **** ********************************************************************************
1357:.\Generated_Source\PSoC5/USBUART_1.c **** *
1358:.\Generated_Source\PSoC5/USBUART_1.c **** * Summary:
1359:.\Generated_Source\PSoC5/USBUART_1.c **** *  Returns the ACK of the CR0 Register (ACKD)
1360:.\Generated_Source\PSoC5/USBUART_1.c **** *
1361:.\Generated_Source\PSoC5/USBUART_1.c **** * Parameters:
ARM GAS  C:\Users\pxc\AppData\Local\Temp\ccwzKeIq.s 			page 44


1362:.\Generated_Source\PSoC5/USBUART_1.c **** *  epNumber: Endpoint Number
1363:.\Generated_Source\PSoC5/USBUART_1.c **** *            Valid values are between 1 and 8.
1364:.\Generated_Source\PSoC5/USBUART_1.c **** *
1365:.\Generated_Source\PSoC5/USBUART_1.c **** * Returns
1366:.\Generated_Source\PSoC5/USBUART_1.c **** *  0 if nothing has been ACKD, non-=zero something has been ACKD
1367:.\Generated_Source\PSoC5/USBUART_1.c **** *
1368:.\Generated_Source\PSoC5/USBUART_1.c **** *******************************************************************************/
1369:.\Generated_Source\PSoC5/USBUART_1.c **** uint8 USBUART_1_GetEPAckState(uint8 epNumber) 
1370:.\Generated_Source\PSoC5/USBUART_1.c **** {
 1067              		.loc 1 1370 0
 1068              		.cfi_startproc
 1069              		@ args = 0, pretend = 0, frame = 0
 1070              		@ frame_needed = 0, uses_anonymous_args = 0
 1071              		@ link register save eliminated.
 1072              	.LVL80:
1371:.\Generated_Source\PSoC5/USBUART_1.c ****     uint8 ri;
1372:.\Generated_Source\PSoC5/USBUART_1.c ****     uint8 cr = 0u;
1373:.\Generated_Source\PSoC5/USBUART_1.c **** 
1374:.\Generated_Source\PSoC5/USBUART_1.c ****     if((epNumber > USBUART_1_EP0) && (epNumber < USBUART_1_MAX_EP))
 1073              		.loc 1 1374 0
 1074 0000 0138     		subs	r0, r0, #1
 1075              	.LVL81:
 1076 0002 C0B2     		uxtb	r0, r0
 1077 0004 0728     		cmp	r0, #7
 1078 0006 07D8     		bhi	.L83
1375:.\Generated_Source\PSoC5/USBUART_1.c ****     {
1376:.\Generated_Source\PSoC5/USBUART_1.c ****         ri = ((epNumber - USBUART_1_EP1) << USBUART_1_EPX_CNTX_ADDR_SHIFT);
 1079              		.loc 1 1376 0
 1080 0008 0001     		lsls	r0, r0, #4
 1081 000a C0B2     		uxtb	r0, r0
 1082              	.LVL82:
1377:.\Generated_Source\PSoC5/USBUART_1.c ****         cr = CY_GET_REG8((reg8 *)(USBUART_1_SIE_EP1_CR0_IND + ri)) & USBUART_1_MODE_ACKD;
 1083              		.loc 1 1377 0
 1084 000c 034B     		ldr	r3, .L84
 1085 000e C05C     		ldrb	r0, [r0, r3]	@ zero_extendqisi2
 1086              	.LVL83:
 1087 0010 00F01000 		and	r0, r0, #16
 1088 0014 C0B2     		uxtb	r0, r0
 1089              	.LVL84:
 1090 0016 7047     		bx	lr
 1091              	.LVL85:
 1092              	.L83:
1372:.\Generated_Source\PSoC5/USBUART_1.c **** 
 1093              		.loc 1 1372 0
 1094 0018 0020     		movs	r0, #0
 1095              	.LVL86:
1378:.\Generated_Source\PSoC5/USBUART_1.c ****     }
1379:.\Generated_Source\PSoC5/USBUART_1.c **** 
1380:.\Generated_Source\PSoC5/USBUART_1.c ****     return(cr);
1381:.\Generated_Source\PSoC5/USBUART_1.c **** }
 1096              		.loc 1 1381 0
 1097 001a 7047     		bx	lr
 1098              	.L85:
 1099              		.align	2
 1100              	.L84:
 1101 001c 0E600040 		.word	1073766414
 1102              		.cfi_endproc
ARM GAS  C:\Users\pxc\AppData\Local\Temp\ccwzKeIq.s 			page 45


 1103              	.LFE16:
 1104              		.size	USBUART_1_GetEPAckState, .-USBUART_1_GetEPAckState
 1105              		.section	.text.USBUART_1_SetPowerStatus,"ax",%progbits
 1106              		.align	2
 1107              		.global	USBUART_1_SetPowerStatus
 1108              		.thumb
 1109              		.thumb_func
 1110              		.type	USBUART_1_SetPowerStatus, %function
 1111              	USBUART_1_SetPowerStatus:
 1112              	.LFB17:
1382:.\Generated_Source\PSoC5/USBUART_1.c **** 
1383:.\Generated_Source\PSoC5/USBUART_1.c **** 
1384:.\Generated_Source\PSoC5/USBUART_1.c **** /*******************************************************************************
1385:.\Generated_Source\PSoC5/USBUART_1.c **** * Function Name: USBUART_1_SetPowerStatus
1386:.\Generated_Source\PSoC5/USBUART_1.c **** ********************************************************************************
1387:.\Generated_Source\PSoC5/USBUART_1.c **** *
1388:.\Generated_Source\PSoC5/USBUART_1.c **** * Summary:
1389:.\Generated_Source\PSoC5/USBUART_1.c **** *  Sets the device power status for reporting in the Get Device Status
1390:.\Generated_Source\PSoC5/USBUART_1.c **** *  request
1391:.\Generated_Source\PSoC5/USBUART_1.c **** *
1392:.\Generated_Source\PSoC5/USBUART_1.c **** * Parameters:
1393:.\Generated_Source\PSoC5/USBUART_1.c **** *  powerStatus: USBUART_1_DEVICE_STATUS_BUS_POWERED(0) - Bus Powered,
1394:.\Generated_Source\PSoC5/USBUART_1.c **** *               USBUART_1_DEVICE_STATUS_SELF_POWERED(1) - Self Powered
1395:.\Generated_Source\PSoC5/USBUART_1.c **** *
1396:.\Generated_Source\PSoC5/USBUART_1.c **** * Return:
1397:.\Generated_Source\PSoC5/USBUART_1.c **** *   None.
1398:.\Generated_Source\PSoC5/USBUART_1.c **** *
1399:.\Generated_Source\PSoC5/USBUART_1.c **** * Global variables:
1400:.\Generated_Source\PSoC5/USBUART_1.c **** *  USBUART_1_deviceStatus - set power status
1401:.\Generated_Source\PSoC5/USBUART_1.c **** *
1402:.\Generated_Source\PSoC5/USBUART_1.c **** * Reentrant:
1403:.\Generated_Source\PSoC5/USBUART_1.c **** *  No.
1404:.\Generated_Source\PSoC5/USBUART_1.c **** *
1405:.\Generated_Source\PSoC5/USBUART_1.c **** *******************************************************************************/
1406:.\Generated_Source\PSoC5/USBUART_1.c **** void USBUART_1_SetPowerStatus(uint8 powerStatus) 
1407:.\Generated_Source\PSoC5/USBUART_1.c **** {
 1113              		.loc 1 1407 0
 1114              		.cfi_startproc
 1115              		@ args = 0, pretend = 0, frame = 0
 1116              		@ frame_needed = 0, uses_anonymous_args = 0
 1117              		@ link register save eliminated.
 1118              	.LVL87:
1408:.\Generated_Source\PSoC5/USBUART_1.c ****     if (powerStatus != USBUART_1_DEVICE_STATUS_BUS_POWERED)
 1119              		.loc 1 1408 0
 1120 0000 28B1     		cbz	r0, .L87
1409:.\Generated_Source\PSoC5/USBUART_1.c ****     {
1410:.\Generated_Source\PSoC5/USBUART_1.c ****         USBUART_1_deviceStatus |=  USBUART_1_DEVICE_STATUS_SELF_POWERED;
 1121              		.loc 1 1410 0
 1122 0002 064A     		ldr	r2, .L89
 1123 0004 1378     		ldrb	r3, [r2]	@ zero_extendqisi2
 1124 0006 43F00103 		orr	r3, r3, #1
 1125 000a 1370     		strb	r3, [r2]
 1126 000c 7047     		bx	lr
 1127              	.L87:
1411:.\Generated_Source\PSoC5/USBUART_1.c ****     }
1412:.\Generated_Source\PSoC5/USBUART_1.c ****     else
1413:.\Generated_Source\PSoC5/USBUART_1.c ****     {
ARM GAS  C:\Users\pxc\AppData\Local\Temp\ccwzKeIq.s 			page 46


1414:.\Generated_Source\PSoC5/USBUART_1.c ****         USBUART_1_deviceStatus &=  ((uint8)(~USBUART_1_DEVICE_STATUS_SELF_POWERED));
 1128              		.loc 1 1414 0
 1129 000e 034A     		ldr	r2, .L89
 1130 0010 1378     		ldrb	r3, [r2]	@ zero_extendqisi2
 1131 0012 03F0FE03 		and	r3, r3, #254
 1132 0016 1370     		strb	r3, [r2]
 1133 0018 7047     		bx	lr
 1134              	.L90:
 1135 001a 00BF     		.align	2
 1136              	.L89:
 1137 001c 00000000 		.word	USBUART_1_deviceStatus
 1138              		.cfi_endproc
 1139              	.LFE17:
 1140              		.size	USBUART_1_SetPowerStatus, .-USBUART_1_SetPowerStatus
 1141              		.section	.text.USBUART_1_RWUEnabled,"ax",%progbits
 1142              		.align	2
 1143              		.global	USBUART_1_RWUEnabled
 1144              		.thumb
 1145              		.thumb_func
 1146              		.type	USBUART_1_RWUEnabled, %function
 1147              	USBUART_1_RWUEnabled:
 1148              	.LFB18:
1415:.\Generated_Source\PSoC5/USBUART_1.c ****     }
1416:.\Generated_Source\PSoC5/USBUART_1.c **** }
1417:.\Generated_Source\PSoC5/USBUART_1.c **** 
1418:.\Generated_Source\PSoC5/USBUART_1.c **** 
1419:.\Generated_Source\PSoC5/USBUART_1.c **** #if (USBUART_1_MON_VBUS == 1u)
1420:.\Generated_Source\PSoC5/USBUART_1.c **** 
1421:.\Generated_Source\PSoC5/USBUART_1.c ****     /*******************************************************************************
1422:.\Generated_Source\PSoC5/USBUART_1.c ****     * Function Name: USBUART_1_VBusPresent
1423:.\Generated_Source\PSoC5/USBUART_1.c ****     ********************************************************************************
1424:.\Generated_Source\PSoC5/USBUART_1.c ****     *
1425:.\Generated_Source\PSoC5/USBUART_1.c ****     * Summary:
1426:.\Generated_Source\PSoC5/USBUART_1.c ****     *  Determines VBUS presence for Self Powered Devices.
1427:.\Generated_Source\PSoC5/USBUART_1.c ****     *
1428:.\Generated_Source\PSoC5/USBUART_1.c ****     * Parameters:
1429:.\Generated_Source\PSoC5/USBUART_1.c ****     *  None.
1430:.\Generated_Source\PSoC5/USBUART_1.c ****     *
1431:.\Generated_Source\PSoC5/USBUART_1.c ****     * Return:
1432:.\Generated_Source\PSoC5/USBUART_1.c ****     *  1 if VBUS is present, otherwise 0.
1433:.\Generated_Source\PSoC5/USBUART_1.c ****     *
1434:.\Generated_Source\PSoC5/USBUART_1.c ****     *******************************************************************************/
1435:.\Generated_Source\PSoC5/USBUART_1.c ****     uint8 USBUART_1_VBusPresent(void) 
1436:.\Generated_Source\PSoC5/USBUART_1.c ****     {
1437:.\Generated_Source\PSoC5/USBUART_1.c ****         return((0u != (CY_GET_REG8(USBUART_1_VBUS_PS_PTR) & USBUART_1_VBUS_MASK)) ? 1u : 0u);
1438:.\Generated_Source\PSoC5/USBUART_1.c ****     }
1439:.\Generated_Source\PSoC5/USBUART_1.c **** 
1440:.\Generated_Source\PSoC5/USBUART_1.c **** #endif /* USBUART_1_MON_VBUS */
1441:.\Generated_Source\PSoC5/USBUART_1.c **** 
1442:.\Generated_Source\PSoC5/USBUART_1.c **** 
1443:.\Generated_Source\PSoC5/USBUART_1.c **** /*******************************************************************************
1444:.\Generated_Source\PSoC5/USBUART_1.c **** * Function Name: USBUART_1_RWUEnabled
1445:.\Generated_Source\PSoC5/USBUART_1.c **** ********************************************************************************
1446:.\Generated_Source\PSoC5/USBUART_1.c **** *
1447:.\Generated_Source\PSoC5/USBUART_1.c **** * Summary:
1448:.\Generated_Source\PSoC5/USBUART_1.c **** *  Returns TRUE if Remote Wake Up is enabled, otherwise FALSE
1449:.\Generated_Source\PSoC5/USBUART_1.c **** *
ARM GAS  C:\Users\pxc\AppData\Local\Temp\ccwzKeIq.s 			page 47


1450:.\Generated_Source\PSoC5/USBUART_1.c **** * Parameters:
1451:.\Generated_Source\PSoC5/USBUART_1.c **** *   None.
1452:.\Generated_Source\PSoC5/USBUART_1.c **** *
1453:.\Generated_Source\PSoC5/USBUART_1.c **** * Return:
1454:.\Generated_Source\PSoC5/USBUART_1.c **** *  TRUE -  Remote Wake Up Enabled
1455:.\Generated_Source\PSoC5/USBUART_1.c **** *  FALSE - Remote Wake Up Disabled
1456:.\Generated_Source\PSoC5/USBUART_1.c **** *
1457:.\Generated_Source\PSoC5/USBUART_1.c **** * Global variables:
1458:.\Generated_Source\PSoC5/USBUART_1.c **** *  USBUART_1_deviceStatus - checked to determine remote status
1459:.\Generated_Source\PSoC5/USBUART_1.c **** *
1460:.\Generated_Source\PSoC5/USBUART_1.c **** *******************************************************************************/
1461:.\Generated_Source\PSoC5/USBUART_1.c **** uint8 USBUART_1_RWUEnabled(void) 
1462:.\Generated_Source\PSoC5/USBUART_1.c **** {
 1149              		.loc 1 1462 0
 1150              		.cfi_startproc
 1151              		@ args = 0, pretend = 0, frame = 0
 1152              		@ frame_needed = 0, uses_anonymous_args = 0
 1153              		@ link register save eliminated.
 1154              	.LVL88:
1463:.\Generated_Source\PSoC5/USBUART_1.c ****     uint8 result = USBUART_1_FALSE;
1464:.\Generated_Source\PSoC5/USBUART_1.c ****     if((USBUART_1_deviceStatus & USBUART_1_DEVICE_STATUS_REMOTE_WAKEUP) != 0u)
 1155              		.loc 1 1464 0
 1156 0000 044B     		ldr	r3, .L94
 1157 0002 1B78     		ldrb	r3, [r3]	@ zero_extendqisi2
 1158 0004 13F0020F 		tst	r3, #2
 1159 0008 01D1     		bne	.L93
1463:.\Generated_Source\PSoC5/USBUART_1.c ****     uint8 result = USBUART_1_FALSE;
 1160              		.loc 1 1463 0
 1161 000a 0020     		movs	r0, #0
 1162 000c 7047     		bx	lr
 1163              	.L93:
1465:.\Generated_Source\PSoC5/USBUART_1.c ****     {
1466:.\Generated_Source\PSoC5/USBUART_1.c ****         result = USBUART_1_TRUE;
 1164              		.loc 1 1466 0
 1165 000e 0120     		movs	r0, #1
 1166              	.LVL89:
1467:.\Generated_Source\PSoC5/USBUART_1.c ****     }
1468:.\Generated_Source\PSoC5/USBUART_1.c **** 
1469:.\Generated_Source\PSoC5/USBUART_1.c ****     return(result);
1470:.\Generated_Source\PSoC5/USBUART_1.c **** }
 1167              		.loc 1 1470 0
 1168 0010 7047     		bx	lr
 1169              	.L95:
 1170 0012 00BF     		.align	2
 1171              	.L94:
 1172 0014 00000000 		.word	USBUART_1_deviceStatus
 1173              		.cfi_endproc
 1174              	.LFE18:
 1175              		.size	USBUART_1_RWUEnabled, .-USBUART_1_RWUEnabled
 1176              		.global	USBUART_1_initVar
 1177              		.bss
 1178              		.set	.LANCHOR0,. + 0
 1179              		.type	USBUART_1_initVar, %object
 1180              		.size	USBUART_1_initVar, 1
 1181              	USBUART_1_initVar:
 1182 0000 00       		.space	1
 1183              		.text
ARM GAS  C:\Users\pxc\AppData\Local\Temp\ccwzKeIq.s 			page 48


 1184              	.Letext0:
 1185              		.file 2 "Generated_Source\\PSoC5/cytypes.h"
 1186              		.file 3 ".\\Generated_Source\\PSoC5\\USBUART_1.h"
 1187              		.file 4 ".\\Generated_Source\\PSoC5\\USBUART_1_pvt.h"
 1188              		.file 5 "Generated_Source\\PSoC5/CyLib.h"